MPLINK 4.30.01, Linker
Linker Map File - Created Tue Nov 21 23:07:47 2023

                                 Section Info
                  Section       Type    Address   Location Size(Bytes)
                ---------  ---------  ---------  ---------  ---------
                   .org_0       code   0x000000    program   0x000000
                   .org_1       code   0x000000    program   0x000004
                   .org_2       code   0x000004    program   0x00094e
                   .org_3       code   0x000800    program   0x000f94
                   .org_4       code   0x001000    program   0x000a50
     .config_2007_TDM 4.O       code   0x002007    program   0x000002



                              Program Memory Usage 
                               Start         End      
                           ---------   ---------      
                            0x000000    0x000001      
                            0x000004    0x0004aa      
                            0x000800    0x000fc9      
                            0x001000    0x001527      
                            0x002007    0x002007      
            4508 out of 8453 program addresses used, program memory utilization is 53%



                              Symbols - Sorted by Name
                     Name    Address   Location    Storage File                     
                ---------  ---------  ---------  --------- ---------                
                   FTGRM1   0x00001c    program     static E:\AMM\Práctica 4\Prácticsa 4 Displays TDM\TDM 4.asm
                  FTGRM10   0x0000fd    program     static E:\AMM\Práctica 4\Prácticsa 4 Displays TDM\TDM 4.asm
                 FTGRM100   0x000d7a    program     static E:\AMM\Práctica 4\Prácticsa 4 Displays TDM\TDM 4.asm
                 FTGRM101   0x000d93    program     static E:\AMM\Práctica 4\Prácticsa 4 Displays TDM\TDM 4.asm
                 FTGRM102   0x000dac    program     static E:\AMM\Práctica 4\Prácticsa 4 Displays TDM\TDM 4.asm
                 FTGRM103   0x000dc5    program     static E:\AMM\Práctica 4\Prácticsa 4 Displays TDM\TDM 4.asm
                 FTGRM104   0x000dde    program     static E:\AMM\Práctica 4\Prácticsa 4 Displays TDM\TDM 4.asm
                 FTGRM105   0x000df7    program     static E:\AMM\Práctica 4\Prácticsa 4 Displays TDM\TDM 4.asm
                 FTGRM106   0x000e10    program     static E:\AMM\Práctica 4\Prácticsa 4 Displays TDM\TDM 4.asm
                 FTGRM107   0x000e29    program     static E:\AMM\Práctica 4\Prácticsa 4 Displays TDM\TDM 4.asm
                 FTGRM108   0x000e42    program     static E:\AMM\Práctica 4\Prácticsa 4 Displays TDM\TDM 4.asm
                 FTGRM109   0x000e5b    program     static E:\AMM\Práctica 4\Prácticsa 4 Displays TDM\TDM 4.asm
                  FTGRM11   0x000116    program     static E:\AMM\Práctica 4\Prácticsa 4 Displays TDM\TDM 4.asm
                 FTGRM110   0x000e74    program     static E:\AMM\Práctica 4\Prácticsa 4 Displays TDM\TDM 4.asm
                 FTGRM111   0x000e8d    program     static E:\AMM\Práctica 4\Prácticsa 4 Displays TDM\TDM 4.asm
                 FTGRM112   0x000ea6    program     static E:\AMM\Práctica 4\Prácticsa 4 Displays TDM\TDM 4.asm
                 FTGRM113   0x000ebf    program     static E:\AMM\Práctica 4\Prácticsa 4 Displays TDM\TDM 4.asm
                 FTGRM114   0x000ed8    program     static E:\AMM\Práctica 4\Prácticsa 4 Displays TDM\TDM 4.asm
                 FTGRM115   0x000ef1    program     static E:\AMM\Práctica 4\Prácticsa 4 Displays TDM\TDM 4.asm
                 FTGRM116   0x000f0a    program     static E:\AMM\Práctica 4\Prácticsa 4 Displays TDM\TDM 4.asm
                 FTGRM117   0x000f23    program     static E:\AMM\Práctica 4\Prácticsa 4 Displays TDM\TDM 4.asm
                 FTGRM118   0x000f3c    program     static E:\AMM\Práctica 4\Prácticsa 4 Displays TDM\TDM 4.asm
               FTGRM118.1   0x000f55    program     static E:\AMM\Práctica 4\Prácticsa 4 Displays TDM\TDM 4.asm
                 FTGRM119   0x000f6e    program     static E:\AMM\Práctica 4\Prácticsa 4 Displays TDM\TDM 4.asm
                  FTGRM12   0x00012f    program     static E:\AMM\Práctica 4\Prácticsa 4 Displays TDM\TDM 4.asm
                 FTGRM120   0x001002    program     static E:\AMM\Práctica 4\Prácticsa 4 Displays TDM\TDM 4.asm
                 FTGRM121   0x00101b    program     static E:\AMM\Práctica 4\Prácticsa 4 Displays TDM\TDM 4.asm
                 FTGRM122   0x001034    program     static E:\AMM\Práctica 4\Prácticsa 4 Displays TDM\TDM 4.asm
                 FTGRM123   0x00104d    program     static E:\AMM\Práctica 4\Prácticsa 4 Displays TDM\TDM 4.asm
                 FTGRM124   0x001066    program     static E:\AMM\Práctica 4\Prácticsa 4 Displays TDM\TDM 4.asm
                 FTGRM125   0x00107f    program     static E:\AMM\Práctica 4\Prácticsa 4 Displays TDM\TDM 4.asm
                 FTGRM126   0x001098    program     static E:\AMM\Práctica 4\Prácticsa 4 Displays TDM\TDM 4.asm
                 FTGRM127   0x0010b1    program     static E:\AMM\Práctica 4\Prácticsa 4 Displays TDM\TDM 4.asm
                 FTGRM128   0x0010ca    program     static E:\AMM\Práctica 4\Prácticsa 4 Displays TDM\TDM 4.asm
                 FTGRM129   0x0010e3    program     static E:\AMM\Práctica 4\Prácticsa 4 Displays TDM\TDM 4.asm
                  FTGRM13   0x000148    program     static E:\AMM\Práctica 4\Prácticsa 4 Displays TDM\TDM 4.asm
                 FTGRM130   0x0010fc    program     static E:\AMM\Práctica 4\Prácticsa 4 Displays TDM\TDM 4.asm
                 FTGRM131   0x001115    program     static E:\AMM\Práctica 4\Prácticsa 4 Displays TDM\TDM 4.asm
                 FTGRM132   0x00112e    program     static E:\AMM\Práctica 4\Prácticsa 4 Displays TDM\TDM 4.asm
                 FTGRM133   0x001147    program     static E:\AMM\Práctica 4\Prácticsa 4 Displays TDM\TDM 4.asm
                 FTGRM134   0x001160    program     static E:\AMM\Práctica 4\Prácticsa 4 Displays TDM\TDM 4.asm
                 FTGRM135   0x001179    program     static E:\AMM\Práctica 4\Prácticsa 4 Displays TDM\TDM 4.asm
                 FTGRM136   0x001192    program     static E:\AMM\Práctica 4\Prácticsa 4 Displays TDM\TDM 4.asm
                 FTGRM137   0x0011ab    program     static E:\AMM\Práctica 4\Prácticsa 4 Displays TDM\TDM 4.asm
                 FTGRM138   0x0011c4    program     static E:\AMM\Práctica 4\Prácticsa 4 Displays TDM\TDM 4.asm
                 FTGRM139   0x0011dd    program     static E:\AMM\Práctica 4\Prácticsa 4 Displays TDM\TDM 4.asm
                  FTGRM14   0x000161    program     static E:\AMM\Práctica 4\Prácticsa 4 Displays TDM\TDM 4.asm
                 FTGRM140   0x0011f6    program     static E:\AMM\Práctica 4\Prácticsa 4 Displays TDM\TDM 4.asm
                 FTGRM141   0x00120f    program     static E:\AMM\Práctica 4\Prácticsa 4 Displays TDM\TDM 4.asm
                 FTGRM142   0x001228    program     static E:\AMM\Práctica 4\Prácticsa 4 Displays TDM\TDM 4.asm
                 FTGRM143   0x001241    program     static E:\AMM\Práctica 4\Prácticsa 4 Displays TDM\TDM 4.asm
                 FTGRM144   0x00125a    program     static E:\AMM\Práctica 4\Prácticsa 4 Displays TDM\TDM 4.asm
                 FTGRM145   0x001273    program     static E:\AMM\Práctica 4\Prácticsa 4 Displays TDM\TDM 4.asm
                 FTGRM146   0x00128c    program     static E:\AMM\Práctica 4\Prácticsa 4 Displays TDM\TDM 4.asm
                 FTGRM147   0x0012a5    program     static E:\AMM\Práctica 4\Prácticsa 4 Displays TDM\TDM 4.asm
                 FTGRM148   0x0012be    program     static E:\AMM\Práctica 4\Prácticsa 4 Displays TDM\TDM 4.asm
                 FTGRM149   0x0012d7    program     static E:\AMM\Práctica 4\Prácticsa 4 Displays TDM\TDM 4.asm
                  FTGRM15   0x00017a    program     static E:\AMM\Práctica 4\Prácticsa 4 Displays TDM\TDM 4.asm
                 FTGRM150   0x0012f0    program     static E:\AMM\Práctica 4\Prácticsa 4 Displays TDM\TDM 4.asm
                 FTGRM151   0x001309    program     static E:\AMM\Práctica 4\Prácticsa 4 Displays TDM\TDM 4.asm
                 FTGRM152   0x001322    program     static E:\AMM\Práctica 4\Prácticsa 4 Displays TDM\TDM 4.asm
                 FTGRM153   0x00133b    program     static E:\AMM\Práctica 4\Prácticsa 4 Displays TDM\TDM 4.asm
                 FTGRM154   0x001354    program     static E:\AMM\Práctica 4\Prácticsa 4 Displays TDM\TDM 4.asm
                 FTGRM155   0x00136d    program     static E:\AMM\Práctica 4\Prácticsa 4 Displays TDM\TDM 4.asm
                 FTGRM156   0x001386    program     static E:\AMM\Práctica 4\Prácticsa 4 Displays TDM\TDM 4.asm
                 FTGRM157   0x00139f    program     static E:\AMM\Práctica 4\Prácticsa 4 Displays TDM\TDM 4.asm
                 FTGRM158   0x0013b8    program     static E:\AMM\Práctica 4\Prácticsa 4 Displays TDM\TDM 4.asm
                 FTGRM159   0x0013d1    program     static E:\AMM\Práctica 4\Prácticsa 4 Displays TDM\TDM 4.asm
                  FTGRM16   0x000193    program     static E:\AMM\Práctica 4\Prácticsa 4 Displays TDM\TDM 4.asm
                 FTGRM160   0x0013ea    program     static E:\AMM\Práctica 4\Prácticsa 4 Displays TDM\TDM 4.asm
                 FTGRM161   0x001403    program     static E:\AMM\Práctica 4\Prácticsa 4 Displays TDM\TDM 4.asm
                 FTGRM162   0x00141c    program     static E:\AMM\Práctica 4\Prácticsa 4 Displays TDM\TDM 4.asm
                 FTGRM163   0x001435    program     static E:\AMM\Práctica 4\Prácticsa 4 Displays TDM\TDM 4.asm
                 FTGRM164   0x00144e    program     static E:\AMM\Práctica 4\Prácticsa 4 Displays TDM\TDM 4.asm
                 FTGRM165   0x001467    program     static E:\AMM\Práctica 4\Prácticsa 4 Displays TDM\TDM 4.asm
                 FTGRM166   0x001480    program     static E:\AMM\Práctica 4\Prácticsa 4 Displays TDM\TDM 4.asm
                 FTGRM167   0x001499    program     static E:\AMM\Práctica 4\Prácticsa 4 Displays TDM\TDM 4.asm
                 FTGRM168   0x0014b2    program     static E:\AMM\Práctica 4\Prácticsa 4 Displays TDM\TDM 4.asm
                 FTGRM169   0x0014cb    program     static E:\AMM\Práctica 4\Prácticsa 4 Displays TDM\TDM 4.asm
                  FTGRM17   0x0001ac    program     static E:\AMM\Práctica 4\Prácticsa 4 Displays TDM\TDM 4.asm
                  FTGRM18   0x0001c5    program     static E:\AMM\Práctica 4\Prácticsa 4 Displays TDM\TDM 4.asm
                  FTGRM19   0x0001de    program     static E:\AMM\Práctica 4\Prácticsa 4 Displays TDM\TDM 4.asm
                   FTGRM2   0x000035    program     static E:\AMM\Práctica 4\Prácticsa 4 Displays TDM\TDM 4.asm
                  FTGRM20   0x0001f7    program     static E:\AMM\Práctica 4\Prácticsa 4 Displays TDM\TDM 4.asm
                  FTGRM21   0x000210    program     static E:\AMM\Práctica 4\Prácticsa 4 Displays TDM\TDM 4.asm
                  FTGRM22   0x000229    program     static E:\AMM\Práctica 4\Prácticsa 4 Displays TDM\TDM 4.asm
                  FTGRM23   0x000242    program     static E:\AMM\Práctica 4\Prácticsa 4 Displays TDM\TDM 4.asm
                  FTGRM24   0x00025b    program     static E:\AMM\Práctica 4\Prácticsa 4 Displays TDM\TDM 4.asm
                  FTGRM25   0x000274    program     static E:\AMM\Práctica 4\Prácticsa 4 Displays TDM\TDM 4.asm
                  FTGRM26   0x00028d    program     static E:\AMM\Práctica 4\Prácticsa 4 Displays TDM\TDM 4.asm
                  FTGRM27   0x0002a6    program     static E:\AMM\Práctica 4\Prácticsa 4 Displays TDM\TDM 4.asm
                  FTGRM28   0x0002bf    program     static E:\AMM\Práctica 4\Prácticsa 4 Displays TDM\TDM 4.asm
                  FTGRM29   0x0002d8    program     static E:\AMM\Práctica 4\Prácticsa 4 Displays TDM\TDM 4.asm
                   FTGRM3   0x00004e    program     static E:\AMM\Práctica 4\Prácticsa 4 Displays TDM\TDM 4.asm
                  FTGRM30   0x0002f1    program     static E:\AMM\Práctica 4\Prácticsa 4 Displays TDM\TDM 4.asm
                  FTGRM31   0x00030a    program     static E:\AMM\Práctica 4\Prácticsa 4 Displays TDM\TDM 4.asm
                  FTGRM32   0x000323    program     static E:\AMM\Práctica 4\Prácticsa 4 Displays TDM\TDM 4.asm
                  FTGRM33   0x00033c    program     static E:\AMM\Práctica 4\Prácticsa 4 Displays TDM\TDM 4.asm
                  FTGRM34   0x000355    program     static E:\AMM\Práctica 4\Prácticsa 4 Displays TDM\TDM 4.asm
                  FTGRM35   0x00036e    program     static E:\AMM\Práctica 4\Prácticsa 4 Displays TDM\TDM 4.asm
                  FTGRM36   0x000387    program     static E:\AMM\Práctica 4\Prácticsa 4 Displays TDM\TDM 4.asm
                  FTGRM37   0x0003a0    program     static E:\AMM\Práctica 4\Prácticsa 4 Displays TDM\TDM 4.asm
                  FTGRM38   0x0003b9    program     static E:\AMM\Práctica 4\Prácticsa 4 Displays TDM\TDM 4.asm
                  FTGRM39   0x0003d2    program     static E:\AMM\Práctica 4\Prácticsa 4 Displays TDM\TDM 4.asm
                   FTGRM4   0x000067    program     static E:\AMM\Práctica 4\Prácticsa 4 Displays TDM\TDM 4.asm
                  FTGRM40   0x0003eb    program     static E:\AMM\Práctica 4\Prácticsa 4 Displays TDM\TDM 4.asm
                  FTGRM41   0x000404    program     static E:\AMM\Práctica 4\Prácticsa 4 Displays TDM\TDM 4.asm
                  FTGRM42   0x00041d    program     static E:\AMM\Práctica 4\Prácticsa 4 Displays TDM\TDM 4.asm
                  FTGRM43   0x000436    program     static E:\AMM\Práctica 4\Prácticsa 4 Displays TDM\TDM 4.asm
                  FTGRM44   0x00044f    program     static E:\AMM\Práctica 4\Prácticsa 4 Displays TDM\TDM 4.asm
                  FTGRM45   0x000802    program     static E:\AMM\Práctica 4\Prácticsa 4 Displays TDM\TDM 4.asm
                  FTGRM46   0x00081b    program     static E:\AMM\Práctica 4\Prácticsa 4 Displays TDM\TDM 4.asm
                  FTGRM47   0x000834    program     static E:\AMM\Práctica 4\Prácticsa 4 Displays TDM\TDM 4.asm
                  FTGRM48   0x00084d    program     static E:\AMM\Práctica 4\Prácticsa 4 Displays TDM\TDM 4.asm
                  FTGRM49   0x000866    program     static E:\AMM\Práctica 4\Prácticsa 4 Displays TDM\TDM 4.asm
                   FTGRM5   0x000080    program     static E:\AMM\Práctica 4\Prácticsa 4 Displays TDM\TDM 4.asm
                  FTGRM50   0x00087f    program     static E:\AMM\Práctica 4\Prácticsa 4 Displays TDM\TDM 4.asm
                  FTGRM51   0x000898    program     static E:\AMM\Práctica 4\Prácticsa 4 Displays TDM\TDM 4.asm
                  FTGRM52   0x0008b1    program     static E:\AMM\Práctica 4\Prácticsa 4 Displays TDM\TDM 4.asm
                  FTGRM53   0x0008ca    program     static E:\AMM\Práctica 4\Prácticsa 4 Displays TDM\TDM 4.asm
                  FTGRM54   0x0008e3    program     static E:\AMM\Práctica 4\Prácticsa 4 Displays TDM\TDM 4.asm
                  FTGRM55   0x0008fc    program     static E:\AMM\Práctica 4\Prácticsa 4 Displays TDM\TDM 4.asm
                  FTGRM56   0x000915    program     static E:\AMM\Práctica 4\Prácticsa 4 Displays TDM\TDM 4.asm
                  FTGRM57   0x00092e    program     static E:\AMM\Práctica 4\Prácticsa 4 Displays TDM\TDM 4.asm
                  FTGRM58   0x000947    program     static E:\AMM\Práctica 4\Prácticsa 4 Displays TDM\TDM 4.asm
                  FTGRM59   0x000960    program     static E:\AMM\Práctica 4\Prácticsa 4 Displays TDM\TDM 4.asm
                   FTGRM6   0x000099    program     static E:\AMM\Práctica 4\Prácticsa 4 Displays TDM\TDM 4.asm
                  FTGRM60   0x000979    program     static E:\AMM\Práctica 4\Prácticsa 4 Displays TDM\TDM 4.asm
                  FTGRM61   0x000992    program     static E:\AMM\Práctica 4\Prácticsa 4 Displays TDM\TDM 4.asm
                  FTGRM62   0x0009ab    program     static E:\AMM\Práctica 4\Prácticsa 4 Displays TDM\TDM 4.asm
                  FTGRM63   0x0009c4    program     static E:\AMM\Práctica 4\Prácticsa 4 Displays TDM\TDM 4.asm
                  FTGRM64   0x0009dd    program     static E:\AMM\Práctica 4\Prácticsa 4 Displays TDM\TDM 4.asm
                  FTGRM65   0x0009f6    program     static E:\AMM\Práctica 4\Prácticsa 4 Displays TDM\TDM 4.asm
                  FTGRM66   0x000a0f    program     static E:\AMM\Práctica 4\Prácticsa 4 Displays TDM\TDM 4.asm
                  FTGRM67   0x000a28    program     static E:\AMM\Práctica 4\Prácticsa 4 Displays TDM\TDM 4.asm
                  FTGRM68   0x000a41    program     static E:\AMM\Práctica 4\Prácticsa 4 Displays TDM\TDM 4.asm
                  FTGRM69   0x000a5a    program     static E:\AMM\Práctica 4\Prácticsa 4 Displays TDM\TDM 4.asm
                   FTGRM7   0x0000b2    program     static E:\AMM\Práctica 4\Prácticsa 4 Displays TDM\TDM 4.asm
                  FTGRM70   0x000a73    program     static E:\AMM\Práctica 4\Prácticsa 4 Displays TDM\TDM 4.asm
                  FTGRM71   0x000a8c    program     static E:\AMM\Práctica 4\Prácticsa 4 Displays TDM\TDM 4.asm
                  FTGRM72   0x000aa5    program     static E:\AMM\Práctica 4\Prácticsa 4 Displays TDM\TDM 4.asm
                  FTGRM73   0x000abe    program     static E:\AMM\Práctica 4\Prácticsa 4 Displays TDM\TDM 4.asm
                  FTGRM74   0x000ad7    program     static E:\AMM\Práctica 4\Prácticsa 4 Displays TDM\TDM 4.asm
                  FTGRM75   0x000af0    program     static E:\AMM\Práctica 4\Prácticsa 4 Displays TDM\TDM 4.asm
                  FTGRM76   0x000b09    program     static E:\AMM\Práctica 4\Prácticsa 4 Displays TDM\TDM 4.asm
                  FTGRM77   0x000b22    program     static E:\AMM\Práctica 4\Prácticsa 4 Displays TDM\TDM 4.asm
                  FTGRM78   0x000b3b    program     static E:\AMM\Práctica 4\Prácticsa 4 Displays TDM\TDM 4.asm
                  FTGRM79   0x000b54    program     static E:\AMM\Práctica 4\Prácticsa 4 Displays TDM\TDM 4.asm
                   FTGRM8   0x0000cb    program     static E:\AMM\Práctica 4\Prácticsa 4 Displays TDM\TDM 4.asm
                  FTGRM80   0x000b6d    program     static E:\AMM\Práctica 4\Prácticsa 4 Displays TDM\TDM 4.asm
                  FTGRM81   0x000b86    program     static E:\AMM\Práctica 4\Prácticsa 4 Displays TDM\TDM 4.asm
                  FTGRM82   0x000b9f    program     static E:\AMM\Práctica 4\Prácticsa 4 Displays TDM\TDM 4.asm
                FTGRM82.1   0x000bb8    program     static E:\AMM\Práctica 4\Prácticsa 4 Displays TDM\TDM 4.asm
                  FTGRM83   0x000bd1    program     static E:\AMM\Práctica 4\Prácticsa 4 Displays TDM\TDM 4.asm
                  FTGRM84   0x000bea    program     static E:\AMM\Práctica 4\Prácticsa 4 Displays TDM\TDM 4.asm
                  FTGRM85   0x000c03    program     static E:\AMM\Práctica 4\Prácticsa 4 Displays TDM\TDM 4.asm
                  FTGRM86   0x000c1c    program     static E:\AMM\Práctica 4\Prácticsa 4 Displays TDM\TDM 4.asm
                  FTGRM87   0x000c35    program     static E:\AMM\Práctica 4\Prácticsa 4 Displays TDM\TDM 4.asm
                  FTGRM88   0x000c4e    program     static E:\AMM\Práctica 4\Prácticsa 4 Displays TDM\TDM 4.asm
                  FTGRM89   0x000c67    program     static E:\AMM\Práctica 4\Prácticsa 4 Displays TDM\TDM 4.asm
                   FTGRM9   0x0000e4    program     static E:\AMM\Práctica 4\Prácticsa 4 Displays TDM\TDM 4.asm
                  FTGRM90   0x000c80    program     static E:\AMM\Práctica 4\Prácticsa 4 Displays TDM\TDM 4.asm
                  FTGRM91   0x000c99    program     static E:\AMM\Práctica 4\Prácticsa 4 Displays TDM\TDM 4.asm
                  FTGRM92   0x000cb2    program     static E:\AMM\Práctica 4\Prácticsa 4 Displays TDM\TDM 4.asm
                  FTGRM93   0x000ccb    program     static E:\AMM\Práctica 4\Prácticsa 4 Displays TDM\TDM 4.asm
                  FTGRM94   0x000ce4    program     static E:\AMM\Práctica 4\Prácticsa 4 Displays TDM\TDM 4.asm
                  FTGRM95   0x000cfd    program     static E:\AMM\Práctica 4\Prácticsa 4 Displays TDM\TDM 4.asm
                  FTGRM96   0x000d16    program     static E:\AMM\Práctica 4\Prácticsa 4 Displays TDM\TDM 4.asm
                  FTGRM97   0x000d2f    program     static E:\AMM\Práctica 4\Prácticsa 4 Displays TDM\TDM 4.asm
                  FTGRM98   0x000d48    program     static E:\AMM\Práctica 4\Prácticsa 4 Displays TDM\TDM 4.asm
                  FTGRM99   0x000d61    program     static E:\AMM\Práctica 4\Prácticsa 4 Displays TDM\TDM 4.asm
             LIMPIEZA_PG0   0x000f86    program     static E:\AMM\Práctica 4\Prácticsa 4 Displays TDM\TDM 4.asm
            LLIMPIEZA_PG0   0x000467    program     static E:\AMM\Práctica 4\Prácticsa 4 Displays TDM\TDM 4.asm
                    LOOP1   0x00002e    program     static E:\AMM\Práctica 4\Prácticsa 4 Displays TDM\TDM 4.asm
                   LOOP10   0x00010f    program     static E:\AMM\Práctica 4\Prácticsa 4 Displays TDM\TDM 4.asm
                  LOOP100   0x000d8c    program     static E:\AMM\Práctica 4\Prácticsa 4 Displays TDM\TDM 4.asm
                  LOOP101   0x000da5    program     static E:\AMM\Práctica 4\Prácticsa 4 Displays TDM\TDM 4.asm
                  LOOP102   0x000dbe    program     static E:\AMM\Práctica 4\Prácticsa 4 Displays TDM\TDM 4.asm
                  LOOP103   0x000dd7    program     static E:\AMM\Práctica 4\Prácticsa 4 Displays TDM\TDM 4.asm
                  LOOP104   0x000df0    program     static E:\AMM\Práctica 4\Prácticsa 4 Displays TDM\TDM 4.asm
                  LOOP105   0x000e09    program     static E:\AMM\Práctica 4\Prácticsa 4 Displays TDM\TDM 4.asm
                  LOOP106   0x000e22    program     static E:\AMM\Práctica 4\Prácticsa 4 Displays TDM\TDM 4.asm
                  LOOP107   0x000e3b    program     static E:\AMM\Práctica 4\Prácticsa 4 Displays TDM\TDM 4.asm
                  LOOP108   0x000e54    program     static E:\AMM\Práctica 4\Prácticsa 4 Displays TDM\TDM 4.asm
                  LOOP109   0x000e6d    program     static E:\AMM\Práctica 4\Prácticsa 4 Displays TDM\TDM 4.asm
                   LOOP11   0x000128    program     static E:\AMM\Práctica 4\Prácticsa 4 Displays TDM\TDM 4.asm
                  LOOP110   0x000e86    program     static E:\AMM\Práctica 4\Prácticsa 4 Displays TDM\TDM 4.asm
                  LOOP111   0x000e9f    program     static E:\AMM\Práctica 4\Prácticsa 4 Displays TDM\TDM 4.asm
                  LOOP112   0x000eb8    program     static E:\AMM\Práctica 4\Prácticsa 4 Displays TDM\TDM 4.asm
                  LOOP113   0x000ed1    program     static E:\AMM\Práctica 4\Prácticsa 4 Displays TDM\TDM 4.asm
                  LOOP114   0x000eea    program     static E:\AMM\Práctica 4\Prácticsa 4 Displays TDM\TDM 4.asm
                  LOOP115   0x000f03    program     static E:\AMM\Práctica 4\Prácticsa 4 Displays TDM\TDM 4.asm
                  LOOP116   0x000f1c    program     static E:\AMM\Práctica 4\Prácticsa 4 Displays TDM\TDM 4.asm
                  LOOP117   0x000f35    program     static E:\AMM\Práctica 4\Prácticsa 4 Displays TDM\TDM 4.asm
                  LOOP118   0x000f4e    program     static E:\AMM\Práctica 4\Prácticsa 4 Displays TDM\TDM 4.asm
                LOOP118.1   0x000f67    program     static E:\AMM\Práctica 4\Prácticsa 4 Displays TDM\TDM 4.asm
                  LOOP119   0x000f80    program     static E:\AMM\Práctica 4\Prácticsa 4 Displays TDM\TDM 4.asm
                   LOOP12   0x000141    program     static E:\AMM\Práctica 4\Prácticsa 4 Displays TDM\TDM 4.asm
                  LOOP120   0x001014    program     static E:\AMM\Práctica 4\Prácticsa 4 Displays TDM\TDM 4.asm
                  LOOP121   0x00102d    program     static E:\AMM\Práctica 4\Prácticsa 4 Displays TDM\TDM 4.asm
                  LOOP122   0x001046    program     static E:\AMM\Práctica 4\Prácticsa 4 Displays TDM\TDM 4.asm
                  LOOP123   0x00105f    program     static E:\AMM\Práctica 4\Prácticsa 4 Displays TDM\TDM 4.asm
                  LOOP124   0x001078    program     static E:\AMM\Práctica 4\Prácticsa 4 Displays TDM\TDM 4.asm
                  LOOP125   0x001091    program     static E:\AMM\Práctica 4\Prácticsa 4 Displays TDM\TDM 4.asm
                  LOOP126   0x0010aa    program     static E:\AMM\Práctica 4\Prácticsa 4 Displays TDM\TDM 4.asm
                  LOOP127   0x0010c3    program     static E:\AMM\Práctica 4\Prácticsa 4 Displays TDM\TDM 4.asm
                  LOOP128   0x0010dc    program     static E:\AMM\Práctica 4\Prácticsa 4 Displays TDM\TDM 4.asm
                  LOOP129   0x0010f5    program     static E:\AMM\Práctica 4\Prácticsa 4 Displays TDM\TDM 4.asm
                   LOOP13   0x00015a    program     static E:\AMM\Práctica 4\Prácticsa 4 Displays TDM\TDM 4.asm
                  LOOP130   0x00110e    program     static E:\AMM\Práctica 4\Prácticsa 4 Displays TDM\TDM 4.asm
                  LOOP131   0x001127    program     static E:\AMM\Práctica 4\Prácticsa 4 Displays TDM\TDM 4.asm
                  LOOP132   0x001140    program     static E:\AMM\Práctica 4\Prácticsa 4 Displays TDM\TDM 4.asm
                  LOOP133   0x001159    program     static E:\AMM\Práctica 4\Prácticsa 4 Displays TDM\TDM 4.asm
                  LOOP134   0x001172    program     static E:\AMM\Práctica 4\Prácticsa 4 Displays TDM\TDM 4.asm
                  LOOP135   0x00118b    program     static E:\AMM\Práctica 4\Prácticsa 4 Displays TDM\TDM 4.asm
                  LOOP136   0x0011a4    program     static E:\AMM\Práctica 4\Prácticsa 4 Displays TDM\TDM 4.asm
                  LOOP137   0x0011bd    program     static E:\AMM\Práctica 4\Prácticsa 4 Displays TDM\TDM 4.asm
                  LOOP138   0x0011d6    program     static E:\AMM\Práctica 4\Prácticsa 4 Displays TDM\TDM 4.asm
                  LOOP139   0x0011ef    program     static E:\AMM\Práctica 4\Prácticsa 4 Displays TDM\TDM 4.asm
                   LOOP14   0x000173    program     static E:\AMM\Práctica 4\Prácticsa 4 Displays TDM\TDM 4.asm
                  LOOP140   0x001208    program     static E:\AMM\Práctica 4\Prácticsa 4 Displays TDM\TDM 4.asm
                  LOOP141   0x001221    program     static E:\AMM\Práctica 4\Prácticsa 4 Displays TDM\TDM 4.asm
                  LOOP142   0x00123a    program     static E:\AMM\Práctica 4\Prácticsa 4 Displays TDM\TDM 4.asm
                  LOOP143   0x001253    program     static E:\AMM\Práctica 4\Prácticsa 4 Displays TDM\TDM 4.asm
                  LOOP144   0x00126c    program     static E:\AMM\Práctica 4\Prácticsa 4 Displays TDM\TDM 4.asm
                  LOOP145   0x001285    program     static E:\AMM\Práctica 4\Prácticsa 4 Displays TDM\TDM 4.asm
                  LOOP146   0x00129e    program     static E:\AMM\Práctica 4\Prácticsa 4 Displays TDM\TDM 4.asm
                  LOOP147   0x0012b7    program     static E:\AMM\Práctica 4\Prácticsa 4 Displays TDM\TDM 4.asm
                  LOOP148   0x0012d0    program     static E:\AMM\Práctica 4\Prácticsa 4 Displays TDM\TDM 4.asm
                  LOOP149   0x0012e9    program     static E:\AMM\Práctica 4\Prácticsa 4 Displays TDM\TDM 4.asm
                   LOOP15   0x00018c    program     static E:\AMM\Práctica 4\Prácticsa 4 Displays TDM\TDM 4.asm
                  LOOP150   0x001302    program     static E:\AMM\Práctica 4\Prácticsa 4 Displays TDM\TDM 4.asm
                  LOOP151   0x00131b    program     static E:\AMM\Práctica 4\Prácticsa 4 Displays TDM\TDM 4.asm
                  LOOP152   0x001334    program     static E:\AMM\Práctica 4\Prácticsa 4 Displays TDM\TDM 4.asm
                  LOOP153   0x00134d    program     static E:\AMM\Práctica 4\Prácticsa 4 Displays TDM\TDM 4.asm
                  LOOP154   0x001366    program     static E:\AMM\Práctica 4\Prácticsa 4 Displays TDM\TDM 4.asm
                  LOOP155   0x00137f    program     static E:\AMM\Práctica 4\Prácticsa 4 Displays TDM\TDM 4.asm
                  LOOP156   0x001398    program     static E:\AMM\Práctica 4\Prácticsa 4 Displays TDM\TDM 4.asm
                  LOOP157   0x0013b1    program     static E:\AMM\Práctica 4\Prácticsa 4 Displays TDM\TDM 4.asm
                  LOOP158   0x0013ca    program     static E:\AMM\Práctica 4\Prácticsa 4 Displays TDM\TDM 4.asm
                  LOOP159   0x0013e3    program     static E:\AMM\Práctica 4\Prácticsa 4 Displays TDM\TDM 4.asm
                   LOOP16   0x0001a5    program     static E:\AMM\Práctica 4\Prácticsa 4 Displays TDM\TDM 4.asm
                  LOOP160   0x0013fc    program     static E:\AMM\Práctica 4\Prácticsa 4 Displays TDM\TDM 4.asm
                  LOOP161   0x001415    program     static E:\AMM\Práctica 4\Prácticsa 4 Displays TDM\TDM 4.asm
                  LOOP162   0x00142e    program     static E:\AMM\Práctica 4\Prácticsa 4 Displays TDM\TDM 4.asm
                  LOOP163   0x001447    program     static E:\AMM\Práctica 4\Prácticsa 4 Displays TDM\TDM 4.asm
                  LOOP164   0x001460    program     static E:\AMM\Práctica 4\Prácticsa 4 Displays TDM\TDM 4.asm
                  LOOP165   0x001479    program     static E:\AMM\Práctica 4\Prácticsa 4 Displays TDM\TDM 4.asm
                  LOOP166   0x001492    program     static E:\AMM\Práctica 4\Prácticsa 4 Displays TDM\TDM 4.asm
                  LOOP167   0x0014ab    program     static E:\AMM\Práctica 4\Prácticsa 4 Displays TDM\TDM 4.asm
                  LOOP168   0x0014c4    program     static E:\AMM\Práctica 4\Prácticsa 4 Displays TDM\TDM 4.asm
                  LOOP169   0x0014dd    program     static E:\AMM\Práctica 4\Prácticsa 4 Displays TDM\TDM 4.asm
                   LOOP17   0x0001be    program     static E:\AMM\Práctica 4\Prácticsa 4 Displays TDM\TDM 4.asm
                   LOOP18   0x0001d7    program     static E:\AMM\Práctica 4\Prácticsa 4 Displays TDM\TDM 4.asm
                   LOOP19   0x0001f0    program     static E:\AMM\Práctica 4\Prácticsa 4 Displays TDM\TDM 4.asm
                    LOOP2   0x000047    program     static E:\AMM\Práctica 4\Prácticsa 4 Displays TDM\TDM 4.asm
                   LOOP20   0x000209    program     static E:\AMM\Práctica 4\Prácticsa 4 Displays TDM\TDM 4.asm
                   LOOP21   0x000222    program     static E:\AMM\Práctica 4\Prácticsa 4 Displays TDM\TDM 4.asm
                   LOOP22   0x00023b    program     static E:\AMM\Práctica 4\Prácticsa 4 Displays TDM\TDM 4.asm
                   LOOP23   0x000254    program     static E:\AMM\Práctica 4\Prácticsa 4 Displays TDM\TDM 4.asm
                   LOOP24   0x00026d    program     static E:\AMM\Práctica 4\Prácticsa 4 Displays TDM\TDM 4.asm
                   LOOP25   0x000286    program     static E:\AMM\Práctica 4\Prácticsa 4 Displays TDM\TDM 4.asm
                   LOOP26   0x00029f    program     static E:\AMM\Práctica 4\Prácticsa 4 Displays TDM\TDM 4.asm
                   LOOP27   0x0002b8    program     static E:\AMM\Práctica 4\Prácticsa 4 Displays TDM\TDM 4.asm
                   LOOP28   0x0002d1    program     static E:\AMM\Práctica 4\Prácticsa 4 Displays TDM\TDM 4.asm
                   LOOP29   0x0002ea    program     static E:\AMM\Práctica 4\Prácticsa 4 Displays TDM\TDM 4.asm
                    LOOP3   0x000060    program     static E:\AMM\Práctica 4\Prácticsa 4 Displays TDM\TDM 4.asm
                   LOOP30   0x000303    program     static E:\AMM\Práctica 4\Prácticsa 4 Displays TDM\TDM 4.asm
                   LOOP31   0x00031c    program     static E:\AMM\Práctica 4\Prácticsa 4 Displays TDM\TDM 4.asm
                   LOOP32   0x000335    program     static E:\AMM\Práctica 4\Prácticsa 4 Displays TDM\TDM 4.asm
                   LOOP33   0x00034e    program     static E:\AMM\Práctica 4\Prácticsa 4 Displays TDM\TDM 4.asm
                   LOOP34   0x000367    program     static E:\AMM\Práctica 4\Prácticsa 4 Displays TDM\TDM 4.asm
                   LOOP35   0x000380    program     static E:\AMM\Práctica 4\Prácticsa 4 Displays TDM\TDM 4.asm
                   LOOP36   0x000399    program     static E:\AMM\Práctica 4\Prácticsa 4 Displays TDM\TDM 4.asm
                   LOOP37   0x0003b2    program     static E:\AMM\Práctica 4\Prácticsa 4 Displays TDM\TDM 4.asm
                   LOOP38   0x0003cb    program     static E:\AMM\Práctica 4\Prácticsa 4 Displays TDM\TDM 4.asm
                   LOOP39   0x0003e4    program     static E:\AMM\Práctica 4\Prácticsa 4 Displays TDM\TDM 4.asm
                    LOOP4   0x000079    program     static E:\AMM\Práctica 4\Prácticsa 4 Displays TDM\TDM 4.asm
                   LOOP40   0x0003fd    program     static E:\AMM\Práctica 4\Prácticsa 4 Displays TDM\TDM 4.asm
                   LOOP41   0x000416    program     static E:\AMM\Práctica 4\Prácticsa 4 Displays TDM\TDM 4.asm
                   LOOP42   0x00042f    program     static E:\AMM\Práctica 4\Prácticsa 4 Displays TDM\TDM 4.asm
                   LOOP43   0x000448    program     static E:\AMM\Práctica 4\Prácticsa 4 Displays TDM\TDM 4.asm
                   LOOP44   0x000461    program     static E:\AMM\Práctica 4\Prácticsa 4 Displays TDM\TDM 4.asm
                   LOOP45   0x000814    program     static E:\AMM\Práctica 4\Prácticsa 4 Displays TDM\TDM 4.asm
                   LOOP46   0x00082d    program     static E:\AMM\Práctica 4\Prácticsa 4 Displays TDM\TDM 4.asm
                   LOOP47   0x000846    program     static E:\AMM\Práctica 4\Prácticsa 4 Displays TDM\TDM 4.asm
                   LOOP48   0x00085f    program     static E:\AMM\Práctica 4\Prácticsa 4 Displays TDM\TDM 4.asm
                   LOOP49   0x000878    program     static E:\AMM\Práctica 4\Prácticsa 4 Displays TDM\TDM 4.asm
                    LOOP5   0x000092    program     static E:\AMM\Práctica 4\Prácticsa 4 Displays TDM\TDM 4.asm
                   LOOP50   0x000891    program     static E:\AMM\Práctica 4\Prácticsa 4 Displays TDM\TDM 4.asm
                   LOOP51   0x0008aa    program     static E:\AMM\Práctica 4\Prácticsa 4 Displays TDM\TDM 4.asm
                   LOOP52   0x0008c3    program     static E:\AMM\Práctica 4\Prácticsa 4 Displays TDM\TDM 4.asm
                   LOOP53   0x0008dc    program     static E:\AMM\Práctica 4\Prácticsa 4 Displays TDM\TDM 4.asm
                   LOOP54   0x0008f5    program     static E:\AMM\Práctica 4\Prácticsa 4 Displays TDM\TDM 4.asm
                   LOOP55   0x00090e    program     static E:\AMM\Práctica 4\Prácticsa 4 Displays TDM\TDM 4.asm
                   LOOP56   0x000927    program     static E:\AMM\Práctica 4\Prácticsa 4 Displays TDM\TDM 4.asm
                   LOOP57   0x000940    program     static E:\AMM\Práctica 4\Prácticsa 4 Displays TDM\TDM 4.asm
                   LOOP58   0x000959    program     static E:\AMM\Práctica 4\Prácticsa 4 Displays TDM\TDM 4.asm
                   LOOP59   0x000972    program     static E:\AMM\Práctica 4\Prácticsa 4 Displays TDM\TDM 4.asm
                    LOOP6   0x0000ab    program     static E:\AMM\Práctica 4\Prácticsa 4 Displays TDM\TDM 4.asm
                   LOOP60   0x00098b    program     static E:\AMM\Práctica 4\Prácticsa 4 Displays TDM\TDM 4.asm
                   LOOP61   0x0009a4    program     static E:\AMM\Práctica 4\Prácticsa 4 Displays TDM\TDM 4.asm
                   LOOP62   0x0009bd    program     static E:\AMM\Práctica 4\Prácticsa 4 Displays TDM\TDM 4.asm
                   LOOP63   0x0009d6    program     static E:\AMM\Práctica 4\Prácticsa 4 Displays TDM\TDM 4.asm
                   LOOP64   0x0009ef    program     static E:\AMM\Práctica 4\Prácticsa 4 Displays TDM\TDM 4.asm
                   LOOP65   0x000a08    program     static E:\AMM\Práctica 4\Prácticsa 4 Displays TDM\TDM 4.asm
                   LOOP66   0x000a21    program     static E:\AMM\Práctica 4\Prácticsa 4 Displays TDM\TDM 4.asm
                   LOOP67   0x000a3a    program     static E:\AMM\Práctica 4\Prácticsa 4 Displays TDM\TDM 4.asm
                   LOOP68   0x000a53    program     static E:\AMM\Práctica 4\Prácticsa 4 Displays TDM\TDM 4.asm
                   LOOP69   0x000a6c    program     static E:\AMM\Práctica 4\Prácticsa 4 Displays TDM\TDM 4.asm
                    LOOP7   0x0000c4    program     static E:\AMM\Práctica 4\Prácticsa 4 Displays TDM\TDM 4.asm
                   LOOP70   0x000a85    program     static E:\AMM\Práctica 4\Prácticsa 4 Displays TDM\TDM 4.asm
                   LOOP71   0x000a9e    program     static E:\AMM\Práctica 4\Prácticsa 4 Displays TDM\TDM 4.asm
                   LOOP72   0x000ab7    program     static E:\AMM\Práctica 4\Prácticsa 4 Displays TDM\TDM 4.asm
                   LOOP73   0x000ad0    program     static E:\AMM\Práctica 4\Prácticsa 4 Displays TDM\TDM 4.asm
                   LOOP74   0x000ae9    program     static E:\AMM\Práctica 4\Prácticsa 4 Displays TDM\TDM 4.asm
                   LOOP75   0x000b02    program     static E:\AMM\Práctica 4\Prácticsa 4 Displays TDM\TDM 4.asm
                   LOOP76   0x000b1b    program     static E:\AMM\Práctica 4\Prácticsa 4 Displays TDM\TDM 4.asm
                   LOOP77   0x000b34    program     static E:\AMM\Práctica 4\Prácticsa 4 Displays TDM\TDM 4.asm
                   LOOP78   0x000b4d    program     static E:\AMM\Práctica 4\Prácticsa 4 Displays TDM\TDM 4.asm
                   LOOP79   0x000b66    program     static E:\AMM\Práctica 4\Prácticsa 4 Displays TDM\TDM 4.asm
                    LOOP8   0x0000dd    program     static E:\AMM\Práctica 4\Prácticsa 4 Displays TDM\TDM 4.asm
                   LOOP80   0x000b7f    program     static E:\AMM\Práctica 4\Prácticsa 4 Displays TDM\TDM 4.asm
                   LOOP81   0x000b98    program     static E:\AMM\Práctica 4\Prácticsa 4 Displays TDM\TDM 4.asm
                   LOOP82   0x000bb1    program     static E:\AMM\Práctica 4\Prácticsa 4 Displays TDM\TDM 4.asm
                 LOOP82.1   0x000bca    program     static E:\AMM\Práctica 4\Prácticsa 4 Displays TDM\TDM 4.asm
                   LOOP83   0x000be3    program     static E:\AMM\Práctica 4\Prácticsa 4 Displays TDM\TDM 4.asm
                   LOOP84   0x000bfc    program     static E:\AMM\Práctica 4\Prácticsa 4 Displays TDM\TDM 4.asm
                   LOOP85   0x000c15    program     static E:\AMM\Práctica 4\Prácticsa 4 Displays TDM\TDM 4.asm
                   LOOP86   0x000c2e    program     static E:\AMM\Práctica 4\Prácticsa 4 Displays TDM\TDM 4.asm
                   LOOP87   0x000c47    program     static E:\AMM\Práctica 4\Prácticsa 4 Displays TDM\TDM 4.asm
                   LOOP88   0x000c60    program     static E:\AMM\Práctica 4\Prácticsa 4 Displays TDM\TDM 4.asm
                   LOOP89   0x000c79    program     static E:\AMM\Práctica 4\Prácticsa 4 Displays TDM\TDM 4.asm
                    LOOP9   0x0000f6    program     static E:\AMM\Práctica 4\Prácticsa 4 Displays TDM\TDM 4.asm
                   LOOP90   0x000c92    program     static E:\AMM\Práctica 4\Prácticsa 4 Displays TDM\TDM 4.asm
                   LOOP91   0x000cab    program     static E:\AMM\Práctica 4\Prácticsa 4 Displays TDM\TDM 4.asm
                   LOOP92   0x000cc4    program     static E:\AMM\Práctica 4\Prácticsa 4 Displays TDM\TDM 4.asm
                   LOOP93   0x000cdd    program     static E:\AMM\Práctica 4\Prácticsa 4 Displays TDM\TDM 4.asm
                   LOOP94   0x000cf6    program     static E:\AMM\Práctica 4\Prácticsa 4 Displays TDM\TDM 4.asm
                   LOOP95   0x000d0f    program     static E:\AMM\Práctica 4\Prácticsa 4 Displays TDM\TDM 4.asm
                   LOOP96   0x000d28    program     static E:\AMM\Práctica 4\Prácticsa 4 Displays TDM\TDM 4.asm
                   LOOP97   0x000d41    program     static E:\AMM\Práctica 4\Prácticsa 4 Displays TDM\TDM 4.asm
                   LOOP98   0x000d5a    program     static E:\AMM\Práctica 4\Prácticsa 4 Displays TDM\TDM 4.asm
                   LOOP99   0x000d73    program     static E:\AMM\Práctica 4\Prácticsa 4 Displays TDM\TDM 4.asm
                   LOOPR1   0x000f99    program     static E:\AMM\Práctica 4\Prácticsa 4 Displays TDM\TDM 4.asm
                  LOOPR11   0x00047a    program     static E:\AMM\Práctica 4\Prácticsa 4 Displays TDM\TDM 4.asm
                  LOOPRB0   0x000f9b    program     static E:\AMM\Práctica 4\Prácticsa 4 Displays TDM\TDM 4.asm
                 LOOPRB01   0x00047c    program     static E:\AMM\Práctica 4\Prácticsa 4 Displays TDM\TDM 4.asm
                 LP0_DIS0   0x000481    program     static E:\AMM\Práctica 4\Prácticsa 4 Displays TDM\TDM 4.asm
                 LP0_DIS1   0x000486    program     static E:\AMM\Práctica 4\Prácticsa 4 Displays TDM\TDM 4.asm
                 LP0_DIS2   0x00048b    program     static E:\AMM\Práctica 4\Prácticsa 4 Displays TDM\TDM 4.asm
                 LP0_DIS3   0x000490    program     static E:\AMM\Práctica 4\Prácticsa 4 Displays TDM\TDM 4.asm
                 LP0_DIS4   0x000495    program     static E:\AMM\Práctica 4\Prácticsa 4 Displays TDM\TDM 4.asm
                 LP0_DIS5   0x00049a    program     static E:\AMM\Práctica 4\Prácticsa 4 Displays TDM\TDM 4.asm
                 LP0_DIS6   0x00049f    program     static E:\AMM\Práctica 4\Prácticsa 4 Displays TDM\TDM 4.asm
                 LP0_DIS7   0x0004a4    program     static E:\AMM\Práctica 4\Prácticsa 4 Displays TDM\TDM 4.asm
                 LRMN_PG1   0x000478    program     static E:\AMM\Práctica 4\Prácticsa 4 Displays TDM\TDM 4.asm
            MLIMPIEZA_PG0   0x0014e3    program     static E:\AMM\Práctica 4\Prácticsa 4 Displays TDM\TDM 4.asm
                  MLOOPR1   0x0014f6    program     static E:\AMM\Práctica 4\Prácticsa 4 Displays TDM\TDM 4.asm
                 MLOOPRB0   0x0014f8    program     static E:\AMM\Práctica 4\Prácticsa 4 Displays TDM\TDM 4.asm
                 MP0_DIS0   0x0014fd    program     static E:\AMM\Práctica 4\Prácticsa 4 Displays TDM\TDM 4.asm
                 MP0_DIS1   0x001502    program     static E:\AMM\Práctica 4\Prácticsa 4 Displays TDM\TDM 4.asm
                 MP0_DIS2   0x001507    program     static E:\AMM\Práctica 4\Prácticsa 4 Displays TDM\TDM 4.asm
                 MP0_DIS3   0x00150c    program     static E:\AMM\Práctica 4\Prácticsa 4 Displays TDM\TDM 4.asm
                 MP0_DIS4   0x001511    program     static E:\AMM\Práctica 4\Prácticsa 4 Displays TDM\TDM 4.asm
                 MP0_DIS5   0x001516    program     static E:\AMM\Práctica 4\Prácticsa 4 Displays TDM\TDM 4.asm
                 MP0_DIS6   0x00151b    program     static E:\AMM\Práctica 4\Prácticsa 4 Displays TDM\TDM 4.asm
                 MP0_DIS7   0x001520    program     static E:\AMM\Práctica 4\Prácticsa 4 Displays TDM\TDM 4.asm
                 MRMN_PG0   0x0014f4    program     static E:\AMM\Práctica 4\Prácticsa 4 Displays TDM\TDM 4.asm
                  P0_DIS0   0x000fa0    program     static E:\AMM\Práctica 4\Prácticsa 4 Displays TDM\TDM 4.asm
                  P0_DIS1   0x000fa5    program     static E:\AMM\Práctica 4\Prácticsa 4 Displays TDM\TDM 4.asm
                  P0_DIS2   0x000faa    program     static E:\AMM\Práctica 4\Prácticsa 4 Displays TDM\TDM 4.asm
                  P0_DIS3   0x000faf    program     static E:\AMM\Práctica 4\Prácticsa 4 Displays TDM\TDM 4.asm
                  P0_DIS4   0x000fb4    program     static E:\AMM\Práctica 4\Prácticsa 4 Displays TDM\TDM 4.asm
                  P0_DIS5   0x000fb9    program     static E:\AMM\Práctica 4\Prácticsa 4 Displays TDM\TDM 4.asm
                  P0_DIS6   0x000fbe    program     static E:\AMM\Práctica 4\Prácticsa 4 Displays TDM\TDM 4.asm
                  P0_DIS7   0x000fc3    program     static E:\AMM\Práctica 4\Prácticsa 4 Displays TDM\TDM 4.asm
                      PG1   0x0004a9    program     static E:\AMM\Práctica 4\Prácticsa 4 Displays TDM\TDM 4.asm
                      PG2   0x000fc8    program     static E:\AMM\Práctica 4\Prácticsa 4 Displays TDM\TDM 4.asm
                 PROG_INI   0x000006    program     static E:\AMM\Práctica 4\Prácticsa 4 Displays TDM\TDM 4.asm
                PROG_PRIN   0x000018    program     static E:\AMM\Práctica 4\Prácticsa 4 Displays TDM\TDM 4.asm
                  REGRESO   0x001525    program     static E:\AMM\Práctica 4\Prácticsa 4 Displays TDM\TDM 4.asm
                  RMN_PG0   0x000f97    program     static E:\AMM\Práctica 4\Prácticsa 4 Displays TDM\TDM 4.asm
                  VEC_INT   0x000004    program     static E:\AMM\Práctica 4\Prácticsa 4 Displays TDM\TDM 4.asm
                VEC_RESET   0x000000    program     static E:\AMM\Práctica 4\Prácticsa 4 Displays TDM\TDM 4.asm



                              Symbols - Sorted by Address
                     Name    Address   Location    Storage File                     
                ---------  ---------  ---------  --------- ---------                
                VEC_RESET   0x000000    program     static E:\AMM\Práctica 4\Prácticsa 4 Displays TDM\TDM 4.asm
                  VEC_INT   0x000004    program     static E:\AMM\Práctica 4\Prácticsa 4 Displays TDM\TDM 4.asm
                 PROG_INI   0x000006    program     static E:\AMM\Práctica 4\Prácticsa 4 Displays TDM\TDM 4.asm
                PROG_PRIN   0x000018    program     static E:\AMM\Práctica 4\Prácticsa 4 Displays TDM\TDM 4.asm
                   FTGRM1   0x00001c    program     static E:\AMM\Práctica 4\Prácticsa 4 Displays TDM\TDM 4.asm
                    LOOP1   0x00002e    program     static E:\AMM\Práctica 4\Prácticsa 4 Displays TDM\TDM 4.asm
                   FTGRM2   0x000035    program     static E:\AMM\Práctica 4\Prácticsa 4 Displays TDM\TDM 4.asm
                    LOOP2   0x000047    program     static E:\AMM\Práctica 4\Prácticsa 4 Displays TDM\TDM 4.asm
                   FTGRM3   0x00004e    program     static E:\AMM\Práctica 4\Prácticsa 4 Displays TDM\TDM 4.asm
                    LOOP3   0x000060    program     static E:\AMM\Práctica 4\Prácticsa 4 Displays TDM\TDM 4.asm
                   FTGRM4   0x000067    program     static E:\AMM\Práctica 4\Prácticsa 4 Displays TDM\TDM 4.asm
                    LOOP4   0x000079    program     static E:\AMM\Práctica 4\Prácticsa 4 Displays TDM\TDM 4.asm
                   FTGRM5   0x000080    program     static E:\AMM\Práctica 4\Prácticsa 4 Displays TDM\TDM 4.asm
                    LOOP5   0x000092    program     static E:\AMM\Práctica 4\Prácticsa 4 Displays TDM\TDM 4.asm
                   FTGRM6   0x000099    program     static E:\AMM\Práctica 4\Prácticsa 4 Displays TDM\TDM 4.asm
                    LOOP6   0x0000ab    program     static E:\AMM\Práctica 4\Prácticsa 4 Displays TDM\TDM 4.asm
                   FTGRM7   0x0000b2    program     static E:\AMM\Práctica 4\Prácticsa 4 Displays TDM\TDM 4.asm
                    LOOP7   0x0000c4    program     static E:\AMM\Práctica 4\Prácticsa 4 Displays TDM\TDM 4.asm
                   FTGRM8   0x0000cb    program     static E:\AMM\Práctica 4\Prácticsa 4 Displays TDM\TDM 4.asm
                    LOOP8   0x0000dd    program     static E:\AMM\Práctica 4\Prácticsa 4 Displays TDM\TDM 4.asm
                   FTGRM9   0x0000e4    program     static E:\AMM\Práctica 4\Prácticsa 4 Displays TDM\TDM 4.asm
                    LOOP9   0x0000f6    program     static E:\AMM\Práctica 4\Prácticsa 4 Displays TDM\TDM 4.asm
                  FTGRM10   0x0000fd    program     static E:\AMM\Práctica 4\Prácticsa 4 Displays TDM\TDM 4.asm
                   LOOP10   0x00010f    program     static E:\AMM\Práctica 4\Prácticsa 4 Displays TDM\TDM 4.asm
                  FTGRM11   0x000116    program     static E:\AMM\Práctica 4\Prácticsa 4 Displays TDM\TDM 4.asm
                   LOOP11   0x000128    program     static E:\AMM\Práctica 4\Prácticsa 4 Displays TDM\TDM 4.asm
                  FTGRM12   0x00012f    program     static E:\AMM\Práctica 4\Prácticsa 4 Displays TDM\TDM 4.asm
                   LOOP12   0x000141    program     static E:\AMM\Práctica 4\Prácticsa 4 Displays TDM\TDM 4.asm
                  FTGRM13   0x000148    program     static E:\AMM\Práctica 4\Prácticsa 4 Displays TDM\TDM 4.asm
                   LOOP13   0x00015a    program     static E:\AMM\Práctica 4\Prácticsa 4 Displays TDM\TDM 4.asm
                  FTGRM14   0x000161    program     static E:\AMM\Práctica 4\Prácticsa 4 Displays TDM\TDM 4.asm
                   LOOP14   0x000173    program     static E:\AMM\Práctica 4\Prácticsa 4 Displays TDM\TDM 4.asm
                  FTGRM15   0x00017a    program     static E:\AMM\Práctica 4\Prácticsa 4 Displays TDM\TDM 4.asm
                   LOOP15   0x00018c    program     static E:\AMM\Práctica 4\Prácticsa 4 Displays TDM\TDM 4.asm
                  FTGRM16   0x000193    program     static E:\AMM\Práctica 4\Prácticsa 4 Displays TDM\TDM 4.asm
                   LOOP16   0x0001a5    program     static E:\AMM\Práctica 4\Prácticsa 4 Displays TDM\TDM 4.asm
                  FTGRM17   0x0001ac    program     static E:\AMM\Práctica 4\Prácticsa 4 Displays TDM\TDM 4.asm
                   LOOP17   0x0001be    program     static E:\AMM\Práctica 4\Prácticsa 4 Displays TDM\TDM 4.asm
                  FTGRM18   0x0001c5    program     static E:\AMM\Práctica 4\Prácticsa 4 Displays TDM\TDM 4.asm
                   LOOP18   0x0001d7    program     static E:\AMM\Práctica 4\Prácticsa 4 Displays TDM\TDM 4.asm
                  FTGRM19   0x0001de    program     static E:\AMM\Práctica 4\Prácticsa 4 Displays TDM\TDM 4.asm
                   LOOP19   0x0001f0    program     static E:\AMM\Práctica 4\Prácticsa 4 Displays TDM\TDM 4.asm
                  FTGRM20   0x0001f7    program     static E:\AMM\Práctica 4\Prácticsa 4 Displays TDM\TDM 4.asm
                   LOOP20   0x000209    program     static E:\AMM\Práctica 4\Prácticsa 4 Displays TDM\TDM 4.asm
                  FTGRM21   0x000210    program     static E:\AMM\Práctica 4\Prácticsa 4 Displays TDM\TDM 4.asm
                   LOOP21   0x000222    program     static E:\AMM\Práctica 4\Prácticsa 4 Displays TDM\TDM 4.asm
                  FTGRM22   0x000229    program     static E:\AMM\Práctica 4\Prácticsa 4 Displays TDM\TDM 4.asm
                   LOOP22   0x00023b    program     static E:\AMM\Práctica 4\Prácticsa 4 Displays TDM\TDM 4.asm
                  FTGRM23   0x000242    program     static E:\AMM\Práctica 4\Prácticsa 4 Displays TDM\TDM 4.asm
                   LOOP23   0x000254    program     static E:\AMM\Práctica 4\Prácticsa 4 Displays TDM\TDM 4.asm
                  FTGRM24   0x00025b    program     static E:\AMM\Práctica 4\Prácticsa 4 Displays TDM\TDM 4.asm
                   LOOP24   0x00026d    program     static E:\AMM\Práctica 4\Prácticsa 4 Displays TDM\TDM 4.asm
                  FTGRM25   0x000274    program     static E:\AMM\Práctica 4\Prácticsa 4 Displays TDM\TDM 4.asm
                   LOOP25   0x000286    program     static E:\AMM\Práctica 4\Prácticsa 4 Displays TDM\TDM 4.asm
                  FTGRM26   0x00028d    program     static E:\AMM\Práctica 4\Prácticsa 4 Displays TDM\TDM 4.asm
                   LOOP26   0x00029f    program     static E:\AMM\Práctica 4\Prácticsa 4 Displays TDM\TDM 4.asm
                  FTGRM27   0x0002a6    program     static E:\AMM\Práctica 4\Prácticsa 4 Displays TDM\TDM 4.asm
                   LOOP27   0x0002b8    program     static E:\AMM\Práctica 4\Prácticsa 4 Displays TDM\TDM 4.asm
                  FTGRM28   0x0002bf    program     static E:\AMM\Práctica 4\Prácticsa 4 Displays TDM\TDM 4.asm
                   LOOP28   0x0002d1    program     static E:\AMM\Práctica 4\Prácticsa 4 Displays TDM\TDM 4.asm
                  FTGRM29   0x0002d8    program     static E:\AMM\Práctica 4\Prácticsa 4 Displays TDM\TDM 4.asm
                   LOOP29   0x0002ea    program     static E:\AMM\Práctica 4\Prácticsa 4 Displays TDM\TDM 4.asm
                  FTGRM30   0x0002f1    program     static E:\AMM\Práctica 4\Prácticsa 4 Displays TDM\TDM 4.asm
                   LOOP30   0x000303    program     static E:\AMM\Práctica 4\Prácticsa 4 Displays TDM\TDM 4.asm
                  FTGRM31   0x00030a    program     static E:\AMM\Práctica 4\Prácticsa 4 Displays TDM\TDM 4.asm
                   LOOP31   0x00031c    program     static E:\AMM\Práctica 4\Prácticsa 4 Displays TDM\TDM 4.asm
                  FTGRM32   0x000323    program     static E:\AMM\Práctica 4\Prácticsa 4 Displays TDM\TDM 4.asm
                   LOOP32   0x000335    program     static E:\AMM\Práctica 4\Prácticsa 4 Displays TDM\TDM 4.asm
                  FTGRM33   0x00033c    program     static E:\AMM\Práctica 4\Prácticsa 4 Displays TDM\TDM 4.asm
                   LOOP33   0x00034e    program     static E:\AMM\Práctica 4\Prácticsa 4 Displays TDM\TDM 4.asm
                  FTGRM34   0x000355    program     static E:\AMM\Práctica 4\Prácticsa 4 Displays TDM\TDM 4.asm
                   LOOP34   0x000367    program     static E:\AMM\Práctica 4\Prácticsa 4 Displays TDM\TDM 4.asm
                  FTGRM35   0x00036e    program     static E:\AMM\Práctica 4\Prácticsa 4 Displays TDM\TDM 4.asm
                   LOOP35   0x000380    program     static E:\AMM\Práctica 4\Prácticsa 4 Displays TDM\TDM 4.asm
                  FTGRM36   0x000387    program     static E:\AMM\Práctica 4\Prácticsa 4 Displays TDM\TDM 4.asm
                   LOOP36   0x000399    program     static E:\AMM\Práctica 4\Prácticsa 4 Displays TDM\TDM 4.asm
                  FTGRM37   0x0003a0    program     static E:\AMM\Práctica 4\Prácticsa 4 Displays TDM\TDM 4.asm
                   LOOP37   0x0003b2    program     static E:\AMM\Práctica 4\Prácticsa 4 Displays TDM\TDM 4.asm
                  FTGRM38   0x0003b9    program     static E:\AMM\Práctica 4\Prácticsa 4 Displays TDM\TDM 4.asm
                   LOOP38   0x0003cb    program     static E:\AMM\Práctica 4\Prácticsa 4 Displays TDM\TDM 4.asm
                  FTGRM39   0x0003d2    program     static E:\AMM\Práctica 4\Prácticsa 4 Displays TDM\TDM 4.asm
                   LOOP39   0x0003e4    program     static E:\AMM\Práctica 4\Prácticsa 4 Displays TDM\TDM 4.asm
                  FTGRM40   0x0003eb    program     static E:\AMM\Práctica 4\Prácticsa 4 Displays TDM\TDM 4.asm
                   LOOP40   0x0003fd    program     static E:\AMM\Práctica 4\Prácticsa 4 Displays TDM\TDM 4.asm
                  FTGRM41   0x000404    program     static E:\AMM\Práctica 4\Prácticsa 4 Displays TDM\TDM 4.asm
                   LOOP41   0x000416    program     static E:\AMM\Práctica 4\Prácticsa 4 Displays TDM\TDM 4.asm
                  FTGRM42   0x00041d    program     static E:\AMM\Práctica 4\Prácticsa 4 Displays TDM\TDM 4.asm
                   LOOP42   0x00042f    program     static E:\AMM\Práctica 4\Prácticsa 4 Displays TDM\TDM 4.asm
                  FTGRM43   0x000436    program     static E:\AMM\Práctica 4\Prácticsa 4 Displays TDM\TDM 4.asm
                   LOOP43   0x000448    program     static E:\AMM\Práctica 4\Prácticsa 4 Displays TDM\TDM 4.asm
                  FTGRM44   0x00044f    program     static E:\AMM\Práctica 4\Prácticsa 4 Displays TDM\TDM 4.asm
                   LOOP44   0x000461    program     static E:\AMM\Práctica 4\Prácticsa 4 Displays TDM\TDM 4.asm
            LLIMPIEZA_PG0   0x000467    program     static E:\AMM\Práctica 4\Prácticsa 4 Displays TDM\TDM 4.asm
                 LRMN_PG1   0x000478    program     static E:\AMM\Práctica 4\Prácticsa 4 Displays TDM\TDM 4.asm
                  LOOPR11   0x00047a    program     static E:\AMM\Práctica 4\Prácticsa 4 Displays TDM\TDM 4.asm
                 LOOPRB01   0x00047c    program     static E:\AMM\Práctica 4\Prácticsa 4 Displays TDM\TDM 4.asm
                 LP0_DIS0   0x000481    program     static E:\AMM\Práctica 4\Prácticsa 4 Displays TDM\TDM 4.asm
                 LP0_DIS1   0x000486    program     static E:\AMM\Práctica 4\Prácticsa 4 Displays TDM\TDM 4.asm
                 LP0_DIS2   0x00048b    program     static E:\AMM\Práctica 4\Prácticsa 4 Displays TDM\TDM 4.asm
                 LP0_DIS3   0x000490    program     static E:\AMM\Práctica 4\Prácticsa 4 Displays TDM\TDM 4.asm
                 LP0_DIS4   0x000495    program     static E:\AMM\Práctica 4\Prácticsa 4 Displays TDM\TDM 4.asm
                 LP0_DIS5   0x00049a    program     static E:\AMM\Práctica 4\Prácticsa 4 Displays TDM\TDM 4.asm
                 LP0_DIS6   0x00049f    program     static E:\AMM\Práctica 4\Prácticsa 4 Displays TDM\TDM 4.asm
                 LP0_DIS7   0x0004a4    program     static E:\AMM\Práctica 4\Prácticsa 4 Displays TDM\TDM 4.asm
                      PG1   0x0004a9    program     static E:\AMM\Práctica 4\Prácticsa 4 Displays TDM\TDM 4.asm
                  FTGRM45   0x000802    program     static E:\AMM\Práctica 4\Prácticsa 4 Displays TDM\TDM 4.asm
                   LOOP45   0x000814    program     static E:\AMM\Práctica 4\Prácticsa 4 Displays TDM\TDM 4.asm
                  FTGRM46   0x00081b    program     static E:\AMM\Práctica 4\Prácticsa 4 Displays TDM\TDM 4.asm
                   LOOP46   0x00082d    program     static E:\AMM\Práctica 4\Prácticsa 4 Displays TDM\TDM 4.asm
                  FTGRM47   0x000834    program     static E:\AMM\Práctica 4\Prácticsa 4 Displays TDM\TDM 4.asm
                   LOOP47   0x000846    program     static E:\AMM\Práctica 4\Prácticsa 4 Displays TDM\TDM 4.asm
                  FTGRM48   0x00084d    program     static E:\AMM\Práctica 4\Prácticsa 4 Displays TDM\TDM 4.asm
                   LOOP48   0x00085f    program     static E:\AMM\Práctica 4\Prácticsa 4 Displays TDM\TDM 4.asm
                  FTGRM49   0x000866    program     static E:\AMM\Práctica 4\Prácticsa 4 Displays TDM\TDM 4.asm
                   LOOP49   0x000878    program     static E:\AMM\Práctica 4\Prácticsa 4 Displays TDM\TDM 4.asm
                  FTGRM50   0x00087f    program     static E:\AMM\Práctica 4\Prácticsa 4 Displays TDM\TDM 4.asm
                   LOOP50   0x000891    program     static E:\AMM\Práctica 4\Prácticsa 4 Displays TDM\TDM 4.asm
                  FTGRM51   0x000898    program     static E:\AMM\Práctica 4\Prácticsa 4 Displays TDM\TDM 4.asm
                   LOOP51   0x0008aa    program     static E:\AMM\Práctica 4\Prácticsa 4 Displays TDM\TDM 4.asm
                  FTGRM52   0x0008b1    program     static E:\AMM\Práctica 4\Prácticsa 4 Displays TDM\TDM 4.asm
                   LOOP52   0x0008c3    program     static E:\AMM\Práctica 4\Prácticsa 4 Displays TDM\TDM 4.asm
                  FTGRM53   0x0008ca    program     static E:\AMM\Práctica 4\Prácticsa 4 Displays TDM\TDM 4.asm
                   LOOP53   0x0008dc    program     static E:\AMM\Práctica 4\Prácticsa 4 Displays TDM\TDM 4.asm
                  FTGRM54   0x0008e3    program     static E:\AMM\Práctica 4\Prácticsa 4 Displays TDM\TDM 4.asm
                   LOOP54   0x0008f5    program     static E:\AMM\Práctica 4\Prácticsa 4 Displays TDM\TDM 4.asm
                  FTGRM55   0x0008fc    program     static E:\AMM\Práctica 4\Prácticsa 4 Displays TDM\TDM 4.asm
                   LOOP55   0x00090e    program     static E:\AMM\Práctica 4\Prácticsa 4 Displays TDM\TDM 4.asm
                  FTGRM56   0x000915    program     static E:\AMM\Práctica 4\Prácticsa 4 Displays TDM\TDM 4.asm
                   LOOP56   0x000927    program     static E:\AMM\Práctica 4\Prácticsa 4 Displays TDM\TDM 4.asm
                  FTGRM57   0x00092e    program     static E:\AMM\Práctica 4\Prácticsa 4 Displays TDM\TDM 4.asm
                   LOOP57   0x000940    program     static E:\AMM\Práctica 4\Prácticsa 4 Displays TDM\TDM 4.asm
                  FTGRM58   0x000947    program     static E:\AMM\Práctica 4\Prácticsa 4 Displays TDM\TDM 4.asm
                   LOOP58   0x000959    program     static E:\AMM\Práctica 4\Prácticsa 4 Displays TDM\TDM 4.asm
                  FTGRM59   0x000960    program     static E:\AMM\Práctica 4\Prácticsa 4 Displays TDM\TDM 4.asm
                   LOOP59   0x000972    program     static E:\AMM\Práctica 4\Prácticsa 4 Displays TDM\TDM 4.asm
                  FTGRM60   0x000979    program     static E:\AMM\Práctica 4\Prácticsa 4 Displays TDM\TDM 4.asm
                   LOOP60   0x00098b    program     static E:\AMM\Práctica 4\Prácticsa 4 Displays TDM\TDM 4.asm
                  FTGRM61   0x000992    program     static E:\AMM\Práctica 4\Prácticsa 4 Displays TDM\TDM 4.asm
                   LOOP61   0x0009a4    program     static E:\AMM\Práctica 4\Prácticsa 4 Displays TDM\TDM 4.asm
                  FTGRM62   0x0009ab    program     static E:\AMM\Práctica 4\Prácticsa 4 Displays TDM\TDM 4.asm
                   LOOP62   0x0009bd    program     static E:\AMM\Práctica 4\Prácticsa 4 Displays TDM\TDM 4.asm
                  FTGRM63   0x0009c4    program     static E:\AMM\Práctica 4\Prácticsa 4 Displays TDM\TDM 4.asm
                   LOOP63   0x0009d6    program     static E:\AMM\Práctica 4\Prácticsa 4 Displays TDM\TDM 4.asm
                  FTGRM64   0x0009dd    program     static E:\AMM\Práctica 4\Prácticsa 4 Displays TDM\TDM 4.asm
                   LOOP64   0x0009ef    program     static E:\AMM\Práctica 4\Prácticsa 4 Displays TDM\TDM 4.asm
                  FTGRM65   0x0009f6    program     static E:\AMM\Práctica 4\Prácticsa 4 Displays TDM\TDM 4.asm
                   LOOP65   0x000a08    program     static E:\AMM\Práctica 4\Prácticsa 4 Displays TDM\TDM 4.asm
                  FTGRM66   0x000a0f    program     static E:\AMM\Práctica 4\Prácticsa 4 Displays TDM\TDM 4.asm
                   LOOP66   0x000a21    program     static E:\AMM\Práctica 4\Prácticsa 4 Displays TDM\TDM 4.asm
                  FTGRM67   0x000a28    program     static E:\AMM\Práctica 4\Prácticsa 4 Displays TDM\TDM 4.asm
                   LOOP67   0x000a3a    program     static E:\AMM\Práctica 4\Prácticsa 4 Displays TDM\TDM 4.asm
                  FTGRM68   0x000a41    program     static E:\AMM\Práctica 4\Prácticsa 4 Displays TDM\TDM 4.asm
                   LOOP68   0x000a53    program     static E:\AMM\Práctica 4\Prácticsa 4 Displays TDM\TDM 4.asm
                  FTGRM69   0x000a5a    program     static E:\AMM\Práctica 4\Prácticsa 4 Displays TDM\TDM 4.asm
                   LOOP69   0x000a6c    program     static E:\AMM\Práctica 4\Prácticsa 4 Displays TDM\TDM 4.asm
                  FTGRM70   0x000a73    program     static E:\AMM\Práctica 4\Prácticsa 4 Displays TDM\TDM 4.asm
                   LOOP70   0x000a85    program     static E:\AMM\Práctica 4\Prácticsa 4 Displays TDM\TDM 4.asm
                  FTGRM71   0x000a8c    program     static E:\AMM\Práctica 4\Prácticsa 4 Displays TDM\TDM 4.asm
                   LOOP71   0x000a9e    program     static E:\AMM\Práctica 4\Prácticsa 4 Displays TDM\TDM 4.asm
                  FTGRM72   0x000aa5    program     static E:\AMM\Práctica 4\Prácticsa 4 Displays TDM\TDM 4.asm
                   LOOP72   0x000ab7    program     static E:\AMM\Práctica 4\Prácticsa 4 Displays TDM\TDM 4.asm
                  FTGRM73   0x000abe    program     static E:\AMM\Práctica 4\Prácticsa 4 Displays TDM\TDM 4.asm
                   LOOP73   0x000ad0    program     static E:\AMM\Práctica 4\Prácticsa 4 Displays TDM\TDM 4.asm
                  FTGRM74   0x000ad7    program     static E:\AMM\Práctica 4\Prácticsa 4 Displays TDM\TDM 4.asm
                   LOOP74   0x000ae9    program     static E:\AMM\Práctica 4\Prácticsa 4 Displays TDM\TDM 4.asm
                  FTGRM75   0x000af0    program     static E:\AMM\Práctica 4\Prácticsa 4 Displays TDM\TDM 4.asm
                   LOOP75   0x000b02    program     static E:\AMM\Práctica 4\Prácticsa 4 Displays TDM\TDM 4.asm
                  FTGRM76   0x000b09    program     static E:\AMM\Práctica 4\Prácticsa 4 Displays TDM\TDM 4.asm
                   LOOP76   0x000b1b    program     static E:\AMM\Práctica 4\Prácticsa 4 Displays TDM\TDM 4.asm
                  FTGRM77   0x000b22    program     static E:\AMM\Práctica 4\Prácticsa 4 Displays TDM\TDM 4.asm
                   LOOP77   0x000b34    program     static E:\AMM\Práctica 4\Prácticsa 4 Displays TDM\TDM 4.asm
                  FTGRM78   0x000b3b    program     static E:\AMM\Práctica 4\Prácticsa 4 Displays TDM\TDM 4.asm
                   LOOP78   0x000b4d    program     static E:\AMM\Práctica 4\Prácticsa 4 Displays TDM\TDM 4.asm
                  FTGRM79   0x000b54    program     static E:\AMM\Práctica 4\Prácticsa 4 Displays TDM\TDM 4.asm
                   LOOP79   0x000b66    program     static E:\AMM\Práctica 4\Prácticsa 4 Displays TDM\TDM 4.asm
                  FTGRM80   0x000b6d    program     static E:\AMM\Práctica 4\Prácticsa 4 Displays TDM\TDM 4.asm
                   LOOP80   0x000b7f    program     static E:\AMM\Práctica 4\Prácticsa 4 Displays TDM\TDM 4.asm
                  FTGRM81   0x000b86    program     static E:\AMM\Práctica 4\Prácticsa 4 Displays TDM\TDM 4.asm
                   LOOP81   0x000b98    program     static E:\AMM\Práctica 4\Prácticsa 4 Displays TDM\TDM 4.asm
                  FTGRM82   0x000b9f    program     static E:\AMM\Práctica 4\Prácticsa 4 Displays TDM\TDM 4.asm
                   LOOP82   0x000bb1    program     static E:\AMM\Práctica 4\Prácticsa 4 Displays TDM\TDM 4.asm
                FTGRM82.1   0x000bb8    program     static E:\AMM\Práctica 4\Prácticsa 4 Displays TDM\TDM 4.asm
                 LOOP82.1   0x000bca    program     static E:\AMM\Práctica 4\Prácticsa 4 Displays TDM\TDM 4.asm
                  FTGRM83   0x000bd1    program     static E:\AMM\Práctica 4\Prácticsa 4 Displays TDM\TDM 4.asm
                   LOOP83   0x000be3    program     static E:\AMM\Práctica 4\Prácticsa 4 Displays TDM\TDM 4.asm
                  FTGRM84   0x000bea    program     static E:\AMM\Práctica 4\Prácticsa 4 Displays TDM\TDM 4.asm
                   LOOP84   0x000bfc    program     static E:\AMM\Práctica 4\Prácticsa 4 Displays TDM\TDM 4.asm
                  FTGRM85   0x000c03    program     static E:\AMM\Práctica 4\Prácticsa 4 Displays TDM\TDM 4.asm
                   LOOP85   0x000c15    program     static E:\AMM\Práctica 4\Prácticsa 4 Displays TDM\TDM 4.asm
                  FTGRM86   0x000c1c    program     static E:\AMM\Práctica 4\Prácticsa 4 Displays TDM\TDM 4.asm
                   LOOP86   0x000c2e    program     static E:\AMM\Práctica 4\Prácticsa 4 Displays TDM\TDM 4.asm
                  FTGRM87   0x000c35    program     static E:\AMM\Práctica 4\Prácticsa 4 Displays TDM\TDM 4.asm
                   LOOP87   0x000c47    program     static E:\AMM\Práctica 4\Prácticsa 4 Displays TDM\TDM 4.asm
                  FTGRM88   0x000c4e    program     static E:\AMM\Práctica 4\Prácticsa 4 Displays TDM\TDM 4.asm
                   LOOP88   0x000c60    program     static E:\AMM\Práctica 4\Prácticsa 4 Displays TDM\TDM 4.asm
                  FTGRM89   0x000c67    program     static E:\AMM\Práctica 4\Prácticsa 4 Displays TDM\TDM 4.asm
                   LOOP89   0x000c79    program     static E:\AMM\Práctica 4\Prácticsa 4 Displays TDM\TDM 4.asm
                  FTGRM90   0x000c80    program     static E:\AMM\Práctica 4\Prácticsa 4 Displays TDM\TDM 4.asm
                   LOOP90   0x000c92    program     static E:\AMM\Práctica 4\Prácticsa 4 Displays TDM\TDM 4.asm
                  FTGRM91   0x000c99    program     static E:\AMM\Práctica 4\Prácticsa 4 Displays TDM\TDM 4.asm
                   LOOP91   0x000cab    program     static E:\AMM\Práctica 4\Prácticsa 4 Displays TDM\TDM 4.asm
                  FTGRM92   0x000cb2    program     static E:\AMM\Práctica 4\Prácticsa 4 Displays TDM\TDM 4.asm
                   LOOP92   0x000cc4    program     static E:\AMM\Práctica 4\Prácticsa 4 Displays TDM\TDM 4.asm
                  FTGRM93   0x000ccb    program     static E:\AMM\Práctica 4\Prácticsa 4 Displays TDM\TDM 4.asm
                   LOOP93   0x000cdd    program     static E:\AMM\Práctica 4\Prácticsa 4 Displays TDM\TDM 4.asm
                  FTGRM94   0x000ce4    program     static E:\AMM\Práctica 4\Prácticsa 4 Displays TDM\TDM 4.asm
                   LOOP94   0x000cf6    program     static E:\AMM\Práctica 4\Prácticsa 4 Displays TDM\TDM 4.asm
                  FTGRM95   0x000cfd    program     static E:\AMM\Práctica 4\Prácticsa 4 Displays TDM\TDM 4.asm
                   LOOP95   0x000d0f    program     static E:\AMM\Práctica 4\Prácticsa 4 Displays TDM\TDM 4.asm
                  FTGRM96   0x000d16    program     static E:\AMM\Práctica 4\Prácticsa 4 Displays TDM\TDM 4.asm
                   LOOP96   0x000d28    program     static E:\AMM\Práctica 4\Prácticsa 4 Displays TDM\TDM 4.asm
                  FTGRM97   0x000d2f    program     static E:\AMM\Práctica 4\Prácticsa 4 Displays TDM\TDM 4.asm
                   LOOP97   0x000d41    program     static E:\AMM\Práctica 4\Prácticsa 4 Displays TDM\TDM 4.asm
                  FTGRM98   0x000d48    program     static E:\AMM\Práctica 4\Prácticsa 4 Displays TDM\TDM 4.asm
                   LOOP98   0x000d5a    program     static E:\AMM\Práctica 4\Prácticsa 4 Displays TDM\TDM 4.asm
                  FTGRM99   0x000d61    program     static E:\AMM\Práctica 4\Prácticsa 4 Displays TDM\TDM 4.asm
                   LOOP99   0x000d73    program     static E:\AMM\Práctica 4\Prácticsa 4 Displays TDM\TDM 4.asm
                 FTGRM100   0x000d7a    program     static E:\AMM\Práctica 4\Prácticsa 4 Displays TDM\TDM 4.asm
                  LOOP100   0x000d8c    program     static E:\AMM\Práctica 4\Prácticsa 4 Displays TDM\TDM 4.asm
                 FTGRM101   0x000d93    program     static E:\AMM\Práctica 4\Prácticsa 4 Displays TDM\TDM 4.asm
                  LOOP101   0x000da5    program     static E:\AMM\Práctica 4\Prácticsa 4 Displays TDM\TDM 4.asm
                 FTGRM102   0x000dac    program     static E:\AMM\Práctica 4\Prácticsa 4 Displays TDM\TDM 4.asm
                  LOOP102   0x000dbe    program     static E:\AMM\Práctica 4\Prácticsa 4 Displays TDM\TDM 4.asm
                 FTGRM103   0x000dc5    program     static E:\AMM\Práctica 4\Prácticsa 4 Displays TDM\TDM 4.asm
                  LOOP103   0x000dd7    program     static E:\AMM\Práctica 4\Prácticsa 4 Displays TDM\TDM 4.asm
                 FTGRM104   0x000dde    program     static E:\AMM\Práctica 4\Prácticsa 4 Displays TDM\TDM 4.asm
                  LOOP104   0x000df0    program     static E:\AMM\Práctica 4\Prácticsa 4 Displays TDM\TDM 4.asm
                 FTGRM105   0x000df7    program     static E:\AMM\Práctica 4\Prácticsa 4 Displays TDM\TDM 4.asm
                  LOOP105   0x000e09    program     static E:\AMM\Práctica 4\Prácticsa 4 Displays TDM\TDM 4.asm
                 FTGRM106   0x000e10    program     static E:\AMM\Práctica 4\Prácticsa 4 Displays TDM\TDM 4.asm
                  LOOP106   0x000e22    program     static E:\AMM\Práctica 4\Prácticsa 4 Displays TDM\TDM 4.asm
                 FTGRM107   0x000e29    program     static E:\AMM\Práctica 4\Prácticsa 4 Displays TDM\TDM 4.asm
                  LOOP107   0x000e3b    program     static E:\AMM\Práctica 4\Prácticsa 4 Displays TDM\TDM 4.asm
                 FTGRM108   0x000e42    program     static E:\AMM\Práctica 4\Prácticsa 4 Displays TDM\TDM 4.asm
                  LOOP108   0x000e54    program     static E:\AMM\Práctica 4\Prácticsa 4 Displays TDM\TDM 4.asm
                 FTGRM109   0x000e5b    program     static E:\AMM\Práctica 4\Prácticsa 4 Displays TDM\TDM 4.asm
                  LOOP109   0x000e6d    program     static E:\AMM\Práctica 4\Prácticsa 4 Displays TDM\TDM 4.asm
                 FTGRM110   0x000e74    program     static E:\AMM\Práctica 4\Prácticsa 4 Displays TDM\TDM 4.asm
                  LOOP110   0x000e86    program     static E:\AMM\Práctica 4\Prácticsa 4 Displays TDM\TDM 4.asm
                 FTGRM111   0x000e8d    program     static E:\AMM\Práctica 4\Prácticsa 4 Displays TDM\TDM 4.asm
                  LOOP111   0x000e9f    program     static E:\AMM\Práctica 4\Prácticsa 4 Displays TDM\TDM 4.asm
                 FTGRM112   0x000ea6    program     static E:\AMM\Práctica 4\Prácticsa 4 Displays TDM\TDM 4.asm
                  LOOP112   0x000eb8    program     static E:\AMM\Práctica 4\Prácticsa 4 Displays TDM\TDM 4.asm
                 FTGRM113   0x000ebf    program     static E:\AMM\Práctica 4\Prácticsa 4 Displays TDM\TDM 4.asm
                  LOOP113   0x000ed1    program     static E:\AMM\Práctica 4\Prácticsa 4 Displays TDM\TDM 4.asm
                 FTGRM114   0x000ed8    program     static E:\AMM\Práctica 4\Prácticsa 4 Displays TDM\TDM 4.asm
                  LOOP114   0x000eea    program     static E:\AMM\Práctica 4\Prácticsa 4 Displays TDM\TDM 4.asm
                 FTGRM115   0x000ef1    program     static E:\AMM\Práctica 4\Prácticsa 4 Displays TDM\TDM 4.asm
                  LOOP115   0x000f03    program     static E:\AMM\Práctica 4\Prácticsa 4 Displays TDM\TDM 4.asm
                 FTGRM116   0x000f0a    program     static E:\AMM\Práctica 4\Prácticsa 4 Displays TDM\TDM 4.asm
                  LOOP116   0x000f1c    program     static E:\AMM\Práctica 4\Prácticsa 4 Displays TDM\TDM 4.asm
                 FTGRM117   0x000f23    program     static E:\AMM\Práctica 4\Prácticsa 4 Displays TDM\TDM 4.asm
                  LOOP117   0x000f35    program     static E:\AMM\Práctica 4\Prácticsa 4 Displays TDM\TDM 4.asm
                 FTGRM118   0x000f3c    program     static E:\AMM\Práctica 4\Prácticsa 4 Displays TDM\TDM 4.asm
                  LOOP118   0x000f4e    program     static E:\AMM\Práctica 4\Prácticsa 4 Displays TDM\TDM 4.asm
               FTGRM118.1   0x000f55    program     static E:\AMM\Práctica 4\Prácticsa 4 Displays TDM\TDM 4.asm
                LOOP118.1   0x000f67    program     static E:\AMM\Práctica 4\Prácticsa 4 Displays TDM\TDM 4.asm
                 FTGRM119   0x000f6e    program     static E:\AMM\Práctica 4\Prácticsa 4 Displays TDM\TDM 4.asm
                  LOOP119   0x000f80    program     static E:\AMM\Práctica 4\Prácticsa 4 Displays TDM\TDM 4.asm
             LIMPIEZA_PG0   0x000f86    program     static E:\AMM\Práctica 4\Prácticsa 4 Displays TDM\TDM 4.asm
                  RMN_PG0   0x000f97    program     static E:\AMM\Práctica 4\Prácticsa 4 Displays TDM\TDM 4.asm
                   LOOPR1   0x000f99    program     static E:\AMM\Práctica 4\Prácticsa 4 Displays TDM\TDM 4.asm
                  LOOPRB0   0x000f9b    program     static E:\AMM\Práctica 4\Prácticsa 4 Displays TDM\TDM 4.asm
                  P0_DIS0   0x000fa0    program     static E:\AMM\Práctica 4\Prácticsa 4 Displays TDM\TDM 4.asm
                  P0_DIS1   0x000fa5    program     static E:\AMM\Práctica 4\Prácticsa 4 Displays TDM\TDM 4.asm
                  P0_DIS2   0x000faa    program     static E:\AMM\Práctica 4\Prácticsa 4 Displays TDM\TDM 4.asm
                  P0_DIS3   0x000faf    program     static E:\AMM\Práctica 4\Prácticsa 4 Displays TDM\TDM 4.asm
                  P0_DIS4   0x000fb4    program     static E:\AMM\Práctica 4\Prácticsa 4 Displays TDM\TDM 4.asm
                  P0_DIS5   0x000fb9    program     static E:\AMM\Práctica 4\Prácticsa 4 Displays TDM\TDM 4.asm
                  P0_DIS6   0x000fbe    program     static E:\AMM\Práctica 4\Prácticsa 4 Displays TDM\TDM 4.asm
                  P0_DIS7   0x000fc3    program     static E:\AMM\Práctica 4\Prácticsa 4 Displays TDM\TDM 4.asm
                      PG2   0x000fc8    program     static E:\AMM\Práctica 4\Prácticsa 4 Displays TDM\TDM 4.asm
                 FTGRM120   0x001002    program     static E:\AMM\Práctica 4\Prácticsa 4 Displays TDM\TDM 4.asm
                  LOOP120   0x001014    program     static E:\AMM\Práctica 4\Prácticsa 4 Displays TDM\TDM 4.asm
                 FTGRM121   0x00101b    program     static E:\AMM\Práctica 4\Prácticsa 4 Displays TDM\TDM 4.asm
                  LOOP121   0x00102d    program     static E:\AMM\Práctica 4\Prácticsa 4 Displays TDM\TDM 4.asm
                 FTGRM122   0x001034    program     static E:\AMM\Práctica 4\Prácticsa 4 Displays TDM\TDM 4.asm
                  LOOP122   0x001046    program     static E:\AMM\Práctica 4\Prácticsa 4 Displays TDM\TDM 4.asm
                 FTGRM123   0x00104d    program     static E:\AMM\Práctica 4\Prácticsa 4 Displays TDM\TDM 4.asm
                  LOOP123   0x00105f    program     static E:\AMM\Práctica 4\Prácticsa 4 Displays TDM\TDM 4.asm
                 FTGRM124   0x001066    program     static E:\AMM\Práctica 4\Prácticsa 4 Displays TDM\TDM 4.asm
                  LOOP124   0x001078    program     static E:\AMM\Práctica 4\Prácticsa 4 Displays TDM\TDM 4.asm
                 FTGRM125   0x00107f    program     static E:\AMM\Práctica 4\Prácticsa 4 Displays TDM\TDM 4.asm
                  LOOP125   0x001091    program     static E:\AMM\Práctica 4\Prácticsa 4 Displays TDM\TDM 4.asm
                 FTGRM126   0x001098    program     static E:\AMM\Práctica 4\Prácticsa 4 Displays TDM\TDM 4.asm
                  LOOP126   0x0010aa    program     static E:\AMM\Práctica 4\Prácticsa 4 Displays TDM\TDM 4.asm
                 FTGRM127   0x0010b1    program     static E:\AMM\Práctica 4\Prácticsa 4 Displays TDM\TDM 4.asm
                  LOOP127   0x0010c3    program     static E:\AMM\Práctica 4\Prácticsa 4 Displays TDM\TDM 4.asm
                 FTGRM128   0x0010ca    program     static E:\AMM\Práctica 4\Prácticsa 4 Displays TDM\TDM 4.asm
                  LOOP128   0x0010dc    program     static E:\AMM\Práctica 4\Prácticsa 4 Displays TDM\TDM 4.asm
                 FTGRM129   0x0010e3    program     static E:\AMM\Práctica 4\Prácticsa 4 Displays TDM\TDM 4.asm
                  LOOP129   0x0010f5    program     static E:\AMM\Práctica 4\Prácticsa 4 Displays TDM\TDM 4.asm
                 FTGRM130   0x0010fc    program     static E:\AMM\Práctica 4\Prácticsa 4 Displays TDM\TDM 4.asm
                  LOOP130   0x00110e    program     static E:\AMM\Práctica 4\Prácticsa 4 Displays TDM\TDM 4.asm
                 FTGRM131   0x001115    program     static E:\AMM\Práctica 4\Prácticsa 4 Displays TDM\TDM 4.asm
                  LOOP131   0x001127    program     static E:\AMM\Práctica 4\Prácticsa 4 Displays TDM\TDM 4.asm
                 FTGRM132   0x00112e    program     static E:\AMM\Práctica 4\Prácticsa 4 Displays TDM\TDM 4.asm
                  LOOP132   0x001140    program     static E:\AMM\Práctica 4\Prácticsa 4 Displays TDM\TDM 4.asm
                 FTGRM133   0x001147    program     static E:\AMM\Práctica 4\Prácticsa 4 Displays TDM\TDM 4.asm
                  LOOP133   0x001159    program     static E:\AMM\Práctica 4\Prácticsa 4 Displays TDM\TDM 4.asm
                 FTGRM134   0x001160    program     static E:\AMM\Práctica 4\Prácticsa 4 Displays TDM\TDM 4.asm
                  LOOP134   0x001172    program     static E:\AMM\Práctica 4\Prácticsa 4 Displays TDM\TDM 4.asm
                 FTGRM135   0x001179    program     static E:\AMM\Práctica 4\Prácticsa 4 Displays TDM\TDM 4.asm
                  LOOP135   0x00118b    program     static E:\AMM\Práctica 4\Prácticsa 4 Displays TDM\TDM 4.asm
                 FTGRM136   0x001192    program     static E:\AMM\Práctica 4\Prácticsa 4 Displays TDM\TDM 4.asm
                  LOOP136   0x0011a4    program     static E:\AMM\Práctica 4\Prácticsa 4 Displays TDM\TDM 4.asm
                 FTGRM137   0x0011ab    program     static E:\AMM\Práctica 4\Prácticsa 4 Displays TDM\TDM 4.asm
                  LOOP137   0x0011bd    program     static E:\AMM\Práctica 4\Prácticsa 4 Displays TDM\TDM 4.asm
                 FTGRM138   0x0011c4    program     static E:\AMM\Práctica 4\Prácticsa 4 Displays TDM\TDM 4.asm
                  LOOP138   0x0011d6    program     static E:\AMM\Práctica 4\Prácticsa 4 Displays TDM\TDM 4.asm
                 FTGRM139   0x0011dd    program     static E:\AMM\Práctica 4\Prácticsa 4 Displays TDM\TDM 4.asm
                  LOOP139   0x0011ef    program     static E:\AMM\Práctica 4\Prácticsa 4 Displays TDM\TDM 4.asm
                 FTGRM140   0x0011f6    program     static E:\AMM\Práctica 4\Prácticsa 4 Displays TDM\TDM 4.asm
                  LOOP140   0x001208    program     static E:\AMM\Práctica 4\Prácticsa 4 Displays TDM\TDM 4.asm
                 FTGRM141   0x00120f    program     static E:\AMM\Práctica 4\Prácticsa 4 Displays TDM\TDM 4.asm
                  LOOP141   0x001221    program     static E:\AMM\Práctica 4\Prácticsa 4 Displays TDM\TDM 4.asm
                 FTGRM142   0x001228    program     static E:\AMM\Práctica 4\Prácticsa 4 Displays TDM\TDM 4.asm
                  LOOP142   0x00123a    program     static E:\AMM\Práctica 4\Prácticsa 4 Displays TDM\TDM 4.asm
                 FTGRM143   0x001241    program     static E:\AMM\Práctica 4\Prácticsa 4 Displays TDM\TDM 4.asm
                  LOOP143   0x001253    program     static E:\AMM\Práctica 4\Prácticsa 4 Displays TDM\TDM 4.asm
                 FTGRM144   0x00125a    program     static E:\AMM\Práctica 4\Prácticsa 4 Displays TDM\TDM 4.asm
                  LOOP144   0x00126c    program     static E:\AMM\Práctica 4\Prácticsa 4 Displays TDM\TDM 4.asm
                 FTGRM145   0x001273    program     static E:\AMM\Práctica 4\Prácticsa 4 Displays TDM\TDM 4.asm
                  LOOP145   0x001285    program     static E:\AMM\Práctica 4\Prácticsa 4 Displays TDM\TDM 4.asm
                 FTGRM146   0x00128c    program     static E:\AMM\Práctica 4\Prácticsa 4 Displays TDM\TDM 4.asm
                  LOOP146   0x00129e    program     static E:\AMM\Práctica 4\Prácticsa 4 Displays TDM\TDM 4.asm
                 FTGRM147   0x0012a5    program     static E:\AMM\Práctica 4\Prácticsa 4 Displays TDM\TDM 4.asm
                  LOOP147   0x0012b7    program     static E:\AMM\Práctica 4\Prácticsa 4 Displays TDM\TDM 4.asm
                 FTGRM148   0x0012be    program     static E:\AMM\Práctica 4\Prácticsa 4 Displays TDM\TDM 4.asm
                  LOOP148   0x0012d0    program     static E:\AMM\Práctica 4\Prácticsa 4 Displays TDM\TDM 4.asm
                 FTGRM149   0x0012d7    program     static E:\AMM\Práctica 4\Prácticsa 4 Displays TDM\TDM 4.asm
                  LOOP149   0x0012e9    program     static E:\AMM\Práctica 4\Prácticsa 4 Displays TDM\TDM 4.asm
                 FTGRM150   0x0012f0    program     static E:\AMM\Práctica 4\Prácticsa 4 Displays TDM\TDM 4.asm
                  LOOP150   0x001302    program     static E:\AMM\Práctica 4\Prácticsa 4 Displays TDM\TDM 4.asm
                 FTGRM151   0x001309    program     static E:\AMM\Práctica 4\Prácticsa 4 Displays TDM\TDM 4.asm
                  LOOP151   0x00131b    program     static E:\AMM\Práctica 4\Prácticsa 4 Displays TDM\TDM 4.asm
                 FTGRM152   0x001322    program     static E:\AMM\Práctica 4\Prácticsa 4 Displays TDM\TDM 4.asm
                  LOOP152   0x001334    program     static E:\AMM\Práctica 4\Prácticsa 4 Displays TDM\TDM 4.asm
                 FTGRM153   0x00133b    program     static E:\AMM\Práctica 4\Prácticsa 4 Displays TDM\TDM 4.asm
                  LOOP153   0x00134d    program     static E:\AMM\Práctica 4\Prácticsa 4 Displays TDM\TDM 4.asm
                 FTGRM154   0x001354    program     static E:\AMM\Práctica 4\Prácticsa 4 Displays TDM\TDM 4.asm
                  LOOP154   0x001366    program     static E:\AMM\Práctica 4\Prácticsa 4 Displays TDM\TDM 4.asm
                 FTGRM155   0x00136d    program     static E:\AMM\Práctica 4\Prácticsa 4 Displays TDM\TDM 4.asm
                  LOOP155   0x00137f    program     static E:\AMM\Práctica 4\Prácticsa 4 Displays TDM\TDM 4.asm
                 FTGRM156   0x001386    program     static E:\AMM\Práctica 4\Prácticsa 4 Displays TDM\TDM 4.asm
                  LOOP156   0x001398    program     static E:\AMM\Práctica 4\Prácticsa 4 Displays TDM\TDM 4.asm
                 FTGRM157   0x00139f    program     static E:\AMM\Práctica 4\Prácticsa 4 Displays TDM\TDM 4.asm
                  LOOP157   0x0013b1    program     static E:\AMM\Práctica 4\Prácticsa 4 Displays TDM\TDM 4.asm
                 FTGRM158   0x0013b8    program     static E:\AMM\Práctica 4\Prácticsa 4 Displays TDM\TDM 4.asm
                  LOOP158   0x0013ca    program     static E:\AMM\Práctica 4\Prácticsa 4 Displays TDM\TDM 4.asm
                 FTGRM159   0x0013d1    program     static E:\AMM\Práctica 4\Prácticsa 4 Displays TDM\TDM 4.asm
                  LOOP159   0x0013e3    program     static E:\AMM\Práctica 4\Prácticsa 4 Displays TDM\TDM 4.asm
                 FTGRM160   0x0013ea    program     static E:\AMM\Práctica 4\Prácticsa 4 Displays TDM\TDM 4.asm
                  LOOP160   0x0013fc    program     static E:\AMM\Práctica 4\Prácticsa 4 Displays TDM\TDM 4.asm
                 FTGRM161   0x001403    program     static E:\AMM\Práctica 4\Prácticsa 4 Displays TDM\TDM 4.asm
                  LOOP161   0x001415    program     static E:\AMM\Práctica 4\Prácticsa 4 Displays TDM\TDM 4.asm
                 FTGRM162   0x00141c    program     static E:\AMM\Práctica 4\Prácticsa 4 Displays TDM\TDM 4.asm
                  LOOP162   0x00142e    program     static E:\AMM\Práctica 4\Prácticsa 4 Displays TDM\TDM 4.asm
                 FTGRM163   0x001435    program     static E:\AMM\Práctica 4\Prácticsa 4 Displays TDM\TDM 4.asm
                  LOOP163   0x001447    program     static E:\AMM\Práctica 4\Prácticsa 4 Displays TDM\TDM 4.asm
                 FTGRM164   0x00144e    program     static E:\AMM\Práctica 4\Prácticsa 4 Displays TDM\TDM 4.asm
                  LOOP164   0x001460    program     static E:\AMM\Práctica 4\Prácticsa 4 Displays TDM\TDM 4.asm
                 FTGRM165   0x001467    program     static E:\AMM\Práctica 4\Prácticsa 4 Displays TDM\TDM 4.asm
                  LOOP165   0x001479    program     static E:\AMM\Práctica 4\Prácticsa 4 Displays TDM\TDM 4.asm
                 FTGRM166   0x001480    program     static E:\AMM\Práctica 4\Prácticsa 4 Displays TDM\TDM 4.asm
                  LOOP166   0x001492    program     static E:\AMM\Práctica 4\Prácticsa 4 Displays TDM\TDM 4.asm
                 FTGRM167   0x001499    program     static E:\AMM\Práctica 4\Prácticsa 4 Displays TDM\TDM 4.asm
                  LOOP167   0x0014ab    program     static E:\AMM\Práctica 4\Prácticsa 4 Displays TDM\TDM 4.asm
                 FTGRM168   0x0014b2    program     static E:\AMM\Práctica 4\Prácticsa 4 Displays TDM\TDM 4.asm
                  LOOP168   0x0014c4    program     static E:\AMM\Práctica 4\Prácticsa 4 Displays TDM\TDM 4.asm
                 FTGRM169   0x0014cb    program     static E:\AMM\Práctica 4\Prácticsa 4 Displays TDM\TDM 4.asm
                  LOOP169   0x0014dd    program     static E:\AMM\Práctica 4\Prácticsa 4 Displays TDM\TDM 4.asm
            MLIMPIEZA_PG0   0x0014e3    program     static E:\AMM\Práctica 4\Prácticsa 4 Displays TDM\TDM 4.asm
                 MRMN_PG0   0x0014f4    program     static E:\AMM\Práctica 4\Prácticsa 4 Displays TDM\TDM 4.asm
                  MLOOPR1   0x0014f6    program     static E:\AMM\Práctica 4\Prácticsa 4 Displays TDM\TDM 4.asm
                 MLOOPRB0   0x0014f8    program     static E:\AMM\Práctica 4\Prácticsa 4 Displays TDM\TDM 4.asm
                 MP0_DIS0   0x0014fd    program     static E:\AMM\Práctica 4\Prácticsa 4 Displays TDM\TDM 4.asm
                 MP0_DIS1   0x001502    program     static E:\AMM\Práctica 4\Prácticsa 4 Displays TDM\TDM 4.asm
                 MP0_DIS2   0x001507    program     static E:\AMM\Práctica 4\Prácticsa 4 Displays TDM\TDM 4.asm
                 MP0_DIS3   0x00150c    program     static E:\AMM\Práctica 4\Prácticsa 4 Displays TDM\TDM 4.asm
                 MP0_DIS4   0x001511    program     static E:\AMM\Práctica 4\Prácticsa 4 Displays TDM\TDM 4.asm
                 MP0_DIS5   0x001516    program     static E:\AMM\Práctica 4\Prácticsa 4 Displays TDM\TDM 4.asm
                 MP0_DIS6   0x00151b    program     static E:\AMM\Práctica 4\Prácticsa 4 Displays TDM\TDM 4.asm
                 MP0_DIS7   0x001520    program     static E:\AMM\Práctica 4\Prácticsa 4 Displays TDM\TDM 4.asm
                  REGRESO   0x001525    program     static E:\AMM\Práctica 4\Prácticsa 4 Displays TDM\TDM 4.asm


