MPASM  5.30.01                         TDM 4.ASM   11-21-2023  23:07:44         PAGE  1


LOC  OBJECT CODE     LINE SOURCE TEXT
  VALUE

                      00001                         ;INSTITUTO POLITECNICO NACIONAL.
                      00002                         ;CECYT 9 JUAN DE DIOS BATIZ.
                      00003 ;
                      00004         ;PRACTICA: 4
                      00005         ;Control de displays por TDM
                      00006 ;
                      00007         ;GRUPO: 5IM1.                           EQUIPO: 2
                      00008 ;
                      00009                                 ;INTEGRANTES:
                      00010                 ;1.- MARTINEZ OSORIO MIGUEL ANGEL
                      00011                 ;2.- LOPEZ LOPEZ DAVID ISAI
                      00012                 ;3.- PUENTE CASTRO DILAN HAZIEL
                      00013                 ;4.- RAMIREZ VALENCIA ENRIQUE
                      00014 ;
                      00015 ; COMENTARIO DE LO QUE EL PROGRAMA EJECUTARA: ESTE PROGRAMA PRESENTARÁ LA PORTADA DE LA PRÁCTICA
                      00016 ; MEDIANTE EL USO DE DISPLAYS DE 7 SEGMENTOS Y LA PROGRAMACIÓN DEL PIC16F877A
                      00017 ;---------------------------------------------------------------------------------------------
                      00018 
                      00019  LIST P=16F877A;
                      00020  ;#include "C:\Archivos de Programa\Microchip\MPASM Suite\P16F877A.INC"
                      00021  #INCLUDE "C:\Program Files (x86)\Microchip\MPASM Suite\P16F877A.INC";
                      00001         LIST
                      00002 ; P16F877A.INC  Standard Header File, Version 1.00    Microchip Technology, Inc.
                      00400         LIST
                      00022 
                      00023 ;Bits de configuración.
2007   3F31           00024  __CONFIG _XT_OSC & _WDT_OFF & _PWRTE_ON & _BODEN_OFF & _LVP_OFF & _CP_OFF;ALL
                      00025 ;---------------------------------------------------------------------------------------------
                      00026 ;
                      00027 ; fosc = 4 MHz.
                      00028 ; Ciclo de trabajo del PIC = (1/fosc)*4 = 1 µs.
                      00029 ;---------------------------------------------------------------------------------------------
                      00030 ;
                      00031                         ; Registros de propósito general Banco 0 de memoria RAM.
                      00032 ;
                      00033                         ; Registros propios de estructura del programa.
                      00034 ; Variables.
  00000020            00035 CONTADOR1 EQU 0X20; //
  00000021            00036 CONTADOR2 EQU 0X21; //
                      00037 
  00000022            00038 CONTADOR3 EQU 0X22; //
  00000023            00039 CONTADOR4 EQU 0X23; //
                      00040 ;---------------------------------------------------------------------------------------------
                      00041 ;
                      00042 ;Constantes de tiempo.
  0000002D            00043 M EQU .45;
  000000FF            00044 N EQU .255;
                      00045 
  00000003            00046 L EQU .3;
  0000007E            00047 K EQU .126;
                      00048 ;---------------------------------------------------------------------------------------------
                      00049 ;
                      00050 ;Constantes Alpha-numéricas
MPASM  5.30.01                         TDM 4.ASM   11-21-2023  23:07:44         PAGE  2


LOC  OBJECT CODE     LINE SOURCE TEXT
  VALUE

                      00051 ;
  00000000            00052 NULL    EQU B'00000000';
  00000077            00053 CAR_A   EQU     B'01110111';
  0000007C            00054 CAR_B   EQU     B'01111100';
  00000039            00055 CAR_C   EQU     B'00111001';
  00000058            00056 CAR_CC  EQU     B'01011000';
  0000005E            00057 CAR_D   EQU     B'01011110';
  00000079            00058 CAR_E   EQU     B'01111001';
  00000071            00059 CAR_F   EQU     B'01110001';
  00000076            00060 CAR_H   EQU     B'01110110';
  00000074            00061 CAR_HH  EQU     B'01110100';
  00000010            00062 CAR_I   EQU     B'00010000';
  0000001E            00063 CAR_J   EQU     B'00011110';
  00000038            00064 CAR_L   EQU     B'00111000';
  00000037            00065 CAR_N   EQU     B'00110111';
  00000054            00066 CAR_NN  EQU     B'01010100';
  00000055            00067 CAR_ń   EQU     B'01010101';
  0000005C            00068 CAR_O   EQU     B'01011100';
  00000073            00069 CAR_P   EQU     B'01110011';
  00000050            00070 CAR_R   EQU     B'01010000';
  00000078            00071 CAR_T   EQU     B'01111000';
  0000003E            00072 CAR_U   EQU     B'00111110';
  0000001C            00073 CAR_UU  EQU     B'00011100';
  0000006E            00074 CAR_Y   EQU     B'01101110';
  0000003F            00075 NUM_0   EQU     B'00111111';
  00000006            00076 NUM_1   EQU     B'00000110';
  0000005B            00077 NUM_2   EQU     B'01011011';
  0000004F            00078 NUM_3   EQU     B'01001111';
  00000066            00079 NUM_4   EQU     B'01100110';
  0000006D            00080 NUM_5   EQU     B'01101101';
  0000007D            00081 NUM_6   EQU     B'01111101';
  00000007            00082 NUM_7   EQU     B'00000111';
  0000007F            00083 NUM_8   EQU     B'01111111';
  0000006F            00084 NUM_9   EQU     B'01101111';
                      00085 ;---------------------------------------------------------------------------------------------
                      00086 ;
                      00087                         ;Asignación de los bits de los puertos de I/O.
                      00088 
                      00089 ;Puerto A.      porta
  00000000            00090 SIN_USORA0 EQU .0; // Sin Uso RA0.
  00000001            00091 SIN_USORA1 EQU .1; // Sin Uso RA1.
  00000002            00092 SIN_USORA2 EQU .2; // Sin Uso RA2.
  00000003            00093 SIN_USORA3 EQU .3; // Sin Uso RA3.
  00000004            00094 SIN_USORA4 EQU .4; // Sin Uso RA4.
  00000005            00095 SIN_USORA5 EQU .5; // Sin Uso RA5.
                      00096 
  0000003F            00097 PROGA EQU B'111111'; // Programación inicial del puerto A como entradas.
                      00098 
                      00099 ;Puerto B.      portb
  00000000            00100 A_RB0   EQU .0; // Segmento a proveniente de RB0.
  00000001            00101 B_RB1   EQU .1; // Segmento b proveniente de RB1.
  00000002            00102 C_RB2   EQU .2; // Segmento c proveniente de RB2.
  00000003            00103 D_RB3   EQU .3; // Segmento d proveniente de RB3.
MPASM  5.30.01                         TDM 4.ASM   11-21-2023  23:07:44         PAGE  3


LOC  OBJECT CODE     LINE SOURCE TEXT
  VALUE

  00000004            00104 E_RB4   EQU .4; // Segmento e proveniente de RB4.
  00000005            00105 F_RB5   EQU .5; // Segmento f proveniente de RB5.
  00000006            00106 G_RB6   EQU .6; // Segmento g proveniente de RB6.
  00000007            00107 DP_RB7  EQU .7; // Segmento dp proveniente de RB7.
                      00108 
  00000000            00109 PROGB EQU B'00000000'; // Programación inicial del puerto B como BUS de segmentos. Salidas.
                      00110 
                      00111 ;Puerto C.      portc
  00000000            00112 SIN_USORC0 EQU .0; // Sin Uso RC0.
  00000001            00113 SIN_USORC1 EQU .1; // Sin Uso RC1.
  00000002            00114 SIN_USORC2 EQU .2; // Sin Uso RC2.
  00000003            00115 SIN_USORC3 EQU .3; // Sin Uso RC3.
  00000004            00116 SIN_USORC4 EQU .4; // Sin Uso RC4.
  00000005            00117 SIN_USORC5 EQU .5; // Sin Uso RC5.
  00000006            00118 SIN_USORC6 EQU .6; // Sin Uso RC6.
  00000007            00119 SIN_USORC7 EQU .7; // Sin Uso RC7.
                      00120 
  000000FF            00121 PROGC EQU B'11111111'; // Programación inicial del puerto C como entradas.
                      00122 
                      00123 ;Puerto D.      portd
  00000000            00124 DIS0 EQU .0; // Salida CLK del Registro Externo 0 proveniente de RC0.
  00000001            00125 DIS1 EQU .1; // Salida CLK del Registro Externo 1 proveniente de RC1.
  00000002            00126 DIS2 EQU .2; // Salida CLK del Registro Externo 2 proveniente de RC2.
  00000003            00127 DIS3 EQU .3; // Salida CLK del Registro Externo 3 proveniente de RC3.
  00000004            00128 DIS4 EQU .4; // Salida CLK del Registro Externo 4 proveniente de RC4.
  00000005            00129 DIS5 EQU .5; // Salida CLK del Registro Externo 5 proveniente de RC5.
  00000006            00130 DIS6 EQU .6; // Salida CLK del Registro Externo 6 proveniente de RC6.
  00000007            00131 DIS7 EQU .7; // Salida CLK del Registro Externo 7 proveniente de RC7.
                      00132 
  00000000            00133 PROGD EQU B'0000000'; // Programación inicial del puerto D como entradas.
                      00134 
                      00135 ;Puerto E.      porte
  00000000            00136 SIN_USORE0      EQU .0; // Sin Uso RE0.
  00000001            00137 SIN_USORE1      EQU .1; // Sin Uso RE1.
  00000002            00138 SIN_USORE2      EQU .2; // Sin Uso RE2.
                      00139 
  00000007            00140 PROGE EQU B'111'; // Programación inicial del puerto E.
                      00141 ;---------------------------------------------------------------------------------------------
                      00142                         ; ==================
                      00143                         ; == Vector Reset ==
                      00144                         ; ==================
0000                  00145                         ORG 0X0000;
0000   018A           00146 VEC_RESET       CLRF PCLATH; Asegura la página cero de la memoria de prog.
0001   2818           00147                         GOTO PROG_PRIN;
                      00148 ;---------------------------------------------------------------------------------------------
                      00149 
                      00150                         ; ============================
                      00151                         ; == Vector de interrupción ==
                      00152                         ; ============================
0004                  00153                         ORG 0X0004;
0004   0000           00154 VEC_INT         NOP;
                      00155 
0005   0009           00156                         RETFIE;
MPASM  5.30.01                         TDM 4.ASM   11-21-2023  23:07:44         PAGE  4


LOC  OBJECT CODE     LINE SOURCE TEXT
  VALUE

                      00157 ;----------------------------------------------------------------------------------------------
                      00158                         ; ===========================
                      00159                         ; == Subrutina de inicio ==
                      00160                         ; ===========================
0006   1683           00161 PROG_INI        BSF STATUS,RP0; selec. el bco. 1 de ram
0007   3081           00162                         MOVLW 0X81;
0008   0081           00163                         MOVWF OPTION_REG ^0X80;
0009   303F           00164                         MOVLW PROGA; w <-- b'111111'
000A   0085           00165                         MOVWF TRISA ^0X80;
000B   3000           00166                         MOVLW PROGB;
000C   0086           00167                         MOVWF TRISB ^0X80;
000D   30FF           00168                         MOVLW PROGC;
000E   0087           00169                         MOVWF TRISC ^0X80;
000F   3000           00170                         MOVLW PROGD;
0010   0088           00171                         MOVWF TRISD ^0X80;
0011   3007           00172                         MOVLW PROGE;
0012   0089           00173                         MOVWF TRISE ^0X80;
0013   3006           00174                         MOVLW 0X06;
0014   009F           00175                         MOVWF ADCON1 ^0X80;conf. el pto. a como salidas i/o.
0015   1283           00176                         BCF STATUS,RP0;
                      00177                         
0016   2467           00178                         CALL LLIMPIEZA_PG0;
                      00179                         
0017   0008           00180                         RETURN;
                      00181 
                      00182 ;---------------------------------------------------------------------------------------------
                      00183 
                      00184                         ; ==========================
                      00185                         ; === Programa principal ===
                      00186                         ; ==========================
                      00187                         
0018   2006           00188 PROG_PRIN       CALL PROG_INI;
0019   2467           00189                         CALL LLIMPIEZA_PG0;
                      00190 
                      00191 ;---------- Ftgm1 --------- _ _ _ _ _ _ 1
                      00192 
001A   302D           00193                         MOVLW M;
001B   00A0           00194                         MOVWF CONTADOR1;
001C   30FF           00195 FTGRM1          MOVLW N;
001D   00A1           00196                         MOVWF CONTADOR2;
                      00197                         
001E   3000           00198                         MOVLW NULL;
001F   2481           00199                         CALL LP0_DIS0;
                      00200                         
0020   3000           00201                         MOVLW NULL;
0021   2486           00202                         CALL LP0_DIS1;
                      00203 
0022   3000           00204                         MOVLW NULL;
0023   248B           00205                         CALL LP0_DIS2;
                      00206 
0024   3000           00207                         MOVLW NULL;
0025   2490           00208                         CALL LP0_DIS3;
                      00209 
MPASM  5.30.01                         TDM 4.ASM   11-21-2023  23:07:44         PAGE  5


LOC  OBJECT CODE     LINE SOURCE TEXT
  VALUE

0026   3000           00210                         MOVLW NULL;
0027   2495           00211                         CALL LP0_DIS4;
                      00212 
0028   3000           00213                         MOVLW NULL;
0029   249A           00214                         CALL LP0_DIS5;
                      00215 
002A   3000           00216                         MOVLW NULL;
002B   249F           00217                         CALL LP0_DIS6;
                      00218 
002C   3006           00219                         MOVLW NUM_1;
002D   24A4           00220                         CALL LP0_DIS7;          
                      00221                         
002E   0BA1           00222 LOOP1           DECFSZ CONTADOR2,F;
002F   282E           00223                         GOTO LOOP1;
0030   0BA0           00224                         DECFSZ CONTADOR1,F;
0031   281C           00225                         GOTO FTGRM1;
                      00226                         
0032   2467           00227                         CALL LLIMPIEZA_PG0;
                      00228 
                      00229 ;---------- Ftgm2 --------- _ _ _ _ _ 1 N
                      00230 
0033   302D           00231                         MOVLW M;
0034   00A0           00232                         MOVWF CONTADOR1;
0035   30FF           00233 FTGRM2          MOVLW N;
0036   00A1           00234                         MOVWF CONTADOR2;
                      00235                         
0037   3000           00236                         MOVLW NULL;
0038   2481           00237                         CALL LP0_DIS0;
                      00238                         
0039   3000           00239                         MOVLW NULL;
003A   2486           00240                         CALL LP0_DIS1;
                      00241 
003B   3000           00242                         MOVLW NULL;
003C   248B           00243                         CALL LP0_DIS2;
                      00244 
003D   3000           00245                         MOVLW NULL;
003E   2490           00246                         CALL LP0_DIS3;
                      00247 
003F   3000           00248                         MOVLW NULL;
0040   2495           00249                         CALL LP0_DIS4;
                      00250 
0041   3000           00251                         MOVLW NULL;
0042   249A           00252                         CALL LP0_DIS5;
                      00253 
0043   3006           00254                         MOVLW NUM_1;
0044   249F           00255                         CALL LP0_DIS6;
                      00256 
0045   3037           00257                         MOVLW CAR_N;
0046   24A4           00258                         CALL LP0_DIS7;          
                      00259                         
0047   0BA1           00260 LOOP2           DECFSZ CONTADOR2,F;
0048   2847           00261                         GOTO LOOP2;
0049   0BA0           00262                         DECFSZ CONTADOR1,F;
MPASM  5.30.01                         TDM 4.ASM   11-21-2023  23:07:44         PAGE  6


LOC  OBJECT CODE     LINE SOURCE TEXT
  VALUE

004A   2835           00263                         GOTO FTGRM2;
                      00264                         
004B   2467           00265                         CALL LLIMPIEZA_PG0;
                      00266 
                      00267 ;---------- Ftgm3 --------- _ _ _ _ _ 1 N 5
                      00268 
004C   302D           00269                         MOVLW M;
004D   00A0           00270                         MOVWF CONTADOR1;
004E   30FF           00271 FTGRM3          MOVLW N;
004F   00A1           00272                         MOVWF CONTADOR2;
                      00273                         
0050   3000           00274                         MOVLW NULL;
0051   2481           00275                         CALL LP0_DIS0;
                      00276                         
0052   3000           00277                         MOVLW NULL;
0053   2486           00278                         CALL LP0_DIS1;
                      00279 
0054   3000           00280                         MOVLW NULL;
0055   248B           00281                         CALL LP0_DIS2;
                      00282 
0056   3000           00283                         MOVLW NULL;
0057   2490           00284                         CALL LP0_DIS3;
                      00285 
0058   3000           00286                         MOVLW NULL;
0059   2495           00287                         CALL LP0_DIS4;
                      00288 
005A   3006           00289                         MOVLW NUM_1;
005B   249A           00290                         CALL LP0_DIS5;
                      00291 
005C   3037           00292                         MOVLW CAR_N;
005D   249F           00293                         CALL LP0_DIS6;
                      00294 
005E   306D           00295                         MOVLW NUM_5;
005F   24A4           00296                         CALL LP0_DIS7;          
                      00297                         
0060   0BA1           00298 LOOP3           DECFSZ CONTADOR2,F;
0061   2860           00299                         GOTO LOOP3;
0062   0BA0           00300                         DECFSZ CONTADOR1,F;
0063   284E           00301                         GOTO FTGRM3;
                      00302                         
0064   2467           00303                         CALL LLIMPIEZA_PG0;
                      00304 
                      00305 ;---------- Ftgm4 --------- _ _ _ 1 N 5 t
                      00306 
0065   302D           00307                         MOVLW M;
0066   00A0           00308                         MOVWF CONTADOR1;
0067   30FF           00309 FTGRM4          MOVLW N;
0068   00A1           00310                         MOVWF CONTADOR2;
                      00311                         
0069   3000           00312                         MOVLW NULL;
006A   2481           00313                         CALL LP0_DIS0;
                      00314                         
006B   3000           00315                         MOVLW NULL;
MPASM  5.30.01                         TDM 4.ASM   11-21-2023  23:07:44         PAGE  7


LOC  OBJECT CODE     LINE SOURCE TEXT
  VALUE

006C   2486           00316                         CALL LP0_DIS1;
                      00317 
006D   3000           00318                         MOVLW NULL;
006E   248B           00319                         CALL LP0_DIS2;
                      00320 
006F   3000           00321                         MOVLW NULL;
0070   2490           00322                         CALL LP0_DIS3;
                      00323 
0071   3006           00324                         MOVLW NUM_1;
0072   2495           00325                         CALL LP0_DIS4;
                      00326 
0073   3037           00327                         MOVLW CAR_N;
0074   249A           00328                         CALL LP0_DIS5;
                      00329 
0075   306D           00330                         MOVLW NUM_5;
0076   249F           00331                         CALL LP0_DIS6;
                      00332 
0077   3078           00333                         MOVLW CAR_T;
0078   24A4           00334                         CALL LP0_DIS7;          
                      00335                         
0079   0BA1           00336 LOOP4           DECFSZ CONTADOR2,F;
007A   2879           00337                         GOTO LOOP4;
007B   0BA0           00338                         DECFSZ CONTADOR1,F;
007C   2867           00339                         GOTO FTGRM4;
                      00340                         
007D   2467           00341                         CALL LLIMPIEZA_PG0;
                      00342 
                      00343 ;---------- Ftgm5 --------- _ _ _ 1 N 5 t 1
                      00344 
007E   302D           00345                         MOVLW M;
007F   00A0           00346                         MOVWF CONTADOR1;
0080   30FF           00347 FTGRM5          MOVLW N;
0081   00A1           00348                         MOVWF CONTADOR2;
                      00349                         
0082   3000           00350                         MOVLW NULL;
0083   2481           00351                         CALL LP0_DIS0;
                      00352                         
0084   3000           00353                         MOVLW NULL;
0085   2486           00354                         CALL LP0_DIS1;
                      00355 
0086   3000           00356                         MOVLW NULL;
0087   248B           00357                         CALL LP0_DIS2;
                      00358 
0088   3006           00359                         MOVLW NUM_1;
0089   2490           00360                         CALL LP0_DIS3;
                      00361 
008A   3037           00362                         MOVLW CAR_N;
008B   2495           00363                         CALL LP0_DIS4;
                      00364 
008C   306D           00365                         MOVLW NUM_5;
008D   249A           00366                         CALL LP0_DIS5;
                      00367 
008E   3078           00368                         MOVLW CAR_T;
MPASM  5.30.01                         TDM 4.ASM   11-21-2023  23:07:44         PAGE  8


LOC  OBJECT CODE     LINE SOURCE TEXT
  VALUE

008F   249F           00369                         CALL LP0_DIS6;
                      00370 
0090   3006           00371                         MOVLW NUM_1;
0091   24A4           00372                         CALL LP0_DIS7;  
                      00373                         
0092   0BA1           00374 LOOP5           DECFSZ CONTADOR2,F;
0093   2892           00375                         GOTO LOOP5;
0094   0BA0           00376                         DECFSZ CONTADOR1,F;
0095   2880           00377                         GOTO FTGRM5;
                      00378                         
0096   2467           00379                         CALL LLIMPIEZA_PG0;
                      00380 
                      00381 ;---------- Ftgm1 --------- _ _ _ _ _ _ 1
                      00382 
0097   302D           00383                         MOVLW M;
0098   00A0           00384                         MOVWF CONTADOR1;
0099   30FF           00385 FTGRM6          MOVLW N;
009A   00A1           00386                         MOVWF CONTADOR2;
                      00387                         
009B   3000           00388                         MOVLW NULL;
009C   2481           00389                         CALL LP0_DIS0;
                      00390                         
009D   3000           00391                         MOVLW NULL;
009E   2486           00392                         CALL LP0_DIS1;
                      00393 
009F   3006           00394                         MOVLW NUM_1;
00A0   248B           00395                         CALL LP0_DIS2;
                      00396 
00A1   3037           00397                         MOVLW CAR_N;
00A2   2490           00398                         CALL LP0_DIS3;
                      00399 
00A3   306D           00400                         MOVLW NUM_5;
00A4   2495           00401                         CALL LP0_DIS4;
                      00402 
00A5   3078           00403                         MOVLW CAR_T;
00A6   249A           00404                         CALL LP0_DIS5;
                      00405 
00A7   3006           00406                         MOVLW NUM_1;
00A8   249F           00407                         CALL LP0_DIS6;
                      00408 
00A9   3078           00409                         MOVLW CAR_T;
00AA   24A4           00410                         CALL LP0_DIS7;          
                      00411                         
00AB   0BA1           00412 LOOP6           DECFSZ CONTADOR2,F;
00AC   28AB           00413                         GOTO LOOP6;
00AD   0BA0           00414                         DECFSZ CONTADOR1,F;
00AE   2899           00415                         GOTO FTGRM6;
                      00416                         
00AF   2467           00417                         CALL LLIMPIEZA_PG0;
                      00418 
                      00419 ;---------- Ftgm1 --------- _ _ _ _ _ _ 1
                      00420 
00B0   302D           00421                         MOVLW M;
MPASM  5.30.01                         TDM 4.ASM   11-21-2023  23:07:44         PAGE  9


LOC  OBJECT CODE     LINE SOURCE TEXT
  VALUE

00B1   00A0           00422                         MOVWF CONTADOR1;
00B2   30FF           00423 FTGRM7          MOVLW N;
00B3   00A1           00424                         MOVWF CONTADOR2;
                      00425                         
00B4   3000           00426                         MOVLW NULL;
00B5   2481           00427                         CALL LP0_DIS0;
                      00428                         
00B6   3006           00429                         MOVLW NUM_1;
00B7   2486           00430                         CALL LP0_DIS1;
                      00431 
00B8   3037           00432                         MOVLW CAR_N;
00B9   248B           00433                         CALL LP0_DIS2;
                      00434 
00BA   306D           00435                         MOVLW NUM_5;
00BB   2490           00436                         CALL LP0_DIS3;
                      00437 
00BC   3078           00438                         MOVLW CAR_T;
00BD   2495           00439                         CALL LP0_DIS4;
                      00440 
00BE   3006           00441                         MOVLW NUM_1;
00BF   249A           00442                         CALL LP0_DIS5;
                      00443 
00C0   3078           00444                         MOVLW CAR_T;
00C1   249F           00445                         CALL LP0_DIS6;
                      00446 
00C2   303E           00447                         MOVLW CAR_U;
00C3   24A4           00448                         CALL LP0_DIS7;          
                      00449                         
00C4   0BA1           00450 LOOP7           DECFSZ CONTADOR2,F;
00C5   28C4           00451                         GOTO LOOP7;
00C6   0BA0           00452                         DECFSZ CONTADOR1,F;
00C7   28B2           00453                         GOTO FTGRM7;
                      00454                         
00C8   2467           00455                         CALL LLIMPIEZA_PG0;
                      00456 
                      00457 ;---------- Ftgm1 --------- _ _ _ _ _ _ 1
                      00458 
00C9   302D           00459                         MOVLW M;
00CA   00A0           00460                         MOVWF CONTADOR1;
00CB   30FF           00461 FTGRM8          MOVLW N;
00CC   00A1           00462                         MOVWF CONTADOR2;
                      00463                         
00CD   3006           00464                         MOVLW NUM_1;
00CE   2481           00465                         CALL LP0_DIS0;
                      00466                         
00CF   3037           00467                         MOVLW CAR_N;
00D0   2486           00468                         CALL LP0_DIS1;
                      00469 
00D1   306D           00470                         MOVLW NUM_5;
00D2   248B           00471                         CALL LP0_DIS2;
                      00472 
00D3   3078           00473                         MOVLW CAR_T;
00D4   2490           00474                         CALL LP0_DIS3;
MPASM  5.30.01                         TDM 4.ASM   11-21-2023  23:07:44         PAGE 10


LOC  OBJECT CODE     LINE SOURCE TEXT
  VALUE

                      00475 
00D5   3006           00476                         MOVLW NUM_1;
00D6   2495           00477                         CALL LP0_DIS4;
                      00478 
00D7   3078           00479                         MOVLW CAR_T;
00D8   249A           00480                         CALL LP0_DIS5;
                      00481 
00D9   303E           00482                         MOVLW CAR_U;
00DA   249F           00483                         CALL LP0_DIS6;
                      00484 
00DB   3078           00485                         MOVLW CAR_T;
00DC   24A4           00486                         CALL LP0_DIS7;          
                      00487                         
00DD   0BA1           00488 LOOP8           DECFSZ CONTADOR2,F;
00DE   28DD           00489                         GOTO LOOP8;
00DF   0BA0           00490                         DECFSZ CONTADOR1,F;
00E0   28CB           00491                         GOTO FTGRM8;
                      00492                         
00E1   2467           00493                         CALL LLIMPIEZA_PG0;
                      00494 
                      00495 ;---------- Ftgm1 --------- _ _ _ _ _ _ 1
                      00496 
00E2   302D           00497                         MOVLW M;
00E3   00A0           00498                         MOVWF CONTADOR1;
00E4   30FF           00499 FTGRM9          MOVLW N;
00E5   00A1           00500                         MOVWF CONTADOR2;
                      00501                         
00E6   3037           00502                         MOVLW CAR_N;
00E7   2481           00503                         CALL LP0_DIS0;
                      00504 
00E8   306D           00505                         MOVLW NUM_5;
00E9   2486           00506                         CALL LP0_DIS1;
                      00507 
00EA   3078           00508                         MOVLW CAR_T;
00EB   248B           00509                         CALL LP0_DIS2;
                      00510 
00EC   3006           00511                         MOVLW NUM_1;
00ED   2490           00512                         CALL LP0_DIS3;
                      00513 
00EE   3078           00514                         MOVLW CAR_T;
00EF   2495           00515                         CALL LP0_DIS4;
                      00516 
00F0   303E           00517                         MOVLW CAR_U;
00F1   249A           00518                         CALL LP0_DIS5;
                      00519 
00F2   3078           00520                         MOVLW CAR_T;
00F3   249F           00521                         CALL LP0_DIS6;
                      00522 
00F4   303F           00523                         MOVLW NUM_0;
00F5   24A4           00524                         CALL LP0_DIS7;  
                      00525                         
00F6   0BA1           00526 LOOP9           DECFSZ CONTADOR2,F;
00F7   28F6           00527                         GOTO LOOP9;
MPASM  5.30.01                         TDM 4.ASM   11-21-2023  23:07:44         PAGE 11


LOC  OBJECT CODE     LINE SOURCE TEXT
  VALUE

00F8   0BA0           00528                         DECFSZ CONTADOR1,F;
00F9   28E4           00529                         GOTO FTGRM9;
                      00530                         
00FA   2467           00531                         CALL LLIMPIEZA_PG0;
                      00532 
                      00533 ;---------- Ftgm1 --------- _ _ _ _ _ _ 1
                      00534 
00FB   302D           00535                         MOVLW M;
00FC   00A0           00536                         MOVWF CONTADOR1;
00FD   30FF           00537 FTGRM10         MOVLW N;
00FE   00A1           00538                         MOVWF CONTADOR2;
                      00539                         
00FF   306D           00540                         MOVLW NUM_5;
0100   2481           00541                         CALL LP0_DIS0;
                      00542 
0101   3078           00543                         MOVLW CAR_T;
0102   2486           00544                         CALL LP0_DIS1;
                      00545 
0103   3006           00546                         MOVLW NUM_1;
0104   248B           00547                         CALL LP0_DIS2;
                      00548 
0105   3078           00549                         MOVLW CAR_T;
0106   2490           00550                         CALL LP0_DIS3;
                      00551 
0107   303E           00552                         MOVLW CAR_U;
0108   2495           00553                         CALL LP0_DIS4;
                      00554 
0109   3078           00555                         MOVLW CAR_T;
010A   249A           00556                         CALL LP0_DIS5;
                      00557 
010B   303F           00558                         MOVLW NUM_0;
010C   249F           00559                         CALL LP0_DIS6;
                      00560 
010D   3000           00561                         MOVLW NULL;
010E   24A4           00562                         CALL LP0_DIS7;  
                      00563                         
010F   0BA1           00564 LOOP10          DECFSZ CONTADOR2,F;
0110   290F           00565                         GOTO LOOP10;
0111   0BA0           00566                         DECFSZ CONTADOR1,F;
0112   28FD           00567                         GOTO FTGRM10;
                      00568                         
0113   2467           00569                         CALL LLIMPIEZA_PG0;
                      00570 
                      00571 
                      00572 ;---------- Ftgm1 --------- _ _ _ _ _ _ 1
                      00573 
0114   302D           00574                         MOVLW M;
0115   00A0           00575                         MOVWF CONTADOR1;
0116   30FF           00576 FTGRM11         MOVLW N;
0117   00A1           00577                         MOVWF CONTADOR2;
                      00578                         
0118   3078           00579                         MOVLW CAR_T;
0119   2481           00580                         CALL LP0_DIS0;
MPASM  5.30.01                         TDM 4.ASM   11-21-2023  23:07:44         PAGE 12


LOC  OBJECT CODE     LINE SOURCE TEXT
  VALUE

                      00581 
011A   3006           00582                         MOVLW NUM_1;
011B   2486           00583                         CALL LP0_DIS1;
                      00584 
011C   3078           00585                         MOVLW CAR_T;
011D   248B           00586                         CALL LP0_DIS2;
                      00587 
011E   303E           00588                         MOVLW CAR_U;
011F   2490           00589                         CALL LP0_DIS3;
                      00590 
0120   3078           00591                         MOVLW CAR_T;
0121   2495           00592                         CALL LP0_DIS4;
                      00593 
0122   303F           00594                         MOVLW NUM_0;
0123   249A           00595                         CALL LP0_DIS5;
                      00596 
0124   3000           00597                         MOVLW NULL;
0125   249F           00598                         CALL LP0_DIS6;
                      00599 
0126   3073           00600                         MOVLW CAR_P;
0127   24A4           00601                         CALL LP0_DIS7;
                      00602                         
0128   0BA1           00603 LOOP11          DECFSZ CONTADOR2,F;
0129   2928           00604                         GOTO LOOP11;
012A   0BA0           00605                         DECFSZ CONTADOR1,F;
012B   2916           00606                         GOTO FTGRM11;
                      00607                         
012C   2467           00608                         CALL LLIMPIEZA_PG0;
                      00609 
                      00610 ;---------- Ftgm1 --------- _ _ _ _ _ _ 1
                      00611 
012D   302D           00612                         MOVLW M;
012E   00A0           00613                         MOVWF CONTADOR1;
012F   30FF           00614 FTGRM12         MOVLW N;
0130   00A1           00615                         MOVWF CONTADOR2;
                      00616                         
0131   3006           00617                         MOVLW NUM_1;
0132   2481           00618                         CALL LP0_DIS0;
                      00619 
0133   3078           00620                         MOVLW CAR_T;
0134   2486           00621                         CALL LP0_DIS1;
                      00622 
0135   303E           00623                         MOVLW CAR_U;
0136   248B           00624                         CALL LP0_DIS2;
                      00625 
0137   3078           00626                         MOVLW CAR_T;
0138   2490           00627                         CALL LP0_DIS3;
                      00628 
0139   303F           00629                         MOVLW NUM_0;
013A   2495           00630                         CALL LP0_DIS4;
                      00631 
013B   3000           00632                         MOVLW NULL;
013C   249A           00633                         CALL LP0_DIS5;
MPASM  5.30.01                         TDM 4.ASM   11-21-2023  23:07:44         PAGE 13


LOC  OBJECT CODE     LINE SOURCE TEXT
  VALUE

                      00634 
013D   3073           00635                         MOVLW CAR_P;
013E   249F           00636                         CALL LP0_DIS6;
                      00637 
013F   303F           00638                         MOVLW NUM_0;
0140   24A4           00639                         CALL LP0_DIS7;
                      00640                         
0141   0BA1           00641 LOOP12          DECFSZ CONTADOR2,F;
0142   2941           00642                         GOTO LOOP12;
0143   0BA0           00643                         DECFSZ CONTADOR1,F;
0144   292F           00644                         GOTO FTGRM12;
                      00645                         
0145   2467           00646                         CALL LLIMPIEZA_PG0;
                      00647 
                      00648 ;---------- Ftgm1 --------- _ _ _ _ _ _ 1
                      00649 
0146   302D           00650                         MOVLW M;
0147   00A0           00651                         MOVWF CONTADOR1;
0148   30FF           00652 FTGRM13         MOVLW N;
0149   00A1           00653                         MOVWF CONTADOR2;
                      00654                         
014A   3078           00655                         MOVLW CAR_T;
014B   2481           00656                         CALL LP0_DIS0;
                      00657 
014C   303E           00658                         MOVLW CAR_U;
014D   2486           00659                         CALL LP0_DIS1;
                      00660 
014E   3078           00661                         MOVLW CAR_T;
014F   248B           00662                         CALL LP0_DIS2;
                      00663 
0150   303F           00664                         MOVLW NUM_0;
0151   2490           00665                         CALL LP0_DIS3;
                      00666 
0152   3000           00667                         MOVLW NULL;
0153   2495           00668                         CALL LP0_DIS4;
                      00669 
0154   3073           00670                         MOVLW CAR_P;
0155   249A           00671                         CALL LP0_DIS5;
                      00672 
0156   303F           00673                         MOVLW NUM_0;
0157   249F           00674                         CALL LP0_DIS6;
                      00675 
0158   3038           00676                         MOVLW CAR_L;
0159   24A4           00677                         CALL LP0_DIS7;
                      00678                         
015A   0BA1           00679 LOOP13          DECFSZ CONTADOR2,F;
015B   295A           00680                         GOTO LOOP13;
015C   0BA0           00681                         DECFSZ CONTADOR1,F;
015D   2948           00682                         GOTO FTGRM13;
                      00683                         
015E   2467           00684                         CALL LLIMPIEZA_PG0;
                      00685 
                      00686 ;---------- Ftgm1 --------- _ _ _ _ _ _ 1
MPASM  5.30.01                         TDM 4.ASM   11-21-2023  23:07:44         PAGE 14


LOC  OBJECT CODE     LINE SOURCE TEXT
  VALUE

                      00687 
015F   302D           00688                         MOVLW M;
0160   00A0           00689                         MOVWF CONTADOR1;
0161   30FF           00690 FTGRM14         MOVLW N;
0162   00A1           00691                         MOVWF CONTADOR2;
                      00692                         
0163   303E           00693                         MOVLW CAR_U;
0164   2481           00694                         CALL LP0_DIS0;
                      00695 
0165   3078           00696                         MOVLW CAR_T;
0166   2486           00697                         CALL LP0_DIS1;
                      00698 
0167   303F           00699                         MOVLW NUM_0;
0168   248B           00700                         CALL LP0_DIS2;
                      00701 
0169   3000           00702                         MOVLW NULL;
016A   2490           00703                         CALL LP0_DIS3;
                      00704 
016B   3073           00705                         MOVLW CAR_P;
016C   2495           00706                         CALL LP0_DIS4;
                      00707 
016D   303F           00708                         MOVLW NUM_0;
016E   249A           00709                         CALL LP0_DIS5;
                      00710 
016F   3038           00711                         MOVLW CAR_L;
0170   249F           00712                         CALL LP0_DIS6;
                      00713 
0171   3006           00714                         MOVLW NUM_1;
0172   24A4           00715                         CALL LP0_DIS7;
                      00716                         
0173   0BA1           00717 LOOP14          DECFSZ CONTADOR2,F;
0174   2973           00718                         GOTO LOOP14;
0175   0BA0           00719                         DECFSZ CONTADOR1,F;
0176   2961           00720                         GOTO FTGRM14;
                      00721                         
0177   2467           00722                         CALL LLIMPIEZA_PG0;
                      00723 
                      00724 ;---------- Ftgm1 --------- _ _ _ _ _ _ 1
                      00725 
0178   302D           00726                         MOVLW M;
0179   00A0           00727                         MOVWF CONTADOR1;
017A   30FF           00728 FTGRM15         MOVLW N;
017B   00A1           00729                         MOVWF CONTADOR2;
                      00730                         
017C   3078           00731                         MOVLW CAR_T;
017D   2481           00732                         CALL LP0_DIS0;
                      00733 
017E   303F           00734                         MOVLW NUM_0;
017F   2486           00735                         CALL LP0_DIS1;
                      00736 
0180   3000           00737                         MOVLW NULL;
0181   248B           00738                         CALL LP0_DIS2;
                      00739 
MPASM  5.30.01                         TDM 4.ASM   11-21-2023  23:07:44         PAGE 15


LOC  OBJECT CODE     LINE SOURCE TEXT
  VALUE

0182   3073           00740                         MOVLW CAR_P;
0183   2490           00741                         CALL LP0_DIS3;
                      00742 
0184   303F           00743                         MOVLW NUM_0;
0185   2495           00744                         CALL LP0_DIS4;
                      00745 
0186   3038           00746                         MOVLW CAR_L;
0187   249A           00747                         CALL LP0_DIS5;
                      00748 
0188   3006           00749                         MOVLW NUM_1;
0189   249F           00750                         CALL LP0_DIS6;
                      00751 
018A   3078           00752                         MOVLW CAR_T;
018B   24A4           00753                         CALL LP0_DIS7;
                      00754                         
018C   0BA1           00755 LOOP15          DECFSZ CONTADOR2,F;
018D   298C           00756                         GOTO LOOP15;
018E   0BA0           00757                         DECFSZ CONTADOR1,F;
018F   297A           00758                         GOTO FTGRM15;
                      00759                         
0190   2467           00760                         CALL LLIMPIEZA_PG0;
                      00761 
                      00762 ;---------- Ftgm1 --------- _ _ _ _ _ _ 1
                      00763 
0191   302D           00764                         MOVLW M;
0192   00A0           00765                         MOVWF CONTADOR1;
0193   30FF           00766 FTGRM16         MOVLW N;
0194   00A1           00767                         MOVWF CONTADOR2;
                      00768 
0195   303F           00769                         MOVLW NUM_0;
0196   2481           00770                         CALL LP0_DIS0;
                      00771 
0197   3000           00772                         MOVLW NULL;
0198   2486           00773                         CALL LP0_DIS1;
                      00774 
0199   3073           00775                         MOVLW CAR_P;
019A   248B           00776                         CALL LP0_DIS2;
                      00777 
019B   303F           00778                         MOVLW NUM_0;
019C   2490           00779                         CALL LP0_DIS3;
                      00780 
019D   3038           00781                         MOVLW CAR_L;
019E   2495           00782                         CALL LP0_DIS4;
                      00783 
019F   3006           00784                         MOVLW NUM_1;
01A0   249A           00785                         CALL LP0_DIS5;
                      00786 
01A1   3078           00787                         MOVLW CAR_T;
01A2   249F           00788                         CALL LP0_DIS6;
                      00789 
01A3   3079           00790                         MOVLW CAR_E;
01A4   24A4           00791                         CALL LP0_DIS7;
                      00792                         
MPASM  5.30.01                         TDM 4.ASM   11-21-2023  23:07:44         PAGE 16


LOC  OBJECT CODE     LINE SOURCE TEXT
  VALUE

01A5   0BA1           00793 LOOP16          DECFSZ CONTADOR2,F;
01A6   29A5           00794                         GOTO LOOP16;
01A7   0BA0           00795                         DECFSZ CONTADOR1,F;
01A8   2993           00796                         GOTO FTGRM16;
                      00797                         
01A9   2467           00798                         CALL LLIMPIEZA_PG0;
                      00799 
                      00800 ;---------- Ftgm1 --------- _ _ _ _ _ _ 1
                      00801 
01AA   302D           00802                         MOVLW M;
01AB   00A0           00803                         MOVWF CONTADOR1;
01AC   30FF           00804 FTGRM17         MOVLW N;
01AD   00A1           00805                         MOVWF CONTADOR2;
                      00806 
01AE   3000           00807                         MOVLW NULL;
01AF   2481           00808                         CALL LP0_DIS0;
                      00809 
01B0   3073           00810                         MOVLW CAR_P;
01B1   2486           00811                         CALL LP0_DIS1;
                      00812 
01B2   303F           00813                         MOVLW NUM_0;
01B3   248B           00814                         CALL LP0_DIS2;
                      00815 
01B4   3038           00816                         MOVLW CAR_L;
01B5   2490           00817                         CALL LP0_DIS3;
                      00818 
01B6   3006           00819                         MOVLW NUM_1;
01B7   2495           00820                         CALL LP0_DIS4;
                      00821 
01B8   3078           00822                         MOVLW CAR_T;
01B9   249A           00823                         CALL LP0_DIS5;
                      00824 
01BA   3079           00825                         MOVLW CAR_E;
01BB   249F           00826                         CALL LP0_DIS6;
                      00827                         
01BC   3039           00828                         MOVLW CAR_C;
01BD   24A4           00829                         CALL LP0_DIS7;
                      00830 
01BE   0BA1           00831 LOOP17          DECFSZ CONTADOR2,F;
01BF   29BE           00832                         GOTO LOOP17;
01C0   0BA0           00833                         DECFSZ CONTADOR1,F;
01C1   29AC           00834                         GOTO FTGRM17;
                      00835                         
01C2   2467           00836                         CALL LLIMPIEZA_PG0;
                      00837 
                      00838 ;---------- Ftgm1 --------- _ _ _ _ _ _ 1
                      00839 
01C3   302D           00840                         MOVLW M;
01C4   00A0           00841                         MOVWF CONTADOR1;
01C5   30FF           00842 FTGRM18         MOVLW N;
01C6   00A1           00843                         MOVWF CONTADOR2;
                      00844 
01C7   3073           00845                         MOVLW CAR_P;
MPASM  5.30.01                         TDM 4.ASM   11-21-2023  23:07:44         PAGE 17


LOC  OBJECT CODE     LINE SOURCE TEXT
  VALUE

01C8   2481           00846                         CALL LP0_DIS0;
                      00847 
01C9   303F           00848                         MOVLW NUM_0;
01CA   2486           00849                         CALL LP0_DIS1;
                      00850 
01CB   3038           00851                         MOVLW CAR_L;
01CC   248B           00852                         CALL LP0_DIS2;
                      00853 
01CD   3006           00854                         MOVLW NUM_1;
01CE   2490           00855                         CALL LP0_DIS3;
                      00856 
01CF   3078           00857                         MOVLW CAR_T;
01D0   2495           00858                         CALL LP0_DIS4;
                      00859 
01D1   3079           00860                         MOVLW CAR_E;
01D2   249A           00861                         CALL LP0_DIS5;
                      00862                         
01D3   3039           00863                         MOVLW CAR_C;
01D4   249F           00864                         CALL LP0_DIS6;
                      00865 
01D5   3037           00866                         MOVLW CAR_N;
01D6   24A4           00867                         CALL LP0_DIS7;
                      00868 
01D7   0BA1           00869 LOOP18          DECFSZ CONTADOR2,F;
01D8   29D7           00870                         GOTO LOOP18;
01D9   0BA0           00871                         DECFSZ CONTADOR1,F;
01DA   29C5           00872                         GOTO FTGRM18;
                      00873                         
01DB   2467           00874                         CALL LLIMPIEZA_PG0;
                      00875 
                      00876 
                      00877 ;---------- Ftgm1 --------- _ _ _ _ _ _ 1
                      00878 
01DC   302D           00879                         MOVLW M;
01DD   00A0           00880                         MOVWF CONTADOR1;
01DE   30FF           00881 FTGRM19         MOVLW N;
01DF   00A1           00882                         MOVWF CONTADOR2;
                      00883 
01E0   303F           00884                         MOVLW NUM_0;
01E1   2481           00885                         CALL LP0_DIS0;
                      00886 
01E2   3038           00887                         MOVLW CAR_L;
01E3   2486           00888                         CALL LP0_DIS1;
                      00889 
01E4   3006           00890                         MOVLW NUM_1;
01E5   248B           00891                         CALL LP0_DIS2;
                      00892 
01E6   3078           00893                         MOVLW CAR_T;
01E7   2490           00894                         CALL LP0_DIS3;
                      00895 
01E8   3079           00896                         MOVLW CAR_E;
01E9   2495           00897                         CALL LP0_DIS4;
                      00898                         
MPASM  5.30.01                         TDM 4.ASM   11-21-2023  23:07:44         PAGE 18


LOC  OBJECT CODE     LINE SOURCE TEXT
  VALUE

01EA   3039           00899                         MOVLW CAR_C;
01EB   249A           00900                         CALL LP0_DIS5;
                      00901 
01EC   3037           00902                         MOVLW CAR_N;
01ED   249F           00903                         CALL LP0_DIS6;
                      00904 
01EE   3006           00905                         MOVLW NUM_1;
01EF   24A4           00906                         CALL LP0_DIS7;
                      00907 
01F0   0BA1           00908 LOOP19          DECFSZ CONTADOR2,F;
01F1   29F0           00909                         GOTO LOOP19;
01F2   0BA0           00910                         DECFSZ CONTADOR1,F;
01F3   29DE           00911                         GOTO FTGRM19;
                      00912                         
01F4   2467           00913                         CALL LLIMPIEZA_PG0;
                      00914                         
                      00915 ;---------- Ftgm1 --------- _ _ _ _ _ _ 1
                      00916 
01F5   302D           00917                         MOVLW M;
01F6   00A0           00918                         MOVWF CONTADOR1;
01F7   30FF           00919 FTGRM20         MOVLW N;
01F8   00A1           00920                         MOVWF CONTADOR2;
                      00921 
01F9   3038           00922                         MOVLW CAR_L;
01FA   2481           00923                         CALL LP0_DIS0;
                      00924 
01FB   3006           00925                         MOVLW NUM_1;
01FC   2486           00926                         CALL LP0_DIS1;
                      00927 
01FD   3078           00928                         MOVLW CAR_T;
01FE   248B           00929                         CALL LP0_DIS2;
                      00930 
01FF   3079           00931                         MOVLW CAR_E;
0200   2490           00932                         CALL LP0_DIS3;
                      00933                         
0201   3039           00934                         MOVLW CAR_C;
0202   2495           00935                         CALL LP0_DIS4;
                      00936 
0203   3037           00937                         MOVLW CAR_N;
0204   249A           00938                         CALL LP0_DIS5;
                      00939 
0205   3006           00940                         MOVLW NUM_1;
0206   249F           00941                         CALL LP0_DIS6;
                      00942                         
0207   3039           00943                         MOVLW CAR_C;
0208   24A4           00944                         CALL LP0_DIS7;
                      00945 
0209   0BA1           00946 LOOP20          DECFSZ CONTADOR2,F;
020A   2A09           00947                         GOTO LOOP20;
020B   0BA0           00948                         DECFSZ CONTADOR1,F;
020C   29F7           00949                         GOTO FTGRM20;
                      00950                         
020D   2467           00951                         CALL LLIMPIEZA_PG0;
MPASM  5.30.01                         TDM 4.ASM   11-21-2023  23:07:44         PAGE 19


LOC  OBJECT CODE     LINE SOURCE TEXT
  VALUE

                      00952 
                      00953 ;---------- Ftgm1 --------- _ _ _ _ _ _ 1
                      00954 
020E   302D           00955                         MOVLW M;
020F   00A0           00956                         MOVWF CONTADOR1;
0210   30FF           00957 FTGRM21         MOVLW N;
0211   00A1           00958                         MOVWF CONTADOR2;
                      00959 
0212   3006           00960                         MOVLW NUM_1;
0213   2481           00961                         CALL LP0_DIS0;
                      00962 
0214   3078           00963                         MOVLW CAR_T;
0215   2486           00964                         CALL LP0_DIS1;
                      00965 
0216   3079           00966                         MOVLW CAR_E;
0217   248B           00967                         CALL LP0_DIS2;
                      00968                         
0218   3039           00969                         MOVLW CAR_C;
0219   2490           00970                         CALL LP0_DIS3;
                      00971 
021A   3037           00972                         MOVLW CAR_N;
021B   2495           00973                         CALL LP0_DIS4;
                      00974 
021C   3006           00975                         MOVLW NUM_1;
021D   249A           00976                         CALL LP0_DIS5;
                      00977                         
021E   3039           00978                         MOVLW CAR_C;
021F   249F           00979                         CALL LP0_DIS6;
                      00980 
0220   303F           00981                         MOVLW NUM_0;
0221   24A4           00982                         CALL LP0_DIS7;
                      00983 
0222   0BA1           00984 LOOP21          DECFSZ CONTADOR2,F;
0223   2A22           00985                         GOTO LOOP21;
0224   0BA0           00986                         DECFSZ CONTADOR1,F;
0225   2A10           00987                         GOTO FTGRM21;
                      00988                         
0226   2467           00989                         CALL LLIMPIEZA_PG0;
                      00990 
                      00991 ;---------- Ftgm1 --------- _ _ _ _ _ _ 1
                      00992 
0227   302D           00993                         MOVLW M;
0228   00A0           00994                         MOVWF CONTADOR1;
0229   30FF           00995 FTGRM22         MOVLW N;
022A   00A1           00996                         MOVWF CONTADOR2;
                      00997 
022B   3078           00998                         MOVLW CAR_T;
022C   2481           00999                         CALL LP0_DIS0;
                      01000 
022D   3079           01001                         MOVLW CAR_E;
022E   2486           01002                         CALL LP0_DIS1;
                      01003                         
022F   3039           01004                         MOVLW CAR_C;
MPASM  5.30.01                         TDM 4.ASM   11-21-2023  23:07:44         PAGE 20


LOC  OBJECT CODE     LINE SOURCE TEXT
  VALUE

0230   248B           01005                         CALL LP0_DIS2;
                      01006 
0231   3037           01007                         MOVLW CAR_N;
0232   2490           01008                         CALL LP0_DIS3;
                      01009 
0233   3006           01010                         MOVLW NUM_1;
0234   2495           01011                         CALL LP0_DIS4;
                      01012                         
0235   3039           01013                         MOVLW CAR_C;
0236   249A           01014                         CALL LP0_DIS5;
                      01015 
0237   303F           01016                         MOVLW NUM_0;
0238   249F           01017                         CALL LP0_DIS6;
                      01018 
0239   3000           01019                         MOVLW NULL;
023A   24A4           01020                         CALL LP0_DIS7;
                      01021 
023B   0BA1           01022 LOOP22          DECFSZ CONTADOR2,F;
023C   2A3B           01023                         GOTO LOOP22;
023D   0BA0           01024                         DECFSZ CONTADOR1,F;
023E   2A29           01025                         GOTO FTGRM22;
                      01026                         
023F   2467           01027                         CALL LLIMPIEZA_PG0;
                      01028 
                      01029 ;---------- Ftgm1 --------- _ _ _ _ _ _ 1
                      01030 
0240   302D           01031                         MOVLW M;
0241   00A0           01032                         MOVWF CONTADOR1;
0242   30FF           01033 FTGRM23         MOVLW N;
0243   00A1           01034                         MOVWF CONTADOR2;
                      01035 
0244   3079           01036                         MOVLW CAR_E;
0245   2481           01037                         CALL LP0_DIS0;
                      01038                         
0246   3039           01039                         MOVLW CAR_C;
0247   2486           01040                         CALL LP0_DIS1;
                      01041 
0248   3037           01042                         MOVLW CAR_N;
0249   248B           01043                         CALL LP0_DIS2;
                      01044 
024A   3006           01045                         MOVLW NUM_1;
024B   2490           01046                         CALL LP0_DIS3;
                      01047                         
024C   3039           01048                         MOVLW CAR_C;
024D   2495           01049                         CALL LP0_DIS4;
                      01050 
024E   303F           01051                         MOVLW NUM_0;
024F   249A           01052                         CALL LP0_DIS5;
                      01053 
0250   3000           01054                         MOVLW NULL;
0251   249F           01055                         CALL LP0_DIS6;
                      01056 
0252   3037           01057                         MOVLW CAR_N;
MPASM  5.30.01                         TDM 4.ASM   11-21-2023  23:07:44         PAGE 21


LOC  OBJECT CODE     LINE SOURCE TEXT
  VALUE

0253   24A4           01058                         CALL LP0_DIS7;
                      01059 
0254   0BA1           01060 LOOP23          DECFSZ CONTADOR2,F;
0255   2A54           01061                         GOTO LOOP23;
0256   0BA0           01062                         DECFSZ CONTADOR1,F;
0257   2A42           01063                         GOTO FTGRM23;
                      01064                         
0258   2467           01065                         CALL LLIMPIEZA_PG0;
                      01066 
                      01067 ;---------- Ftgm1 --------- _ _ _ _ _ _ 1
                      01068 
0259   302D           01069                         MOVLW M;
025A   00A0           01070                         MOVWF CONTADOR1;
025B   30FF           01071 FTGRM24         MOVLW N;
025C   00A1           01072                         MOVWF CONTADOR2;
                      01073                 
025D   3039           01074                         MOVLW CAR_C;
025E   2481           01075                         CALL LP0_DIS0;
                      01076 
025F   3037           01077                         MOVLW CAR_N;
0260   2486           01078                         CALL LP0_DIS1;
                      01079 
0261   3006           01080                         MOVLW NUM_1;
0262   248B           01081                         CALL LP0_DIS2;
                      01082                         
0263   3039           01083                         MOVLW CAR_C;
0264   2490           01084                         CALL LP0_DIS3;
                      01085 
0265   303F           01086                         MOVLW NUM_0;
0266   2495           01087                         CALL LP0_DIS4;
                      01088 
0267   3000           01089                         MOVLW NULL;
0268   249A           01090                         CALL LP0_DIS5;
                      01091 
0269   3037           01092                         MOVLW CAR_N;
026A   249F           01093                         CALL LP0_DIS6;
                      01094 
026B   3077           01095                         MOVLW CAR_A;
026C   24A4           01096                         CALL LP0_DIS7;
                      01097 
026D   0BA1           01098 LOOP24          DECFSZ CONTADOR2,F;
026E   2A6D           01099                         GOTO LOOP24;
026F   0BA0           01100                         DECFSZ CONTADOR1,F;
0270   2A5B           01101                         GOTO FTGRM24;
                      01102                         
0271   2467           01103                         CALL LLIMPIEZA_PG0;
                      01104 
                      01105 ;---------- Ftgm1 --------- _ _ _ _ _ _ 1
                      01106 
0272   302D           01107                         MOVLW M;
0273   00A0           01108                         MOVWF CONTADOR1;
0274   30FF           01109 FTGRM25         MOVLW N;
0275   00A1           01110                         MOVWF CONTADOR2;
MPASM  5.30.01                         TDM 4.ASM   11-21-2023  23:07:44         PAGE 22


LOC  OBJECT CODE     LINE SOURCE TEXT
  VALUE

                      01111 
0276   3037           01112                         MOVLW CAR_N;
0277   2481           01113                         CALL LP0_DIS0;
                      01114 
0278   3006           01115                         MOVLW NUM_1;
0279   2486           01116                         CALL LP0_DIS1;
                      01117                         
027A   3039           01118                         MOVLW CAR_C;
027B   248B           01119                         CALL LP0_DIS2;
                      01120 
027C   303F           01121                         MOVLW NUM_0;
027D   2490           01122                         CALL LP0_DIS3;
                      01123 
027E   3000           01124                         MOVLW NULL;
027F   2495           01125                         CALL LP0_DIS4;
                      01126 
0280   3037           01127                         MOVLW CAR_N;
0281   249A           01128                         CALL LP0_DIS5;
                      01129 
0282   3077           01130                         MOVLW CAR_A;
0283   249F           01131                         CALL LP0_DIS6;
                      01132 
0284   3039           01133                         MOVLW CAR_C;
0285   24A4           01134                         CALL LP0_DIS7;
                      01135 
0286   0BA1           01136 LOOP25          DECFSZ CONTADOR2,F;
0287   2A86           01137                         GOTO LOOP25;
0288   0BA0           01138                         DECFSZ CONTADOR1,F;
0289   2A74           01139                         GOTO FTGRM25;
                      01140                         
028A   2467           01141                         CALL LLIMPIEZA_PG0;
                      01142 
                      01143 ;---------- Ftgm1 --------- _ _ _ _ _ _ 1
                      01144 
028B   302D           01145                         MOVLW M;
028C   00A0           01146                         MOVWF CONTADOR1;
028D   30FF           01147 FTGRM26         MOVLW N;
028E   00A1           01148                         MOVWF CONTADOR2;
                      01149 
028F   3006           01150                         MOVLW NUM_1;
0290   2481           01151                         CALL LP0_DIS0;
                      01152                         
0291   3039           01153                         MOVLW CAR_C;
0292   2486           01154                         CALL LP0_DIS1;
                      01155 
0293   303F           01156                         MOVLW NUM_0;
0294   248B           01157                         CALL LP0_DIS2;
                      01158 
0295   3000           01159                         MOVLW NULL;
0296   2490           01160                         CALL LP0_DIS3;
                      01161 
0297   3037           01162                         MOVLW CAR_N;
0298   2495           01163                         CALL LP0_DIS4;
MPASM  5.30.01                         TDM 4.ASM   11-21-2023  23:07:44         PAGE 23


LOC  OBJECT CODE     LINE SOURCE TEXT
  VALUE

                      01164 
0299   3077           01165                         MOVLW CAR_A;
029A   249A           01166                         CALL LP0_DIS5;
                      01167 
029B   3039           01168                         MOVLW CAR_C;
029C   249F           01169                         CALL LP0_DIS6;
                      01170 
029D   3006           01171                         MOVLW NUM_1;
029E   24A4           01172                         CALL LP0_DIS7;
                      01173 
029F   0BA1           01174 LOOP26          DECFSZ CONTADOR2,F;
02A0   2A9F           01175                         GOTO LOOP26;
02A1   0BA0           01176                         DECFSZ CONTADOR1,F;
02A2   2A8D           01177                         GOTO FTGRM26;
                      01178                         
02A3   2467           01179                         CALL LLIMPIEZA_PG0;
                      01180 
                      01181 ;---------- Ftgm1 --------- _ _ _ _ _ _ 1
                      01182 
02A4   302D           01183                         MOVLW M;
02A5   00A0           01184                         MOVWF CONTADOR1;
02A6   30FF           01185 FTGRM27         MOVLW N;
02A7   00A1           01186                         MOVWF CONTADOR2;
                      01187         
02A8   3039           01188                         MOVLW CAR_C;
02A9   2481           01189                         CALL LP0_DIS0;
                      01190 
02AA   303F           01191                         MOVLW NUM_0;
02AB   2486           01192                         CALL LP0_DIS1;
                      01193 
02AC   3000           01194                         MOVLW NULL;
02AD   248B           01195                         CALL LP0_DIS2;
                      01196 
02AE   3037           01197                         MOVLW CAR_N;
02AF   2490           01198                         CALL LP0_DIS3;
                      01199 
02B0   3077           01200                         MOVLW CAR_A;
02B1   2495           01201                         CALL LP0_DIS4;
                      01202 
02B2   3039           01203                         MOVLW CAR_C;
02B3   249A           01204                         CALL LP0_DIS5;
                      01205 
02B4   3006           01206                         MOVLW NUM_1;
02B5   249F           01207                         CALL LP0_DIS6;
                      01208 
02B6   303F           01209                         MOVLW NUM_0;
02B7   24A4           01210                         CALL LP0_DIS7;
                      01211 
02B8   0BA1           01212 LOOP27          DECFSZ CONTADOR2,F;
02B9   2AB8           01213                         GOTO LOOP27;
02BA   0BA0           01214                         DECFSZ CONTADOR1,F;
02BB   2AA6           01215                         GOTO FTGRM27;
                      01216                         
MPASM  5.30.01                         TDM 4.ASM   11-21-2023  23:07:44         PAGE 24


LOC  OBJECT CODE     LINE SOURCE TEXT
  VALUE

02BC   2467           01217                         CALL LLIMPIEZA_PG0;
                      01218 
                      01219 ;---------- Ftgm1 --------- _ _ _ _ _ _ 1
                      01220 
02BD   302D           01221                         MOVLW M;
02BE   00A0           01222                         MOVWF CONTADOR1;
02BF   30FF           01223 FTGRM28         MOVLW N;
02C0   00A1           01224                         MOVWF CONTADOR2;
                      01225         
02C1   303F           01226                         MOVLW NUM_0;
02C2   2481           01227                         CALL LP0_DIS0;
                      01228 
02C3   3000           01229                         MOVLW NULL;
02C4   2486           01230                         CALL LP0_DIS1;
                      01231 
02C5   3037           01232                         MOVLW CAR_N;
02C6   248B           01233                         CALL LP0_DIS2;
                      01234 
02C7   3077           01235                         MOVLW CAR_A;
02C8   2490           01236                         CALL LP0_DIS3;
                      01237 
02C9   3039           01238                         MOVLW CAR_C;
02CA   2495           01239                         CALL LP0_DIS4;
                      01240 
02CB   3006           01241                         MOVLW NUM_1;
02CC   249A           01242                         CALL LP0_DIS5;
                      01243 
02CD   303F           01244                         MOVLW NUM_0;
02CE   249F           01245                         CALL LP0_DIS6;
                      01246 
02CF   3037           01247                         MOVLW CAR_N;
02D0   24A4           01248                         CALL LP0_DIS7;
                      01249 
02D1   0BA1           01250 LOOP28          DECFSZ CONTADOR2,F;
02D2   2AD1           01251                         GOTO LOOP28;
02D3   0BA0           01252                         DECFSZ CONTADOR1,F;
02D4   2ABF           01253                         GOTO FTGRM28;
                      01254                         
02D5   2467           01255                         CALL LLIMPIEZA_PG0;
                      01256 
                      01257 ;---------- Ftgm1 --------- _ _ _ _ _ _ 1
                      01258 
02D6   302D           01259                         MOVLW M;
02D7   00A0           01260                         MOVWF CONTADOR1;
02D8   30FF           01261 FTGRM29         MOVLW N;
02D9   00A1           01262                         MOVWF CONTADOR2;
                      01263 
02DA   3000           01264                         MOVLW NULL;
02DB   2481           01265                         CALL LP0_DIS0;
                      01266 
02DC   3037           01267                         MOVLW CAR_N;
02DD   2486           01268                         CALL LP0_DIS1;
                      01269 
MPASM  5.30.01                         TDM 4.ASM   11-21-2023  23:07:44         PAGE 25


LOC  OBJECT CODE     LINE SOURCE TEXT
  VALUE

02DE   3077           01270                         MOVLW CAR_A;
02DF   248B           01271                         CALL LP0_DIS2;
                      01272 
02E0   3039           01273                         MOVLW CAR_C;
02E1   2490           01274                         CALL LP0_DIS3;
                      01275 
02E2   3006           01276                         MOVLW NUM_1;
02E3   2495           01277                         CALL LP0_DIS4;
                      01278 
02E4   303F           01279                         MOVLW NUM_0;
02E5   249A           01280                         CALL LP0_DIS5;
                      01281 
02E6   3037           01282                         MOVLW CAR_N;
02E7   249F           01283                         CALL LP0_DIS6;
                      01284 
02E8   3077           01285                         MOVLW CAR_A;
02E9   24A4           01286                         CALL LP0_DIS7;
                      01287 
02EA   0BA1           01288 LOOP29          DECFSZ CONTADOR2,F;
02EB   2AEA           01289                         GOTO LOOP29;
02EC   0BA0           01290                         DECFSZ CONTADOR1,F;
02ED   2AD8           01291                         GOTO FTGRM29;
                      01292                         
02EE   2467           01293                         CALL LLIMPIEZA_PG0;
                      01294 
                      01295 ;---------- Ftgm1 --------- _ _ _ _ _ _ 1
                      01296 
02EF   302D           01297                         MOVLW M;
02F0   00A0           01298                         MOVWF CONTADOR1;
02F1   30FF           01299 FTGRM30         MOVLW N;
02F2   00A1           01300                         MOVWF CONTADOR2;
                      01301 
02F3   3037           01302                         MOVLW CAR_N;
02F4   2481           01303                         CALL LP0_DIS0;
                      01304 
02F5   3077           01305                         MOVLW CAR_A;
02F6   2486           01306                         CALL LP0_DIS1;
                      01307 
02F7   3039           01308                         MOVLW CAR_C;
02F8   248B           01309                         CALL LP0_DIS2;
                      01310 
02F9   3006           01311                         MOVLW NUM_1;
02FA   2490           01312                         CALL LP0_DIS3;
                      01313 
02FB   303F           01314                         MOVLW NUM_0;
02FC   2495           01315                         CALL LP0_DIS4;
                      01316 
02FD   3037           01317                         MOVLW CAR_N;
02FE   249A           01318                         CALL LP0_DIS5;
                      01319 
02FF   3077           01320                         MOVLW CAR_A;
0300   249F           01321                         CALL LP0_DIS6;
                      01322 
MPASM  5.30.01                         TDM 4.ASM   11-21-2023  23:07:44         PAGE 26


LOC  OBJECT CODE     LINE SOURCE TEXT
  VALUE

0301   3038           01323                         MOVLW CAR_L;
0302   24A4           01324                         CALL LP0_DIS7;
                      01325 
0303   0BA1           01326 LOOP30          DECFSZ CONTADOR2,F;
0304   2B03           01327                         GOTO LOOP30;
0305   0BA0           01328                         DECFSZ CONTADOR1,F;
0306   2AF1           01329                         GOTO FTGRM30;
                      01330                         
0307   2467           01331                         CALL LLIMPIEZA_PG0;
                      01332 
                      01333 ;---------- Ftgm1 --------- _ _ _ _ _ _ 1
                      01334 
0308   302D           01335                         MOVLW M;
0309   00A0           01336                         MOVWF CONTADOR1;
030A   30FF           01337 FTGRM31         MOVLW N;
030B   00A1           01338                         MOVWF CONTADOR2;
                      01339 
030C   3077           01340                         MOVLW CAR_A;
030D   2481           01341                         CALL LP0_DIS0;
                      01342 
030E   3039           01343                         MOVLW CAR_C;
030F   2486           01344                         CALL LP0_DIS1;
                      01345 
0310   3006           01346                         MOVLW NUM_1;
0311   248B           01347                         CALL LP0_DIS2;
                      01348 
0312   303F           01349                         MOVLW NUM_0;
0313   2490           01350                         CALL LP0_DIS3;
                      01351 
0314   3037           01352                         MOVLW CAR_N;
0315   2495           01353                         CALL LP0_DIS4;
                      01354 
0316   3077           01355                         MOVLW CAR_A;
0317   249A           01356                         CALL LP0_DIS5;
                      01357 
0318   3038           01358                         MOVLW CAR_L;
0319   249F           01359                         CALL LP0_DIS6;
                      01360 
031A   3000           01361                         MOVLW NULL;
031B   24A4           01362                         CALL LP0_DIS7;
                      01363 
031C   0BA1           01364 LOOP31          DECFSZ CONTADOR2,F;
031D   2B1C           01365                         GOTO LOOP31;
031E   0BA0           01366                         DECFSZ CONTADOR1,F;
031F   2B0A           01367                         GOTO FTGRM31;
                      01368                         
0320   2467           01369                         CALL LLIMPIEZA_PG0;
                      01370 
                      01371 ;---------- Ftgm1 --------- _ _ _ _ _ _ 1
                      01372 
0321   302D           01373                         MOVLW M;
0322   00A0           01374                         MOVWF CONTADOR1;
0323   30FF           01375 FTGRM32         MOVLW N;
MPASM  5.30.01                         TDM 4.ASM   11-21-2023  23:07:44         PAGE 27


LOC  OBJECT CODE     LINE SOURCE TEXT
  VALUE

0324   00A1           01376                         MOVWF CONTADOR2;
                      01377 
0325   3039           01378                         MOVLW CAR_C;
0326   2481           01379                         CALL LP0_DIS0;
                      01380 
0327   3006           01381                         MOVLW NUM_1;
0328   2486           01382                         CALL LP0_DIS1;
                      01383 
0329   303F           01384                         MOVLW NUM_0;
032A   248B           01385                         CALL LP0_DIS2;
                      01386 
032B   3037           01387                         MOVLW CAR_N;
032C   2490           01388                         CALL LP0_DIS3;
                      01389 
032D   3077           01390                         MOVLW CAR_A;
032E   2495           01391                         CALL LP0_DIS4;
                      01392 
032F   3038           01393                         MOVLW CAR_L;
0330   249A           01394                         CALL LP0_DIS5;
                      01395 
0331   3000           01396                         MOVLW NULL;
0332   249F           01397                         CALL LP0_DIS6;
                      01398 
0333   3039           01399                         MOVLW CAR_C;
0334   24A4           01400                         CALL LP0_DIS7;
                      01401 
0335   0BA1           01402 LOOP32          DECFSZ CONTADOR2,F;
0336   2B35           01403                         GOTO LOOP32;
0337   0BA0           01404                         DECFSZ CONTADOR1,F;
0338   2B23           01405                         GOTO FTGRM32;
                      01406                         
0339   2467           01407                         CALL LLIMPIEZA_PG0;
                      01408 
                      01409 ;---------- Ftgm1 --------- _ _ _ _ _ _ 1
                      01410 
033A   302D           01411                         MOVLW M;
033B   00A0           01412                         MOVWF CONTADOR1;
033C   30FF           01413 FTGRM33         MOVLW N;
033D   00A1           01414                         MOVWF CONTADOR2;
                      01415 
033E   3006           01416                         MOVLW NUM_1;
033F   2481           01417                         CALL LP0_DIS0;
                      01418 
0340   303F           01419                         MOVLW NUM_0;
0341   2486           01420                         CALL LP0_DIS1;
                      01421 
0342   3037           01422                         MOVLW CAR_N;
0343   248B           01423                         CALL LP0_DIS2;
                      01424 
0344   3077           01425                         MOVLW CAR_A;
0345   2490           01426                         CALL LP0_DIS3;
                      01427 
0346   3038           01428                         MOVLW CAR_L;
MPASM  5.30.01                         TDM 4.ASM   11-21-2023  23:07:44         PAGE 28


LOC  OBJECT CODE     LINE SOURCE TEXT
  VALUE

0347   2495           01429                         CALL LP0_DIS4;
                      01430 
0348   3000           01431                         MOVLW NULL;
0349   249A           01432                         CALL LP0_DIS5;
                      01433 
034A   3039           01434                         MOVLW CAR_C;
034B   249F           01435                         CALL LP0_DIS6;
                      01436 
034C   3079           01437                         MOVLW CAR_E;
034D   24A4           01438                         CALL LP0_DIS7;
                      01439 
034E   0BA1           01440 LOOP33          DECFSZ CONTADOR2,F;
034F   2B4E           01441                         GOTO LOOP33;
0350   0BA0           01442                         DECFSZ CONTADOR1,F;
0351   2B3C           01443                         GOTO FTGRM33;
                      01444                         
0352   2467           01445                         CALL LLIMPIEZA_PG0;
                      01446 
                      01447 ;---------- Ftgm1 --------- _ _ _ _ _ _ 1
                      01448 
0353   302D           01449                         MOVLW M;
0354   00A0           01450                         MOVWF CONTADOR1;
0355   30FF           01451 FTGRM34         MOVLW N;
0356   00A1           01452                         MOVWF CONTADOR2;
                      01453 
0357   303F           01454                         MOVLW NUM_0;
0358   2481           01455                         CALL LP0_DIS0;
                      01456 
0359   3037           01457                         MOVLW CAR_N;
035A   2486           01458                         CALL LP0_DIS1;
                      01459 
035B   3077           01460                         MOVLW CAR_A;
035C   248B           01461                         CALL LP0_DIS2;
                      01462 
035D   3038           01463                         MOVLW CAR_L;
035E   2490           01464                         CALL LP0_DIS3;
                      01465 
035F   3000           01466                         MOVLW NULL;
0360   2495           01467                         CALL LP0_DIS4;
                      01468 
0361   3039           01469                         MOVLW CAR_C;
0362   249A           01470                         CALL LP0_DIS5;
                      01471 
0363   3079           01472                         MOVLW CAR_E;
0364   249F           01473                         CALL LP0_DIS6;
                      01474 
0365   3039           01475                         MOVLW CAR_C;
0366   24A4           01476                         CALL LP0_DIS7;
                      01477 
0367   0BA1           01478 LOOP34          DECFSZ CONTADOR2,F;
0368   2B67           01479                         GOTO LOOP34;
0369   0BA0           01480                         DECFSZ CONTADOR1,F;
036A   2B55           01481                         GOTO FTGRM34;
MPASM  5.30.01                         TDM 4.ASM   11-21-2023  23:07:44         PAGE 29


LOC  OBJECT CODE     LINE SOURCE TEXT
  VALUE

                      01482                         
036B   2467           01483                         CALL LLIMPIEZA_PG0;
                      01484 
                      01485 ;---------- Ftgm1 --------- _ _ _ _ _ _ 1
                      01486 
036C   302D           01487                         MOVLW M;
036D   00A0           01488                         MOVWF CONTADOR1;
036E   30FF           01489 FTGRM35         MOVLW N;
036F   00A1           01490                         MOVWF CONTADOR2;
                      01491 
0370   3037           01492                         MOVLW CAR_N;
0371   2481           01493                         CALL LP0_DIS0;
                      01494 
0372   3077           01495                         MOVLW CAR_A;
0373   2486           01496                         CALL LP0_DIS1;
                      01497 
0374   3038           01498                         MOVLW CAR_L;
0375   248B           01499                         CALL LP0_DIS2;
                      01500 
0376   3000           01501                         MOVLW NULL;
0377   2490           01502                         CALL LP0_DIS3;
                      01503 
0378   3039           01504                         MOVLW CAR_C;
0379   2495           01505                         CALL LP0_DIS4;
                      01506 
037A   3079           01507                         MOVLW CAR_E;
037B   249A           01508                         CALL LP0_DIS5;
                      01509 
037C   3039           01510                         MOVLW CAR_C;
037D   249F           01511                         CALL LP0_DIS6;
                      01512 
037E   306E           01513                         MOVLW CAR_Y;
037F   24A4           01514                         CALL LP0_DIS7;
                      01515 
0380   0BA1           01516 LOOP35          DECFSZ CONTADOR2,F;
0381   2B80           01517                         GOTO LOOP35;
0382   0BA0           01518                         DECFSZ CONTADOR1,F;
0383   2B6E           01519                         GOTO FTGRM35;
                      01520                         
0384   2467           01521                         CALL LLIMPIEZA_PG0;
                      01522 
                      01523 ;---------- Ftgm1 --------- _ _ _ _ _ _ 1
                      01524 
0385   302D           01525                         MOVLW M;
0386   00A0           01526                         MOVWF CONTADOR1;
0387   30FF           01527 FTGRM36         MOVLW N;
0388   00A1           01528                         MOVWF CONTADOR2;
                      01529 
0389   3077           01530                         MOVLW CAR_A;
038A   2481           01531                         CALL LP0_DIS0;
                      01532 
038B   3038           01533                         MOVLW CAR_L;
038C   2486           01534                         CALL LP0_DIS1;
MPASM  5.30.01                         TDM 4.ASM   11-21-2023  23:07:44         PAGE 30


LOC  OBJECT CODE     LINE SOURCE TEXT
  VALUE

                      01535 
038D   3000           01536                         MOVLW NULL;
038E   248B           01537                         CALL LP0_DIS2;
                      01538 
038F   3039           01539                         MOVLW CAR_C;
0390   2490           01540                         CALL LP0_DIS3;
                      01541 
0391   3079           01542                         MOVLW CAR_E;
0392   2495           01543                         CALL LP0_DIS4;
                      01544 
0393   3039           01545                         MOVLW CAR_C;
0394   249A           01546                         CALL LP0_DIS5;
                      01547 
0395   306E           01548                         MOVLW CAR_Y;
0396   249F           01549                         CALL LP0_DIS6;
                      01550 
0397   3078           01551                         MOVLW CAR_T;
0398   24A4           01552                         CALL LP0_DIS7;
                      01553 
0399   0BA1           01554 LOOP36          DECFSZ CONTADOR2,F;
039A   2B99           01555                         GOTO LOOP36;
039B   0BA0           01556                         DECFSZ CONTADOR1,F;
039C   2B87           01557                         GOTO FTGRM36;
                      01558                         
039D   2467           01559                         CALL LLIMPIEZA_PG0;
                      01560 
                      01561 ;---------- Ftgm1 --------- _ _ _ _ _ _ 1
                      01562 
039E   302D           01563                         MOVLW M;
039F   00A0           01564                         MOVWF CONTADOR1;
03A0   30FF           01565 FTGRM37         MOVLW N;
03A1   00A1           01566                         MOVWF CONTADOR2;
                      01567 
03A2   3038           01568                         MOVLW CAR_L;
03A3   2481           01569                         CALL LP0_DIS0;
                      01570 
03A4   3000           01571                         MOVLW NULL;
03A5   2486           01572                         CALL LP0_DIS1;
                      01573 
03A6   3039           01574                         MOVLW CAR_C;
03A7   248B           01575                         CALL LP0_DIS2;
                      01576 
03A8   3079           01577                         MOVLW CAR_E;
03A9   2490           01578                         CALL LP0_DIS3;
                      01579 
03AA   3039           01580                         MOVLW CAR_C;
03AB   2495           01581                         CALL LP0_DIS4;
                      01582 
03AC   306E           01583                         MOVLW CAR_Y;
03AD   249A           01584                         CALL LP0_DIS5;
                      01585 
03AE   3078           01586                         MOVLW CAR_T;
03AF   249F           01587                         CALL LP0_DIS6;
MPASM  5.30.01                         TDM 4.ASM   11-21-2023  23:07:44         PAGE 31


LOC  OBJECT CODE     LINE SOURCE TEXT
  VALUE

                      01588 
03B0   3000           01589                         MOVLW NULL;
03B1   24A4           01590                         CALL LP0_DIS7;
                      01591 
03B2   0BA1           01592 LOOP37          DECFSZ CONTADOR2,F;
03B3   2BB2           01593                         GOTO LOOP37;
03B4   0BA0           01594                         DECFSZ CONTADOR1,F;
03B5   2BA0           01595                         GOTO FTGRM37;
                      01596                         
03B6   2467           01597                         CALL LLIMPIEZA_PG0;
                      01598 
                      01599 ;---------- Ftgm1 --------- _ _ _ _ _ _ 1
                      01600 
03B7   302D           01601                         MOVLW M;
03B8   00A0           01602                         MOVWF CONTADOR1;
03B9   30FF           01603 FTGRM38         MOVLW N;
03BA   00A1           01604                         MOVWF CONTADOR2;
                      01605 
03BB   3000           01606                         MOVLW NULL;
03BC   2481           01607                         CALL LP0_DIS0;
                      01608 
03BD   3039           01609                         MOVLW CAR_C;
03BE   2486           01610                         CALL LP0_DIS1;
                      01611 
03BF   3079           01612                         MOVLW CAR_E;
03C0   248B           01613                         CALL LP0_DIS2;
                      01614 
03C1   3039           01615                         MOVLW CAR_C;
03C2   2490           01616                         CALL LP0_DIS3;
                      01617 
03C3   306E           01618                         MOVLW CAR_Y;
03C4   2495           01619                         CALL LP0_DIS4;
                      01620 
03C5   3078           01621                         MOVLW CAR_T;
03C6   249A           01622                         CALL LP0_DIS5;
                      01623 
03C7   3000           01624                         MOVLW NULL;
03C8   249F           01625                         CALL LP0_DIS6;
                      01626 
03C9   306F           01627                         MOVLW NUM_9;
03CA   24A4           01628                         CALL LP0_DIS7;
                      01629 
03CB   0BA1           01630 LOOP38          DECFSZ CONTADOR2,F;
03CC   2BCB           01631                         GOTO LOOP38;
03CD   0BA0           01632                         DECFSZ CONTADOR1,F;
03CE   2BB9           01633                         GOTO FTGRM38;
                      01634                         
03CF   2467           01635                         CALL LLIMPIEZA_PG0;
                      01636 
                      01637 ;---------- Ftgm1 --------- _ _ _ _ _ _ 1
                      01638 
03D0   302D           01639                         MOVLW M;
03D1   00A0           01640                         MOVWF CONTADOR1;
MPASM  5.30.01                         TDM 4.ASM   11-21-2023  23:07:44         PAGE 32


LOC  OBJECT CODE     LINE SOURCE TEXT
  VALUE

03D2   30FF           01641 FTGRM39         MOVLW N;
03D3   00A1           01642                         MOVWF CONTADOR2;
                      01643 
03D4   3039           01644                         MOVLW CAR_C;
03D5   2481           01645                         CALL LP0_DIS0;
                      01646 
03D6   3079           01647                         MOVLW CAR_E;
03D7   2486           01648                         CALL LP0_DIS1;
                      01649 
03D8   3039           01650                         MOVLW CAR_C;
03D9   248B           01651                         CALL LP0_DIS2;
                      01652 
03DA   306E           01653                         MOVLW CAR_Y;
03DB   2490           01654                         CALL LP0_DIS3;
                      01655 
03DC   3078           01656                         MOVLW CAR_T;
03DD   2495           01657                         CALL LP0_DIS4;
                      01658 
03DE   3000           01659                         MOVLW NULL;
03DF   249A           01660                         CALL LP0_DIS5;
                      01661 
03E0   306F           01662                         MOVLW NUM_9;
03E1   249F           01663                         CALL LP0_DIS6;
                      01664 
03E2   3000           01665                         MOVLW NULL;
03E3   24A4           01666                         CALL LP0_DIS7;
                      01667 
03E4   0BA1           01668 LOOP39          DECFSZ CONTADOR2,F;
03E5   2BE4           01669                         GOTO LOOP39;
03E6   0BA0           01670                         DECFSZ CONTADOR1,F;
03E7   2BD2           01671                         GOTO FTGRM39;
                      01672                         
03E8   2467           01673                         CALL LLIMPIEZA_PG0;
                      01674 
                      01675 ;---------- Ftgm1 --------- _ _ _ _ _ _ 1
                      01676 
03E9   302D           01677                         MOVLW M;
03EA   00A0           01678                         MOVWF CONTADOR1;
03EB   30FF           01679 FTGRM40         MOVLW N;
03EC   00A1           01680                         MOVWF CONTADOR2;
                      01681 
03ED   3079           01682                         MOVLW CAR_E;
03EE   2481           01683                         CALL LP0_DIS0;
                      01684 
03EF   3039           01685                         MOVLW CAR_C;
03F0   2486           01686                         CALL LP0_DIS1;
                      01687 
03F1   306E           01688                         MOVLW CAR_Y;
03F2   248B           01689                         CALL LP0_DIS2;
                      01690 
03F3   3078           01691                         MOVLW CAR_T;
03F4   2490           01692                         CALL LP0_DIS3;
                      01693 
MPASM  5.30.01                         TDM 4.ASM   11-21-2023  23:07:44         PAGE 33


LOC  OBJECT CODE     LINE SOURCE TEXT
  VALUE

03F5   3000           01694                         MOVLW NULL;
03F6   2495           01695                         CALL LP0_DIS4;
                      01696 
03F7   306F           01697                         MOVLW NUM_9;
03F8   249A           01698                         CALL LP0_DIS5;
                      01699 
03F9   3000           01700                         MOVLW NULL;
03FA   249F           01701                         CALL LP0_DIS6;
                      01702 
03FB   301E           01703                         MOVLW CAR_J;
03FC   24A4           01704                         CALL LP0_DIS7;
                      01705 
03FD   0BA1           01706 LOOP40          DECFSZ CONTADOR2,F;
03FE   2BFD           01707                         GOTO LOOP40;
03FF   0BA0           01708                         DECFSZ CONTADOR1,F;
0400   2BEB           01709                         GOTO FTGRM40;
                      01710                         
0401   2467           01711                         CALL LLIMPIEZA_PG0;
                      01712 
                      01713 ;---------- Ftgm1 --------- _ _ _ _ _ _ 1
                      01714 
0402   302D           01715                         MOVLW M;
0403   00A0           01716                         MOVWF CONTADOR1;
0404   30FF           01717 FTGRM41         MOVLW N;
0405   00A1           01718                         MOVWF CONTADOR2;
                      01719 
0406   3039           01720                         MOVLW CAR_C;
0407   2481           01721                         CALL LP0_DIS0;
                      01722 
0408   306E           01723                         MOVLW CAR_Y;
0409   2486           01724                         CALL LP0_DIS1;
                      01725 
040A   3078           01726                         MOVLW CAR_T;
040B   248B           01727                         CALL LP0_DIS2;
                      01728 
040C   3000           01729                         MOVLW NULL;
040D   2490           01730                         CALL LP0_DIS3;
                      01731 
040E   306F           01732                         MOVLW NUM_9;
040F   2495           01733                         CALL LP0_DIS4;
                      01734 
0410   3000           01735                         MOVLW NULL;
0411   249A           01736                         CALL LP0_DIS5;
                      01737 
0412   301E           01738                         MOVLW CAR_J;
0413   249F           01739                         CALL LP0_DIS6;
                      01740 
0414   303E           01741                         MOVLW CAR_U;
0415   24A4           01742                         CALL LP0_DIS7;
                      01743 
0416   0BA1           01744 LOOP41          DECFSZ CONTADOR2,F;
0417   2C16           01745                         GOTO LOOP41;
0418   0BA0           01746                         DECFSZ CONTADOR1,F;
MPASM  5.30.01                         TDM 4.ASM   11-21-2023  23:07:44         PAGE 34


LOC  OBJECT CODE     LINE SOURCE TEXT
  VALUE

0419   2C04           01747                         GOTO FTGRM41;
                      01748                         
041A   2467           01749                         CALL LLIMPIEZA_PG0;
                      01750 
                      01751 ;---------- Ftgm1 --------- _ _ _ _ _ _ 1
                      01752 
041B   302D           01753                         MOVLW M;
041C   00A0           01754                         MOVWF CONTADOR1;
041D   30FF           01755 FTGRM42         MOVLW N;
041E   00A1           01756                         MOVWF CONTADOR2;
                      01757 
041F   306E           01758                         MOVLW CAR_Y;
0420   2481           01759                         CALL LP0_DIS0;
                      01760 
0421   3078           01761                         MOVLW CAR_T;
0422   2486           01762                         CALL LP0_DIS1;
                      01763 
0423   3000           01764                         MOVLW NULL;
0424   248B           01765                         CALL LP0_DIS2;
                      01766 
0425   306F           01767                         MOVLW NUM_9;
0426   2490           01768                         CALL LP0_DIS3;
                      01769 
0427   3000           01770                         MOVLW NULL;
0428   2495           01771                         CALL LP0_DIS4;
                      01772 
0429   301E           01773                         MOVLW CAR_J;
042A   249A           01774                         CALL LP0_DIS5;
                      01775 
042B   303E           01776                         MOVLW CAR_U;
042C   249F           01777                         CALL LP0_DIS6;
                      01778 
042D   3077           01779                         MOVLW CAR_A;
042E   24A4           01780                         CALL LP0_DIS7;
                      01781 
042F   0BA1           01782 LOOP42          DECFSZ CONTADOR2,F;
0430   2C2F           01783                         GOTO LOOP42;
0431   0BA0           01784                         DECFSZ CONTADOR1,F;
0432   2C1D           01785                         GOTO FTGRM42;
                      01786                         
0433   2467           01787                         CALL LLIMPIEZA_PG0;
                      01788 
                      01789 ;---------- Ftgm1 --------- _ _ _ _ _ _ 1
                      01790 
0434   302D           01791                         MOVLW M;
0435   00A0           01792                         MOVWF CONTADOR1;
0436   30FF           01793 FTGRM43         MOVLW N;
0437   00A1           01794                         MOVWF CONTADOR2;
                      01795 
0438   3078           01796                         MOVLW CAR_T;
0439   2481           01797                         CALL LP0_DIS0;
                      01798 
043A   3000           01799                         MOVLW NULL;
MPASM  5.30.01                         TDM 4.ASM   11-21-2023  23:07:44         PAGE 35


LOC  OBJECT CODE     LINE SOURCE TEXT
  VALUE

043B   2486           01800                         CALL LP0_DIS1;
                      01801 
043C   306F           01802                         MOVLW NUM_9;
043D   248B           01803                         CALL LP0_DIS2;
                      01804 
043E   3000           01805                         MOVLW NULL;
043F   2490           01806                         CALL LP0_DIS3;
                      01807 
0440   301E           01808                         MOVLW CAR_J;
0441   2495           01809                         CALL LP0_DIS4;
                      01810 
0442   303E           01811                         MOVLW CAR_U;
0443   249A           01812                         CALL LP0_DIS5;
                      01813 
0444   3077           01814                         MOVLW CAR_A;
0445   249F           01815                         CALL LP0_DIS6;
                      01816 
0446   3037           01817                         MOVLW CAR_N;
0447   24A4           01818                         CALL LP0_DIS7;
                      01819 
0448   0BA1           01820 LOOP43          DECFSZ CONTADOR2,F;
0449   2C48           01821                         GOTO LOOP43;
044A   0BA0           01822                         DECFSZ CONTADOR1,F;
044B   2C36           01823                         GOTO FTGRM43;
                      01824                         
044C   2467           01825                         CALL LLIMPIEZA_PG0;
                      01826 
                      01827 ;---------- Ftgm1 --------- _ _ _ _ _ _ 1
                      01828 
044D   302D           01829                         MOVLW M;
044E   00A0           01830                         MOVWF CONTADOR1;
044F   30FF           01831 FTGRM44         MOVLW N;
0450   00A1           01832                         MOVWF CONTADOR2;
                      01833 
0451   3000           01834                         MOVLW NULL;
0452   2481           01835                         CALL LP0_DIS0;
                      01836 
0453   306F           01837                         MOVLW NUM_9;
0454   2486           01838                         CALL LP0_DIS1;
                      01839 
0455   3000           01840                         MOVLW NULL;
0456   248B           01841                         CALL LP0_DIS2;
                      01842 
0457   301E           01843                         MOVLW CAR_J;
0458   2490           01844                         CALL LP0_DIS3;
                      01845 
0459   303E           01846                         MOVLW CAR_U;
045A   2495           01847                         CALL LP0_DIS4;
                      01848 
045B   3077           01849                         MOVLW CAR_A;
045C   249A           01850                         CALL LP0_DIS5;
                      01851 
045D   3037           01852                         MOVLW CAR_N;
MPASM  5.30.01                         TDM 4.ASM   11-21-2023  23:07:44         PAGE 36


LOC  OBJECT CODE     LINE SOURCE TEXT
  VALUE

045E   249F           01853                         CALL LP0_DIS6;
                      01854 
045F   3000           01855                         MOVLW NULL;
0460   24A4           01856                         CALL LP0_DIS7;
                      01857 
0461   0BA1           01858 LOOP44          DECFSZ CONTADOR2,F;
0462   2C61           01859                         GOTO LOOP44;
0463   0BA0           01860                         DECFSZ CONTADOR1,F;
0464   2C4F           01861                         GOTO FTGRM44;
                      01862                         
0465   2467           01863                         CALL LLIMPIEZA_PG0;
                      01864 
0466   2CA9           01865                         GOTO PG1;
                      01866 
                      01867 ;--------------------------------------------------------------------------------------------
                      01868 
                      01869                         ;=======================
                      01870                         ;== Limpia displays ====
                      01871                         ;=======================
                      01872                         
0467   1408           01873 LLIMPIEZA_PG0   BSF     PORTD,DIS0;
0468   1488           01874                                 BSF     PORTD,DIS1;
0469   1508           01875                                 BSF     PORTD,DIS2;
046A   1588           01876                                 BSF     PORTD,DIS3;
046B   1608           01877                                 BSF     PORTD,DIS4;
046C   1688           01878                                 BSF     PORTD,DIS5;
046D   1708           01879                                 BSF     PORTD,DIS6;
046E   1788           01880                                 BSF     PORTD,DIS7;
                      01881                         
046F   1006           01882                                 BCF PORTB,A_RB0;
0470   1086           01883                                 BCF PORTB,B_RB1;
0471   1106           01884                                 BCF PORTB,C_RB2;
0472   1186           01885                                 BCF PORTB,D_RB3;
0473   1206           01886                                 BCF PORTB,E_RB4;
0474   1286           01887                                 BCF PORTB,F_RB5;
0475   1306           01888                                 BCF PORTB,G_RB6;
0476   1386           01889                                 BCF PORTB,DP_RB7;
                      01890                         
0477   0008           01891                                 RETURN;
                      01892                         
                      01893 ;---------------------------------------------------------------------------------------------
                      01894                         ; ====================
                      01895                         ; === Retardo Menor ==
                      01896                         ; ====================
0478   3003           01897 LRMN_PG1        MOVLW L;
0479   00A2           01898                         MOVWF CONTADOR3;
047A   307E           01899 LOOPR11         MOVLW K;
047B   00A3           01900                         MOVWF CONTADOR4;
                      01901                         
047C   0BA3           01902 LOOPRB01        DECFSZ CONTADOR4,F;
047D   2C7C           01903                         GOTO LOOPRB01;
047E   0BA2           01904                         DECFSZ CONTADOR3,F;
047F   2C7A           01905                         GOTO LOOPR11;
MPASM  5.30.01                         TDM 4.ASM   11-21-2023  23:07:44         PAGE 37


LOC  OBJECT CODE     LINE SOURCE TEXT
  VALUE

                      01906 
0480   0008           01907                         RETURN;
                      01908 ;---------------------------------------------------------------------------------------------
                      01909                         ;========================
                      01910                         ;=== Pulsos de cambio ===
                      01911                         ;========================
0481   0086           01912 LP0_DIS0        MOVWF PORTB;
0482   1008           01913                         BCF PORTD,DIS0;
0483   2478           01914                         CALL LRMN_PG1;
0484   1408           01915                         BSF PORTD,DIS0;
0485   0008           01916                         RETURN;
                      01917 
0486   0086           01918 LP0_DIS1        MOVWF PORTB;
0487   1088           01919                         BCF PORTD,DIS1;
0488   2478           01920                         CALL LRMN_PG1;
0489   1488           01921                         BSF PORTD,DIS1;
048A   0008           01922                         RETURN;
                      01923 
048B   0086           01924 LP0_DIS2        MOVWF PORTB;
048C   1108           01925                         BCF PORTD,DIS2;
048D   2478           01926                         CALL LRMN_PG1;
048E   1508           01927                         BSF PORTD,DIS2;
048F   0008           01928                         RETURN;
                      01929 
0490   0086           01930 LP0_DIS3        MOVWF PORTB;
0491   1188           01931                         BCF PORTD,DIS3;
0492   2478           01932                         CALL LRMN_PG1;
0493   1588           01933                         BSF PORTD,DIS3;
0494   0008           01934                         RETURN;
                      01935 
0495   0086           01936 LP0_DIS4        MOVWF PORTB;
0496   1208           01937                         BCF PORTD,DIS4;
0497   2478           01938                         CALL LRMN_PG1;
0498   1608           01939                         BSF PORTD,DIS4;
0499   0008           01940                         RETURN;
                      01941 
049A   0086           01942 LP0_DIS5        MOVWF PORTB;
049B   1288           01943                         BCF PORTD,DIS5;
049C   2478           01944                         CALL LRMN_PG1;
049D   1688           01945                         BSF PORTD,DIS5;
049E   0008           01946                         RETURN;
                      01947 
049F   0086           01948 LP0_DIS6        MOVWF PORTB;
04A0   1308           01949                         BCF PORTD,DIS6;
04A1   2478           01950                         CALL LRMN_PG1;
04A2   1708           01951                         BSF PORTD,DIS6;
04A3   0008           01952                         RETURN;
                      01953 
04A4   0086           01954 LP0_DIS7        MOVWF PORTB;
04A5   1388           01955                         BCF PORTD,DIS7;
04A6   2478           01956                         CALL LRMN_PG1;
04A7   1788           01957                         BSF PORTD,DIS7;
04A8   0008           01958                         RETURN;
MPASM  5.30.01                         TDM 4.ASM   11-21-2023  23:07:44         PAGE 38


LOC  OBJECT CODE     LINE SOURCE TEXT
  VALUE

                      01959 
                      01960 ;---------------------------------------------------------------------------------------------
                      01961 
04A9   120A           01962 PG1                     BCF PCLATH,.4;
04AA   158A           01963                         BSF PCLATH,.3;
0800                  01964                         ORG 0X800;
                      01965 
                      01966 
                      01967 ;---------- Ftgm1 --------- _ _ _ _ _ _ 1
                      01968 
0800   302D           01969                         MOVLW M;
0801   00A0           01970                         MOVWF CONTADOR1;
0802   30FF           01971 FTGRM45         MOVLW N;
0803   00A1           01972                         MOVWF CONTADOR2;
                      01973 
0804   306F           01974                         MOVLW NUM_9;
0805   27A0           01975                         CALL P0_DIS0;
                      01976 
0806   3000           01977                         MOVLW NULL;
0807   27A5           01978                         CALL P0_DIS1;
                      01979 
0808   301E           01980                         MOVLW CAR_J;
0809   27AA           01981                         CALL P0_DIS2;
                      01982 
080A   303E           01983                         MOVLW CAR_U;
080B   27AF           01984                         CALL P0_DIS3;
                      01985 
080C   3077           01986                         MOVLW CAR_A;
080D   27B4           01987                         CALL P0_DIS4;
                      01988 
080E   3037           01989                         MOVLW CAR_N;
080F   27B9           01990                         CALL P0_DIS5;
                      01991 
0810   3000           01992                         MOVLW NULL;
0811   27BE           01993                         CALL P0_DIS6;
                      01994 
0812   305E           01995                         MOVLW CAR_D;
0813   27C3           01996                         CALL P0_DIS7;
                      01997 
0814   0BA1           01998 LOOP45          DECFSZ CONTADOR2,F;
0815   2814           01999                         GOTO LOOP45;
0816   0BA0           02000                         DECFSZ CONTADOR1,F;
0817   2802           02001                         GOTO FTGRM45;
                      02002                         
0818   2786           02003                         CALL LIMPIEZA_PG0;
                      02004 
                      02005 ;---------- Ftgm1 --------- _ _ _ _ _ _ 1
                      02006 
0819   302D           02007                         MOVLW M;
081A   00A0           02008                         MOVWF CONTADOR1;
081B   30FF           02009 FTGRM46         MOVLW N;
081C   00A1           02010                         MOVWF CONTADOR2;
                      02011 
MPASM  5.30.01                         TDM 4.ASM   11-21-2023  23:07:44         PAGE 39


LOC  OBJECT CODE     LINE SOURCE TEXT
  VALUE

081D   3000           02012                         MOVLW NULL;
081E   27A0           02013                         CALL P0_DIS0;
                      02014 
081F   301E           02015                         MOVLW CAR_J;
0820   27A5           02016                         CALL P0_DIS1;
                      02017 
0821   303E           02018                         MOVLW CAR_U;
0822   27AA           02019                         CALL P0_DIS2;
                      02020 
0823   3077           02021                         MOVLW CAR_A;
0824   27AF           02022                         CALL P0_DIS3;
                      02023 
0825   3037           02024                         MOVLW CAR_N;
0826   27B4           02025                         CALL P0_DIS4;
                      02026 
0827   3000           02027                         MOVLW NULL;
0828   27B9           02028                         CALL P0_DIS5;
                      02029 
0829   305E           02030                         MOVLW CAR_D;
082A   27BE           02031                         CALL P0_DIS6;
                      02032 
082B   3079           02033                         MOVLW CAR_E;
082C   27C3           02034                         CALL P0_DIS7;
                      02035 
082D   0BA1           02036 LOOP46          DECFSZ CONTADOR2,F;
082E   282D           02037                         GOTO LOOP46;
082F   0BA0           02038                         DECFSZ CONTADOR1,F;
0830   281B           02039                         GOTO FTGRM46;
                      02040                         
0831   2786           02041                         CALL LIMPIEZA_PG0;
                      02042 
                      02043 ;---------- Ftgm1 --------- _ _ _ _ _ _ 1
                      02044 
0832   302D           02045                         MOVLW M;
0833   00A0           02046                         MOVWF CONTADOR1;
0834   30FF           02047 FTGRM47         MOVLW N;
0835   00A1           02048                         MOVWF CONTADOR2;
                      02049 
0836   301E           02050                         MOVLW CAR_J;
0837   27A0           02051                         CALL P0_DIS0;
                      02052 
0838   303E           02053                         MOVLW CAR_U;
0839   27A5           02054                         CALL P0_DIS1;
                      02055 
083A   3077           02056                         MOVLW CAR_A;
083B   27AA           02057                         CALL P0_DIS2;
                      02058 
083C   3037           02059                         MOVLW CAR_N;
083D   27AF           02060                         CALL P0_DIS3;
                      02061 
083E   3000           02062                         MOVLW NULL;
083F   27B4           02063                         CALL P0_DIS4;
                      02064 
MPASM  5.30.01                         TDM 4.ASM   11-21-2023  23:07:44         PAGE 40


LOC  OBJECT CODE     LINE SOURCE TEXT
  VALUE

0840   305E           02065                         MOVLW CAR_D;
0841   27B9           02066                         CALL P0_DIS5;
                      02067 
0842   3079           02068                         MOVLW CAR_E;
0843   27BE           02069                         CALL P0_DIS6;
                      02070 
0844   3000           02071                         MOVLW NULL;
0845   27C3           02072                         CALL P0_DIS7;
                      02073 
0846   0BA1           02074 LOOP47          DECFSZ CONTADOR2,F;
0847   2846           02075                         GOTO LOOP47;
0848   0BA0           02076                         DECFSZ CONTADOR1,F;
0849   2834           02077                         GOTO FTGRM47;
                      02078                         
084A   2786           02079                         CALL LIMPIEZA_PG0;
                      02080 
                      02081 ;---------- Ftgm1 --------- _ _ _ _ _ _ 1
                      02082 
084B   302D           02083                         MOVLW M;
084C   00A0           02084                         MOVWF CONTADOR1;
084D   30FF           02085 FTGRM48         MOVLW N;
084E   00A1           02086                         MOVWF CONTADOR2;
                      02087 
084F   303E           02088                         MOVLW CAR_U;
0850   27A0           02089                         CALL P0_DIS0;
                      02090 
0851   3077           02091                         MOVLW CAR_A;
0852   27A5           02092                         CALL P0_DIS1;
                      02093 
0853   3037           02094                         MOVLW CAR_N;
0854   27AA           02095                         CALL P0_DIS2;
                      02096 
0855   3000           02097                         MOVLW NULL;
0856   27AF           02098                         CALL P0_DIS3;
                      02099 
0857   305E           02100                         MOVLW CAR_D;
0858   27B4           02101                         CALL P0_DIS4;
                      02102 
0859   3079           02103                         MOVLW CAR_E;
085A   27B9           02104                         CALL P0_DIS5;
                      02105 
085B   3000           02106                         MOVLW NULL;
085C   27BE           02107                         CALL P0_DIS6;
                      02108 
085D   305E           02109                         MOVLW CAR_D;
085E   27C3           02110                         CALL P0_DIS7;
                      02111 
085F   0BA1           02112 LOOP48          DECFSZ CONTADOR2,F;
0860   285F           02113                         GOTO LOOP48;
0861   0BA0           02114                         DECFSZ CONTADOR1,F;
0862   284D           02115                         GOTO FTGRM48;
                      02116                         
0863   2786           02117                         CALL LIMPIEZA_PG0;
MPASM  5.30.01                         TDM 4.ASM   11-21-2023  23:07:44         PAGE 41


LOC  OBJECT CODE     LINE SOURCE TEXT
  VALUE

                      02118 
                      02119                 
                      02120 ;---------- Ftgm1 --------- _ _ _ _ _ _ 1
                      02121 
0864   302D           02122                         MOVLW M;
0865   00A0           02123                         MOVWF CONTADOR1;
0866   30FF           02124 FTGRM49         MOVLW N;
0867   00A1           02125                         MOVWF CONTADOR2;
                      02126 
0868   3077           02127                         MOVLW CAR_A;
0869   27A0           02128                         CALL P0_DIS0;
                      02129 
086A   3037           02130                         MOVLW CAR_N;
086B   27A5           02131                         CALL P0_DIS1;
                      02132 
086C   3000           02133                         MOVLW NULL;
086D   27AA           02134                         CALL P0_DIS2;
                      02135 
086E   305E           02136                         MOVLW CAR_D;
086F   27AF           02137                         CALL P0_DIS3;
                      02138 
0870   3079           02139                         MOVLW CAR_E;
0871   27B4           02140                         CALL P0_DIS4;
                      02141 
0872   3000           02142                         MOVLW NULL;
0873   27B9           02143                         CALL P0_DIS5;
                      02144 
0874   305E           02145                         MOVLW CAR_D;
0875   27BE           02146                         CALL P0_DIS6;
                      02147 
0876   3006           02148                         MOVLW NUM_1;
0877   27C3           02149                         CALL P0_DIS7;
                      02150 
0878   0BA1           02151 LOOP49          DECFSZ CONTADOR2,F;
0879   2878           02152                         GOTO LOOP49;
087A   0BA0           02153                         DECFSZ CONTADOR1,F;
087B   2866           02154                         GOTO FTGRM49;
                      02155                         
087C   2786           02156                         CALL LIMPIEZA_PG0;
                      02157 
                      02158 ;---------- Ftgm1 --------- _ _ _ _ _ _ 1
                      02159 
087D   302D           02160                         MOVLW M;
087E   00A0           02161                         MOVWF CONTADOR1;
087F   30FF           02162 FTGRM50         MOVLW N;
0880   00A1           02163                         MOVWF CONTADOR2;
                      02164 
0881   3037           02165                         MOVLW CAR_N;
0882   27A0           02166                         CALL P0_DIS0;
                      02167 
0883   3000           02168                         MOVLW NULL;
0884   27A5           02169                         CALL P0_DIS1;
                      02170 
MPASM  5.30.01                         TDM 4.ASM   11-21-2023  23:07:44         PAGE 42


LOC  OBJECT CODE     LINE SOURCE TEXT
  VALUE

0885   305E           02171                         MOVLW CAR_D;
0886   27AA           02172                         CALL P0_DIS2;
                      02173 
0887   3079           02174                         MOVLW CAR_E;
0888   27AF           02175                         CALL P0_DIS3;
                      02176 
0889   3000           02177                         MOVLW NULL;
088A   27B4           02178                         CALL P0_DIS4;
                      02179 
088B   305E           02180                         MOVLW CAR_D;
088C   27B9           02181                         CALL P0_DIS5;
                      02182 
088D   3006           02183                         MOVLW NUM_1;
088E   27BE           02184                         CALL P0_DIS6;
                      02185 
088F   305C           02186                         MOVLW CAR_O;
0890   27C3           02187                         CALL P0_DIS7;
                      02188 
0891   0BA1           02189 LOOP50          DECFSZ CONTADOR2,F;
0892   2891           02190                         GOTO LOOP50;
0893   0BA0           02191                         DECFSZ CONTADOR1,F;
0894   287F           02192                         GOTO FTGRM50;
                      02193                         
0895   2786           02194                         CALL LIMPIEZA_PG0;
                      02195 
                      02196 ;---------- Ftgm1 --------- _ _ _ _ _ _ 1
                      02197 
0896   302D           02198                         MOVLW M;
0897   00A0           02199                         MOVWF CONTADOR1;
0898   30FF           02200 FTGRM51         MOVLW N;
0899   00A1           02201                         MOVWF CONTADOR2;
                      02202 
089A   3000           02203                         MOVLW NULL;
089B   27A0           02204                         CALL P0_DIS0;
                      02205 
089C   305E           02206                         MOVLW CAR_D;
089D   27A5           02207                         CALL P0_DIS1;
                      02208 
089E   3079           02209                         MOVLW CAR_E;
089F   27AA           02210                         CALL P0_DIS2;
                      02211 
08A0   3000           02212                         MOVLW NULL;
08A1   27AF           02213                         CALL P0_DIS3;
                      02214 
08A2   305E           02215                         MOVLW CAR_D;
08A3   27B4           02216                         CALL P0_DIS4;
                      02217 
08A4   3006           02218                         MOVLW NUM_1;
08A5   27B9           02219                         CALL P0_DIS5;
                      02220 
08A6   305C           02221                         MOVLW CAR_O;
08A7   27BE           02222                         CALL P0_DIS6;
                      02223 
MPASM  5.30.01                         TDM 4.ASM   11-21-2023  23:07:44         PAGE 43


LOC  OBJECT CODE     LINE SOURCE TEXT
  VALUE

08A8   306D           02224                         MOVLW NUM_5;
08A9   27C3           02225                         CALL P0_DIS7;
                      02226 
08AA   0BA1           02227 LOOP51          DECFSZ CONTADOR2,F;
08AB   28AA           02228                         GOTO LOOP51;
08AC   0BA0           02229                         DECFSZ CONTADOR1,F;
08AD   2898           02230                         GOTO FTGRM51;
                      02231                         
08AE   2786           02232                         CALL LIMPIEZA_PG0;
                      02233 
                      02234 ;---------- Ftgm1 --------- _ _ _ _ _ _ 1
                      02235 
08AF   302D           02236                         MOVLW M;
08B0   00A0           02237                         MOVWF CONTADOR1;
08B1   30FF           02238 FTGRM52         MOVLW N;
08B2   00A1           02239                         MOVWF CONTADOR2;
                      02240 
08B3   305E           02241                         MOVLW CAR_D;
08B4   27A0           02242                         CALL P0_DIS0;
                      02243 
08B5   3079           02244                         MOVLW CAR_E;
08B6   27A5           02245                         CALL P0_DIS1;
                      02246 
08B7   3000           02247                         MOVLW NULL;
08B8   27AA           02248                         CALL P0_DIS2;
                      02249 
08B9   305E           02250                         MOVLW CAR_D;
08BA   27AF           02251                         CALL P0_DIS3;
                      02252 
08BB   3006           02253                         MOVLW NUM_1;
08BC   27B4           02254                         CALL P0_DIS4;
                      02255 
08BD   305C           02256                         MOVLW CAR_O;
08BE   27B9           02257                         CALL P0_DIS5;
                      02258 
08BF   306D           02259                         MOVLW NUM_5;
08C0   27BE           02260                         CALL P0_DIS6;
                      02261 
08C1   3000           02262                         MOVLW NULL;
08C2   27C3           02263                         CALL P0_DIS7;
                      02264 
08C3   0BA1           02265 LOOP52          DECFSZ CONTADOR2,F;
08C4   28C3           02266                         GOTO LOOP52;
08C5   0BA0           02267                         DECFSZ CONTADOR1,F;
08C6   28B1           02268                         GOTO FTGRM52;
                      02269                         
08C7   2786           02270                         CALL LIMPIEZA_PG0;
                      02271 
                      02272 ;---------- Ftgm1 --------- _ _ _ _ _ _ 1
                      02273 
08C8   302D           02274                         MOVLW M;
08C9   00A0           02275                         MOVWF CONTADOR1;
08CA   30FF           02276 FTGRM53         MOVLW N;
MPASM  5.30.01                         TDM 4.ASM   11-21-2023  23:07:44         PAGE 44


LOC  OBJECT CODE     LINE SOURCE TEXT
  VALUE

08CB   00A1           02277                         MOVWF CONTADOR2;
                      02278 
08CC   3079           02279                         MOVLW CAR_E;
08CD   27A0           02280                         CALL P0_DIS0;
                      02281 
08CE   3000           02282                         MOVLW NULL;
08CF   27A5           02283                         CALL P0_DIS1;
                      02284 
08D0   305E           02285                         MOVLW CAR_D;
08D1   27AA           02286                         CALL P0_DIS2;
                      02287 
08D2   3006           02288                         MOVLW NUM_1;
08D3   27AF           02289                         CALL P0_DIS3;
                      02290 
08D4   305C           02291                         MOVLW CAR_O;
08D5   27B4           02292                         CALL P0_DIS4;
                      02293 
08D6   306D           02294                         MOVLW NUM_5;
08D7   27B9           02295                         CALL P0_DIS5;
                      02296 
08D8   3000           02297                         MOVLW NULL;
08D9   27BE           02298                         CALL P0_DIS6;
                      02299 
08DA   307C           02300                         MOVLW CAR_B;
08DB   27C3           02301                         CALL P0_DIS7;
                      02302 
08DC   0BA1           02303 LOOP53          DECFSZ CONTADOR2,F;
08DD   28DC           02304                         GOTO LOOP53;
08DE   0BA0           02305                         DECFSZ CONTADOR1,F;
08DF   28CA           02306                         GOTO FTGRM53;
                      02307                         
08E0   2786           02308                         CALL LIMPIEZA_PG0;
                      02309 
                      02310 ;---------- Ftgm1 --------- _ _ _ _ _ _ 1
                      02311 
08E1   302D           02312                         MOVLW M;
08E2   00A0           02313                         MOVWF CONTADOR1;
08E3   30FF           02314 FTGRM54         MOVLW N;
08E4   00A1           02315                         MOVWF CONTADOR2;
                      02316 
08E5   3000           02317                         MOVLW NULL;
08E6   27A0           02318                         CALL P0_DIS0;
                      02319 
08E7   305E           02320                         MOVLW CAR_D;
08E8   27A5           02321                         CALL P0_DIS1;
                      02322 
08E9   3006           02323                         MOVLW NUM_1;
08EA   27AA           02324                         CALL P0_DIS2;
                      02325 
08EB   305C           02326                         MOVLW CAR_O;
08EC   27AF           02327                         CALL P0_DIS3;
                      02328 
08ED   306D           02329                         MOVLW NUM_5;
MPASM  5.30.01                         TDM 4.ASM   11-21-2023  23:07:44         PAGE 45


LOC  OBJECT CODE     LINE SOURCE TEXT
  VALUE

08EE   27B4           02330                         CALL P0_DIS4;
                      02331 
08EF   3000           02332                         MOVLW NULL;
08F0   27B9           02333                         CALL P0_DIS5;
                      02334 
08F1   307C           02335                         MOVLW CAR_B;
08F2   27BE           02336                         CALL P0_DIS6;
                      02337 
08F3   3077           02338                         MOVLW CAR_A;
08F4   27C3           02339                         CALL P0_DIS7;
                      02340 
08F5   0BA1           02341 LOOP54          DECFSZ CONTADOR2,F;
08F6   28F5           02342                         GOTO LOOP54;
08F7   0BA0           02343                         DECFSZ CONTADOR1,F;
08F8   28E3           02344                         GOTO FTGRM54;
                      02345                         
08F9   2786           02346                         CALL LIMPIEZA_PG0;
                      02347 
                      02348 ;---------- Ftgm1 --------- _ _ _ _ _ _ 1
                      02349 
08FA   302D           02350                         MOVLW M;
08FB   00A0           02351                         MOVWF CONTADOR1;
08FC   30FF           02352 FTGRM55         MOVLW N;
08FD   00A1           02353                         MOVWF CONTADOR2;
                      02354 
08FE   305E           02355                         MOVLW CAR_D;
08FF   27A0           02356                         CALL P0_DIS0;
                      02357 
0900   3006           02358                         MOVLW NUM_1;
0901   27A5           02359                         CALL P0_DIS1;
                      02360 
0902   305C           02361                         MOVLW CAR_O;
0903   27AA           02362                         CALL P0_DIS2;
                      02363 
0904   306D           02364                         MOVLW NUM_5;
0905   27AF           02365                         CALL P0_DIS3;
                      02366 
0906   3000           02367                         MOVLW NULL;
0907   27B4           02368                         CALL P0_DIS4;
                      02369 
0908   307C           02370                         MOVLW CAR_B;
0909   27B9           02371                         CALL P0_DIS5;
                      02372 
090A   3077           02373                         MOVLW CAR_A;
090B   27BE           02374                         CALL P0_DIS6;
                      02375 
090C   3078           02376                         MOVLW CAR_T;
090D   27C3           02377                         CALL P0_DIS7;
                      02378 
090E   0BA1           02379 LOOP55          DECFSZ CONTADOR2,F;
090F   290E           02380                         GOTO LOOP55;
0910   0BA0           02381                         DECFSZ CONTADOR1,F;
0911   28FC           02382                         GOTO FTGRM55;
MPASM  5.30.01                         TDM 4.ASM   11-21-2023  23:07:44         PAGE 46


LOC  OBJECT CODE     LINE SOURCE TEXT
  VALUE

                      02383                         
0912   2786           02384                         CALL LIMPIEZA_PG0;
                      02385 
                      02386 ;---------- Ftgm1 --------- _ _ _ _ _ _ 1
                      02387 
0913   302D           02388                         MOVLW M;
0914   00A0           02389                         MOVWF CONTADOR1;
0915   30FF           02390 FTGRM56         MOVLW N;
0916   00A1           02391                         MOVWF CONTADOR2;
                      02392 
0917   3006           02393                         MOVLW NUM_1;
0918   27A0           02394                         CALL P0_DIS0;
                      02395 
0919   305C           02396                         MOVLW CAR_O;
091A   27A5           02397                         CALL P0_DIS1;
                      02398 
091B   306D           02399                         MOVLW NUM_5;
091C   27AA           02400                         CALL P0_DIS2;
                      02401 
091D   3000           02402                         MOVLW NULL;
091E   27AF           02403                         CALL P0_DIS3;
                      02404 
091F   307C           02405                         MOVLW CAR_B;
0920   27B4           02406                         CALL P0_DIS4;
                      02407 
0921   3077           02408                         MOVLW CAR_A;
0922   27B9           02409                         CALL P0_DIS5;
                      02410 
0923   3078           02411                         MOVLW CAR_T;
0924   27BE           02412                         CALL P0_DIS6;
                      02413 
0925   3006           02414                         MOVLW NUM_1;
0926   27C3           02415                         CALL P0_DIS7;
                      02416 
0927   0BA1           02417 LOOP56          DECFSZ CONTADOR2,F;
0928   2927           02418                         GOTO LOOP56;
0929   0BA0           02419                         DECFSZ CONTADOR1,F;
092A   2915           02420                         GOTO FTGRM56;
                      02421                         
092B   2786           02422                         CALL LIMPIEZA_PG0;
                      02423 
                      02424 ;---------- Ftgm1 --------- _ _ _ _ _ _ 1
                      02425 
092C   302D           02426                         MOVLW M;
092D   00A0           02427                         MOVWF CONTADOR1;
092E   30FF           02428 FTGRM57         MOVLW N;
092F   00A1           02429                         MOVWF CONTADOR2;
                      02430 
0930   305C           02431                         MOVLW CAR_O;
0931   27A0           02432                         CALL P0_DIS0;
                      02433 
0932   306D           02434                         MOVLW NUM_5;
0933   27A5           02435                         CALL P0_DIS1;
MPASM  5.30.01                         TDM 4.ASM   11-21-2023  23:07:44         PAGE 47


LOC  OBJECT CODE     LINE SOURCE TEXT
  VALUE

                      02436 
0934   3000           02437                         MOVLW NULL;
0935   27AA           02438                         CALL P0_DIS2;
                      02439 
0936   307C           02440                         MOVLW CAR_B;
0937   27AF           02441                         CALL P0_DIS3;
                      02442 
0938   3077           02443                         MOVLW CAR_A;
0939   27B4           02444                         CALL P0_DIS4;
                      02445 
093A   3078           02446                         MOVLW CAR_T;
093B   27B9           02447                         CALL P0_DIS5;
                      02448 
093C   3006           02449                         MOVLW NUM_1;
093D   27BE           02450                         CALL P0_DIS6;
                      02451 
093E   305B           02452                         MOVLW NUM_2;
093F   27C3           02453                         CALL P0_DIS7;
                      02454 
0940   0BA1           02455 LOOP57          DECFSZ CONTADOR2,F;
0941   2940           02456                         GOTO LOOP57;
0942   0BA0           02457                         DECFSZ CONTADOR1,F;
0943   292E           02458                         GOTO FTGRM57;
                      02459                         
0944   2786           02460                         CALL LIMPIEZA_PG0;
                      02461 
                      02462 ;---------- Ftgm1 --------- _ _ _ _ _ _ 1
                      02463 
0945   302D           02464                         MOVLW M;
0946   00A0           02465                         MOVWF CONTADOR1;
0947   30FF           02466 FTGRM58         MOVLW N;
0948   00A1           02467                         MOVWF CONTADOR2;
                      02468 
0949   306D           02469                         MOVLW NUM_5;
094A   27A0           02470                         CALL P0_DIS0;
                      02471 
094B   3000           02472                         MOVLW NULL;
094C   27A5           02473                         CALL P0_DIS1;
                      02474 
094D   307C           02475                         MOVLW CAR_B;
094E   27AA           02476                         CALL P0_DIS2;
                      02477 
094F   3077           02478                         MOVLW CAR_A;
0950   27AF           02479                         CALL P0_DIS3;
                      02480 
0951   3078           02481                         MOVLW CAR_T;
0952   27B4           02482                         CALL P0_DIS4;
                      02483 
0953   3006           02484                         MOVLW NUM_1;
0954   27B9           02485                         CALL P0_DIS5;
                      02486 
0955   305B           02487                         MOVLW NUM_2;
0956   27BE           02488                         CALL P0_DIS6;
MPASM  5.30.01                         TDM 4.ASM   11-21-2023  23:07:44         PAGE 48


LOC  OBJECT CODE     LINE SOURCE TEXT
  VALUE

                      02489 
0957   3000           02490                         MOVLW NULL;
0958   27C3           02491                         CALL P0_DIS7;
                      02492 
0959   0BA1           02493 LOOP58          DECFSZ CONTADOR2,F;
095A   2959           02494                         GOTO LOOP58;
095B   0BA0           02495                         DECFSZ CONTADOR1,F;
095C   2947           02496                         GOTO FTGRM58;
                      02497                         
095D   2786           02498                         CALL LIMPIEZA_PG0;
                      02499 
                      02500 ;---------- Ftgm1 --------- _ _ _ _ _ _ 1
                      02501 
095E   302D           02502                         MOVLW M;
095F   00A0           02503                         MOVWF CONTADOR1;
0960   30FF           02504 FTGRM59         MOVLW N;
0961   00A1           02505                         MOVWF CONTADOR2;
                      02506 
0962   3000           02507                         MOVLW NULL;
0963   27A0           02508                         CALL P0_DIS0;
                      02509 
0964   307C           02510                         MOVLW CAR_B;
0965   27A5           02511                         CALL P0_DIS1;
                      02512 
0966   3077           02513                         MOVLW CAR_A;
0967   27AA           02514                         CALL P0_DIS2;
                      02515 
0968   3078           02516                         MOVLW CAR_T;
0969   27AF           02517                         CALL P0_DIS3;
                      02518 
096A   3006           02519                         MOVLW NUM_1;
096B   27B4           02520                         CALL P0_DIS4;
                      02521 
096C   305B           02522                         MOVLW NUM_2;
096D   27B9           02523                         CALL P0_DIS5;
                      02524 
096E   3000           02525                         MOVLW NULL;
096F   27BE           02526                         CALL P0_DIS6;
                      02527 
0970   3073           02528                         MOVLW CAR_P;
0971   27C3           02529                         CALL P0_DIS7;
                      02530 
0972   0BA1           02531 LOOP59          DECFSZ CONTADOR2,F;
0973   2972           02532                         GOTO LOOP59;
0974   0BA0           02533                         DECFSZ CONTADOR1,F;
0975   2960           02534                         GOTO FTGRM59;
                      02535                         
0976   2786           02536                         CALL LIMPIEZA_PG0;
                      02537 
                      02538 ;---------- Ftgm1 --------- _ _ _ _ _ _ 1
                      02539 
0977   302D           02540                         MOVLW M;
0978   00A0           02541                         MOVWF CONTADOR1;
MPASM  5.30.01                         TDM 4.ASM   11-21-2023  23:07:44         PAGE 49


LOC  OBJECT CODE     LINE SOURCE TEXT
  VALUE

0979   30FF           02542 FTGRM60         MOVLW N;
097A   00A1           02543                         MOVWF CONTADOR2;
                      02544 
097B   307C           02545                         MOVLW CAR_B;
097C   27A0           02546                         CALL P0_DIS0;
                      02547 
097D   3077           02548                         MOVLW CAR_A;
097E   27A5           02549                         CALL P0_DIS1;
                      02550 
097F   3078           02551                         MOVLW CAR_T;
0980   27AA           02552                         CALL P0_DIS2;
                      02553 
0981   3006           02554                         MOVLW NUM_1;
0982   27AF           02555                         CALL P0_DIS3;
                      02556 
0983   305B           02557                         MOVLW NUM_2;
0984   27B4           02558                         CALL P0_DIS4;
                      02559 
0985   3000           02560                         MOVLW NULL;
0986   27B9           02561                         CALL P0_DIS5;
                      02562 
0987   3073           02563                         MOVLW CAR_P;
0988   27BE           02564                         CALL P0_DIS6;
                      02565 
0989   3050           02566                         MOVLW CAR_R;
098A   27C3           02567                         CALL P0_DIS7;
                      02568 
098B   0BA1           02569 LOOP60          DECFSZ CONTADOR2,F;
098C   298B           02570                         GOTO LOOP60;
098D   0BA0           02571                         DECFSZ CONTADOR1,F;
098E   2979           02572                         GOTO FTGRM60;
                      02573                         
098F   2786           02574                         CALL LIMPIEZA_PG0;
                      02575 
                      02576 ;---------- Ftgm1 --------- _ _ _ _ _ _ 1
                      02577 
0990   302D           02578                         MOVLW M;
0991   00A0           02579                         MOVWF CONTADOR1;
0992   30FF           02580 FTGRM61         MOVLW N;
0993   00A1           02581                         MOVWF CONTADOR2;
                      02582 
0994   3077           02583                         MOVLW CAR_A;
0995   27A0           02584                         CALL P0_DIS0;
                      02585 
0996   3078           02586                         MOVLW CAR_T;
0997   27A5           02587                         CALL P0_DIS1;
                      02588 
0998   3006           02589                         MOVLW NUM_1;
0999   27AA           02590                         CALL P0_DIS2;
                      02591 
099A   305B           02592                         MOVLW NUM_2;
099B   27AF           02593                         CALL P0_DIS3;
                      02594 
MPASM  5.30.01                         TDM 4.ASM   11-21-2023  23:07:44         PAGE 50


LOC  OBJECT CODE     LINE SOURCE TEXT
  VALUE

099C   3000           02595                         MOVLW NULL;
099D   27B4           02596                         CALL P0_DIS4;
                      02597 
099E   3073           02598                         MOVLW CAR_P;
099F   27B9           02599                         CALL P0_DIS5;
                      02600 
09A0   3050           02601                         MOVLW CAR_R;
09A1   27BE           02602                         CALL P0_DIS6;
                      02603 
09A2   3077           02604                         MOVLW CAR_A;
09A3   27C3           02605                         CALL P0_DIS7;
                      02606 
09A4   0BA1           02607 LOOP61          DECFSZ CONTADOR2,F;
09A5   29A4           02608                         GOTO LOOP61;
09A6   0BA0           02609                         DECFSZ CONTADOR1,F;
09A7   2992           02610                         GOTO FTGRM61;
                      02611                         
09A8   2786           02612                         CALL LIMPIEZA_PG0;
                      02613 
                      02614 ;---------- Ftgm1 --------- _ _ _ _ _ _ 1
                      02615 
09A9   302D           02616                         MOVLW M;
09AA   00A0           02617                         MOVWF CONTADOR1;
09AB   30FF           02618 FTGRM62         MOVLW N;
09AC   00A1           02619                         MOVWF CONTADOR2;
                      02620 
09AD   3078           02621                         MOVLW CAR_T;
09AE   27A0           02622                         CALL P0_DIS0;
                      02623 
09AF   3006           02624                         MOVLW NUM_1;
09B0   27A5           02625                         CALL P0_DIS1;
                      02626 
09B1   305B           02627                         MOVLW NUM_2;
09B2   27AA           02628                         CALL P0_DIS2;
                      02629 
09B3   3000           02630                         MOVLW NULL;
09B4   27AF           02631                         CALL P0_DIS3;
                      02632 
09B5   3073           02633                         MOVLW CAR_P;
09B6   27B4           02634                         CALL P0_DIS4;
                      02635 
09B7   3050           02636                         MOVLW CAR_R;
09B8   27B9           02637                         CALL P0_DIS5;
                      02638 
09B9   3077           02639                         MOVLW CAR_A;
09BA   27BE           02640                         CALL P0_DIS6;
                      02641 
09BB   3058           02642                         MOVLW CAR_CC;
09BC   27C3           02643                         CALL P0_DIS7;
                      02644 
09BD   0BA1           02645 LOOP62          DECFSZ CONTADOR2,F;
09BE   29BD           02646                         GOTO LOOP62;
09BF   0BA0           02647                         DECFSZ CONTADOR1,F;
MPASM  5.30.01                         TDM 4.ASM   11-21-2023  23:07:44         PAGE 51


LOC  OBJECT CODE     LINE SOURCE TEXT
  VALUE

09C0   29AB           02648                         GOTO FTGRM62;
                      02649                         
09C1   2786           02650                         CALL LIMPIEZA_PG0;
                      02651 
                      02652 ;---------- Ftgm1 --------- _ _ _ _ _ _ 1
                      02653 
09C2   302D           02654                         MOVLW M;
09C3   00A0           02655                         MOVWF CONTADOR1;
09C4   30FF           02656 FTGRM63         MOVLW N;
09C5   00A1           02657                         MOVWF CONTADOR2;
                      02658 
09C6   3006           02659                         MOVLW NUM_1;
09C7   27A0           02660                         CALL P0_DIS0;
                      02661 
09C8   305B           02662                         MOVLW NUM_2;
09C9   27A5           02663                         CALL P0_DIS1;
                      02664 
09CA   3000           02665                         MOVLW NULL;
09CB   27AA           02666                         CALL P0_DIS2;
                      02667 
09CC   3073           02668                         MOVLW CAR_P;
09CD   27AF           02669                         CALL P0_DIS3;
                      02670 
09CE   3050           02671                         MOVLW CAR_R;
09CF   27B4           02672                         CALL P0_DIS4;
                      02673 
09D0   3077           02674                         MOVLW CAR_A;
09D1   27B9           02675                         CALL P0_DIS5;
                      02676 
09D2   3058           02677                         MOVLW CAR_CC;
09D3   27BE           02678                         CALL P0_DIS6;
                      02679 
09D4   3078           02680                         MOVLW CAR_T;
09D5   27C3           02681                         CALL P0_DIS7;
                      02682 
09D6   0BA1           02683 LOOP63          DECFSZ CONTADOR2,F;
09D7   29D6           02684                         GOTO LOOP63;
09D8   0BA0           02685                         DECFSZ CONTADOR1,F;
09D9   29C4           02686                         GOTO FTGRM63;
                      02687                         
09DA   2786           02688                         CALL LIMPIEZA_PG0;
                      02689 
                      02690 ;---------- Ftgm1 --------- _ _ _ _ _ _ 1
                      02691 
09DB   302D           02692                         MOVLW M;
09DC   00A0           02693                         MOVWF CONTADOR1;
09DD   30FF           02694 FTGRM64         MOVLW N;
09DE   00A1           02695                         MOVWF CONTADOR2;
                      02696 
09DF   305B           02697                         MOVLW NUM_2;
09E0   27A0           02698                         CALL P0_DIS0;
                      02699 
09E1   3000           02700                         MOVLW NULL;
MPASM  5.30.01                         TDM 4.ASM   11-21-2023  23:07:44         PAGE 52


LOC  OBJECT CODE     LINE SOURCE TEXT
  VALUE

09E2   27A5           02701                         CALL P0_DIS1;
                      02702 
09E3   3073           02703                         MOVLW CAR_P;
09E4   27AA           02704                         CALL P0_DIS2;
                      02705 
09E5   3050           02706                         MOVLW CAR_R;
09E6   27AF           02707                         CALL P0_DIS3;
                      02708 
09E7   3077           02709                         MOVLW CAR_A;
09E8   27B4           02710                         CALL P0_DIS4;
                      02711 
09E9   3058           02712                         MOVLW CAR_CC;
09EA   27B9           02713                         CALL P0_DIS5;
                      02714 
09EB   3078           02715                         MOVLW CAR_T;
09EC   27BE           02716                         CALL P0_DIS6;
                      02717 
09ED   3006           02718                         MOVLW NUM_1;
09EE   27C3           02719                         CALL P0_DIS7;
                      02720 
09EF   0BA1           02721 LOOP64          DECFSZ CONTADOR2,F;
09F0   29EF           02722                         GOTO LOOP64;
09F1   0BA0           02723                         DECFSZ CONTADOR1,F;
09F2   29DD           02724                         GOTO FTGRM64;
                      02725                         
09F3   2786           02726                         CALL LIMPIEZA_PG0;
                      02727 
                      02728 ;---------- Ftgm1 --------- _ _ _ _ _ _ 1
                      02729 
09F4   302D           02730                         MOVLW M;
09F5   00A0           02731                         MOVWF CONTADOR1;
09F6   30FF           02732 FTGRM65         MOVLW N;
09F7   00A1           02733                         MOVWF CONTADOR2;
                      02734 
09F8   3000           02735                         MOVLW NULL;
09F9   27A0           02736                         CALL P0_DIS0;
                      02737 
09FA   3073           02738                         MOVLW CAR_P;
09FB   27A5           02739                         CALL P0_DIS1;
                      02740 
09FC   3050           02741                         MOVLW CAR_R;
09FD   27AA           02742                         CALL P0_DIS2;
                      02743 
09FE   3077           02744                         MOVLW CAR_A;
09FF   27AF           02745                         CALL P0_DIS3;
                      02746 
0A00   3058           02747                         MOVLW CAR_CC;
0A01   27B4           02748                         CALL P0_DIS4;
                      02749 
0A02   3078           02750                         MOVLW CAR_T;
0A03   27B9           02751                         CALL P0_DIS5;
                      02752 
0A04   3006           02753                         MOVLW NUM_1;
MPASM  5.30.01                         TDM 4.ASM   11-21-2023  23:07:44         PAGE 53


LOC  OBJECT CODE     LINE SOURCE TEXT
  VALUE

0A05   27BE           02754                         CALL P0_DIS6;
                      02755 
0A06   3039           02756                         MOVLW CAR_C;
0A07   27C3           02757                         CALL P0_DIS7;
                      02758 
0A08   0BA1           02759 LOOP65          DECFSZ CONTADOR2,F;
0A09   2A08           02760                         GOTO LOOP65;
0A0A   0BA0           02761                         DECFSZ CONTADOR1,F;
0A0B   29F6           02762                         GOTO FTGRM65;
                      02763                         
0A0C   2786           02764                         CALL LIMPIEZA_PG0;
                      02765 
                      02766 ;---------- Ftgm1 --------- _ _ _ _ _ _ 1
                      02767 
0A0D   302D           02768                         MOVLW M;
0A0E   00A0           02769                         MOVWF CONTADOR1;
0A0F   30FF           02770 FTGRM66         MOVLW N;
0A10   00A1           02771                         MOVWF CONTADOR2;
                      02772 
0A11   3073           02773                         MOVLW CAR_P;
0A12   27A0           02774                         CALL P0_DIS0;
                      02775 
0A13   3050           02776                         MOVLW CAR_R;
0A14   27A5           02777                         CALL P0_DIS1;
                      02778 
0A15   3077           02779                         MOVLW CAR_A;
0A16   27AA           02780                         CALL P0_DIS2;
                      02781 
0A17   3058           02782                         MOVLW CAR_CC;
0A18   27AF           02783                         CALL P0_DIS3;
                      02784 
0A19   3078           02785                         MOVLW CAR_T;
0A1A   27B4           02786                         CALL P0_DIS4;
                      02787 
0A1B   3006           02788                         MOVLW NUM_1;
0A1C   27B9           02789                         CALL P0_DIS5;
                      02790 
0A1D   3039           02791                         MOVLW CAR_C;
0A1E   27BE           02792                         CALL P0_DIS6;
                      02793 
0A1F   3077           02794                         MOVLW CAR_A;
0A20   27C3           02795                         CALL P0_DIS7;
                      02796 
0A21   0BA1           02797 LOOP66          DECFSZ CONTADOR2,F;
0A22   2A21           02798                         GOTO LOOP66;
0A23   0BA0           02799                         DECFSZ CONTADOR1,F;
0A24   2A0F           02800                         GOTO FTGRM66;
                      02801                         
0A25   2786           02802                         CALL LIMPIEZA_PG0;
                      02803 
                      02804 ;---------- Ftgm1 --------- _ _ _ _ _ _ 1
                      02805 
0A26   302D           02806                         MOVLW M;
MPASM  5.30.01                         TDM 4.ASM   11-21-2023  23:07:44         PAGE 54


LOC  OBJECT CODE     LINE SOURCE TEXT
  VALUE

0A27   00A0           02807                         MOVWF CONTADOR1;
0A28   30FF           02808 FTGRM67         MOVLW N;
0A29   00A1           02809                         MOVWF CONTADOR2;
                      02810 
0A2A   3050           02811                         MOVLW CAR_R;
0A2B   27A0           02812                         CALL P0_DIS0;
                      02813 
0A2C   3077           02814                         MOVLW CAR_A;
0A2D   27A5           02815                         CALL P0_DIS1;
                      02816 
0A2E   3058           02817                         MOVLW CAR_CC;
0A2F   27AA           02818                         CALL P0_DIS2;
                      02819 
0A30   3078           02820                         MOVLW CAR_T;
0A31   27AF           02821                         CALL P0_DIS3;
                      02822 
0A32   3006           02823                         MOVLW NUM_1;
0A33   27B4           02824                         CALL P0_DIS4;
                      02825 
0A34   3039           02826                         MOVLW CAR_C;
0A35   27B9           02827                         CALL P0_DIS5;
                      02828 
0A36   3077           02829                         MOVLW CAR_A;
0A37   27BE           02830                         CALL P0_DIS6;
                      02831 
0A38   3000           02832                         MOVLW NULL;
0A39   27C3           02833                         CALL P0_DIS7;
                      02834 
0A3A   0BA1           02835 LOOP67          DECFSZ CONTADOR2,F;
0A3B   2A3A           02836                         GOTO LOOP67;
0A3C   0BA0           02837                         DECFSZ CONTADOR1,F;
0A3D   2A28           02838                         GOTO FTGRM67;
                      02839                         
0A3E   2786           02840                         CALL LIMPIEZA_PG0;
                      02841 
                      02842 ;---------- Ftgm1 --------- _ _ _ _ _ _ 1
                      02843 
0A3F   302D           02844                         MOVLW M;
0A40   00A0           02845                         MOVWF CONTADOR1;
0A41   30FF           02846 FTGRM68         MOVLW N;
0A42   00A1           02847                         MOVWF CONTADOR2;
                      02848 
0A43   3077           02849                         MOVLW CAR_A;
0A44   27A0           02850                         CALL P0_DIS0;
                      02851 
0A45   3058           02852                         MOVLW CAR_CC;
0A46   27A5           02853                         CALL P0_DIS1;
                      02854 
0A47   3078           02855                         MOVLW CAR_T;
0A48   27AA           02856                         CALL P0_DIS2;
                      02857 
0A49   3006           02858                         MOVLW NUM_1;
0A4A   27AF           02859                         CALL P0_DIS3;
MPASM  5.30.01                         TDM 4.ASM   11-21-2023  23:07:44         PAGE 55


LOC  OBJECT CODE     LINE SOURCE TEXT
  VALUE

                      02860 
0A4B   3039           02861                         MOVLW CAR_C;
0A4C   27B4           02862                         CALL P0_DIS4;
                      02863 
0A4D   3077           02864                         MOVLW CAR_A;
0A4E   27B9           02865                         CALL P0_DIS5;
                      02866 
0A4F   3000           02867                         MOVLW NULL;
0A50   27BE           02868                         CALL P0_DIS6;
                      02869 
0A51   3066           02870                         MOVLW NUM_4;
0A52   27C3           02871                         CALL P0_DIS7;
                      02872 
0A53   0BA1           02873 LOOP68          DECFSZ CONTADOR2,F;
0A54   2A53           02874                         GOTO LOOP68;
0A55   0BA0           02875                         DECFSZ CONTADOR1,F;
0A56   2A41           02876                         GOTO FTGRM68;
                      02877                         
0A57   2786           02878                         CALL LIMPIEZA_PG0;
                      02879 
                      02880 ;---------- Ftgm1 --------- _ _ _ _ _ _ 1
                      02881 
0A58   302D           02882                         MOVLW M;
0A59   00A0           02883                         MOVWF CONTADOR1;
0A5A   30FF           02884 FTGRM69         MOVLW N;
0A5B   00A1           02885                         MOVWF CONTADOR2;
                      02886 
0A5C   3058           02887                         MOVLW CAR_CC;
0A5D   27A0           02888                         CALL P0_DIS0;
                      02889 
0A5E   3078           02890                         MOVLW CAR_T;
0A5F   27A5           02891                         CALL P0_DIS1;
                      02892 
0A60   3006           02893                         MOVLW NUM_1;
0A61   27AA           02894                         CALL P0_DIS2;
                      02895 
0A62   3039           02896                         MOVLW CAR_C;
0A63   27AF           02897                         CALL P0_DIS3;
                      02898 
0A64   3077           02899                         MOVLW CAR_A;
0A65   27B4           02900                         CALL P0_DIS4;
                      02901 
0A66   3000           02902                         MOVLW NULL;
0A67   27B9           02903                         CALL P0_DIS5;
                      02904 
0A68   3066           02905                         MOVLW NUM_4
0A69   27BE           02906                         CALL P0_DIS6;
                      02907 
0A6A   3000           02908                         MOVLW NULL;
0A6B   27C3           02909                         CALL P0_DIS7;
                      02910 
0A6C   0BA1           02911 LOOP69          DECFSZ CONTADOR2,F;
0A6D   2A6C           02912                         GOTO LOOP69;
MPASM  5.30.01                         TDM 4.ASM   11-21-2023  23:07:44         PAGE 56


LOC  OBJECT CODE     LINE SOURCE TEXT
  VALUE

0A6E   0BA0           02913                         DECFSZ CONTADOR1,F;
0A6F   2A5A           02914                         GOTO FTGRM69;
                      02915                         
0A70   2786           02916                         CALL LIMPIEZA_PG0;
                      02917 
                      02918 ;---------- Ftgm1 --------- _ _ _ _ _ _ 1
                      02919 
0A71   302D           02920                         MOVLW M;
0A72   00A0           02921                         MOVWF CONTADOR1;
0A73   30FF           02922 FTGRM70         MOVLW N;
0A74   00A1           02923                         MOVWF CONTADOR2;
                      02924 
0A75   3078           02925                         MOVLW CAR_T;
0A76   27A0           02926                         CALL P0_DIS0;
                      02927 
0A77   3006           02928                         MOVLW NUM_1;
0A78   27A5           02929                         CALL P0_DIS1;
                      02930 
0A79   3039           02931                         MOVLW CAR_C;
0A7A   27AA           02932                         CALL P0_DIS2;
                      02933 
0A7B   3077           02934                         MOVLW CAR_A;
0A7C   27AF           02935                         CALL P0_DIS3;
                      02936 
0A7D   3000           02937                         MOVLW NULL;
0A7E   27B4           02938                         CALL P0_DIS4;
                      02939 
0A7F   3066           02940                         MOVLW NUM_4;
0A80   27B9           02941                         CALL P0_DIS5;
                      02942 
0A81   3000           02943                         MOVLW NULL;
0A82   27BE           02944                         CALL P0_DIS6;
                      02945 
0A83   3039           02946                         MOVLW CAR_C;
0A84   27C3           02947                         CALL P0_DIS7;
                      02948 
0A85   0BA1           02949 LOOP70          DECFSZ CONTADOR2,F;
0A86   2A85           02950                         GOTO LOOP70;
0A87   0BA0           02951                         DECFSZ CONTADOR1,F;
0A88   2A73           02952                         GOTO FTGRM70;
                      02953                         
0A89   2786           02954                         CALL LIMPIEZA_PG0;
                      02955 
                      02956 ;---------- Ftgm1 --------- _ _ _ _ _ _ 1
                      02957 
0A8A   302D           02958                         MOVLW M;
0A8B   00A0           02959                         MOVWF CONTADOR1;
0A8C   30FF           02960 FTGRM71         MOVLW N;
0A8D   00A1           02961                         MOVWF CONTADOR2;
                      02962 
0A8E   3006           02963                         MOVLW NUM_1;
0A8F   27A0           02964                         CALL P0_DIS0;
                      02965 
MPASM  5.30.01                         TDM 4.ASM   11-21-2023  23:07:44         PAGE 57


LOC  OBJECT CODE     LINE SOURCE TEXT
  VALUE

0A90   3058           02966                         MOVLW CAR_CC;
0A91   27A5           02967                         CALL P0_DIS1;
                      02968 
0A92   3077           02969                         MOVLW CAR_A;
0A93   27AA           02970                         CALL P0_DIS2;
                      02971 
0A94   3000           02972                         MOVLW NULL;
0A95   27AF           02973                         CALL P0_DIS3;
                      02974 
0A96   3066           02975                         MOVLW NUM_4;
0A97   27B4           02976                         CALL P0_DIS4;
                      02977 
0A98   3000           02978                         MOVLW NULL;
0A99   27B9           02979                         CALL P0_DIS5;
                      02980 
0A9A   3039           02981                         MOVLW CAR_C;
0A9B   27BE           02982                         CALL P0_DIS6;
                      02983 
0A9C   305C           02984                         MOVLW CAR_O;
0A9D   27C3           02985                         CALL P0_DIS7;
                      02986 
0A9E   0BA1           02987 LOOP71          DECFSZ CONTADOR2,F;
0A9F   2A9E           02988                         GOTO LOOP71;
0AA0   0BA0           02989                         DECFSZ CONTADOR1,F;
0AA1   2A8C           02990                         GOTO FTGRM71;
                      02991                         
0AA2   2786           02992                         CALL LIMPIEZA_PG0;
                      02993 
                      02994 
                      02995 ;---------- Ftgm1 --------- _ _ _ _ _ _ 1
                      02996 
0AA3   302D           02997                         MOVLW M;
0AA4   00A0           02998                         MOVWF CONTADOR1;
0AA5   30FF           02999 FTGRM72         MOVLW N;
0AA6   00A1           03000                         MOVWF CONTADOR2;
                      03001 
0AA7   3058           03002                         MOVLW CAR_CC;
0AA8   27A0           03003                         CALL P0_DIS0;
                      03004 
0AA9   3077           03005                         MOVLW CAR_A;
0AAA   27A5           03006                         CALL P0_DIS1;
                      03007 
0AAB   3000           03008                         MOVLW NULL;
0AAC   27AA           03009                         CALL P0_DIS2;
                      03010 
0AAD   3066           03011                         MOVLW NUM_4;
0AAE   27AF           03012                         CALL P0_DIS3;
                      03013 
0AAF   3000           03014                         MOVLW NULL;
0AB0   27B4           03015                         CALL P0_DIS4;
                      03016 
0AB1   3058           03017                         MOVLW CAR_CC;
0AB2   27B9           03018                         CALL P0_DIS5;
MPASM  5.30.01                         TDM 4.ASM   11-21-2023  23:07:44         PAGE 58


LOC  OBJECT CODE     LINE SOURCE TEXT
  VALUE

                      03019 
0AB3   305C           03020                         MOVLW CAR_O;
0AB4   27BE           03021                         CALL P0_DIS6;
                      03022 
0AB5   3054           03023                         MOVLW CAR_NN;
0AB6   27C3           03024                         CALL P0_DIS7;
                      03025 
0AB7   0BA1           03026 LOOP72          DECFSZ CONTADOR2,F;
0AB8   2AB7           03027                         GOTO LOOP72;
0AB9   0BA0           03028                         DECFSZ CONTADOR1,F;
0ABA   2AA5           03029                         GOTO FTGRM72;
                      03030                         
0ABB   2786           03031                         CALL LIMPIEZA_PG0;
                      03032 
                      03033 ;---------- Ftgm1 --------- _ _ _ _ _ _ 1
                      03034 
0ABC   302D           03035                         MOVLW M;
0ABD   00A0           03036                         MOVWF CONTADOR1;
0ABE   30FF           03037 FTGRM73         MOVLW N;
0ABF   00A1           03038                         MOVWF CONTADOR2;
                      03039 
0AC0   3077           03040                         MOVLW CAR_A;
0AC1   27A0           03041                         CALL P0_DIS0;
                      03042 
0AC2   3000           03043                         MOVLW NULL;
0AC3   27A5           03044                         CALL P0_DIS1;
                      03045 
0AC4   3066           03046                         MOVLW NUM_4;
0AC5   27AA           03047                         CALL P0_DIS2;
                      03048 
0AC6   3000           03049                         MOVLW NULL;
0AC7   27AF           03050                         CALL P0_DIS3;
                      03051 
0AC8   3058           03052                         MOVLW CAR_CC;
0AC9   27B4           03053                         CALL P0_DIS4;
                      03054 
0ACA   305C           03055                         MOVLW CAR_O;
0ACB   27B9           03056                         CALL P0_DIS5;
                      03057 
0ACC   3054           03058                         MOVLW CAR_NN;
0ACD   27BE           03059                         CALL P0_DIS6;
                      03060 
0ACE   3078           03061                         MOVLW CAR_T;
0ACF   27C3           03062                         CALL P0_DIS7;
                      03063 
0AD0   0BA1           03064 LOOP73          DECFSZ CONTADOR2,F;
0AD1   2AD0           03065                         GOTO LOOP73;
0AD2   0BA0           03066                         DECFSZ CONTADOR1,F;
0AD3   2ABE           03067                         GOTO FTGRM73;
                      03068                         
0AD4   2786           03069                         CALL LIMPIEZA_PG0;
                      03070 
                      03071 ;---------- Ftgm1 --------- _ _ _ _ _ _ 1
MPASM  5.30.01                         TDM 4.ASM   11-21-2023  23:07:44         PAGE 59


LOC  OBJECT CODE     LINE SOURCE TEXT
  VALUE

                      03072 
0AD5   302D           03073                         MOVLW M;
0AD6   00A0           03074                         MOVWF CONTADOR1;
0AD7   30FF           03075 FTGRM74         MOVLW N;
0AD8   00A1           03076                         MOVWF CONTADOR2;
                      03077 
0AD9   3000           03078                         MOVLW NULL;
0ADA   27A0           03079                         CALL P0_DIS0;
                      03080 
0ADB   3066           03081                         MOVLW NUM_4;
0ADC   27A5           03082                         CALL P0_DIS1;
                      03083 
0ADD   3000           03084                         MOVLW NULL;
0ADE   27AA           03085                         CALL P0_DIS2;
                      03086 
0ADF   3058           03087                         MOVLW CAR_CC;
0AE0   27AF           03088                         CALL P0_DIS3;
                      03089 
0AE1   305C           03090                         MOVLW CAR_O;
0AE2   27B4           03091                         CALL P0_DIS4;
                      03092 
0AE3   3054           03093                         MOVLW CAR_NN;
0AE4   27B9           03094                         CALL P0_DIS5;
                      03095 
0AE5   3078           03096                         MOVLW CAR_T;
0AE6   27BE           03097                         CALL P0_DIS6;
                      03098 
0AE7   3050           03099                         MOVLW CAR_R;
0AE8   27C3           03100                         CALL P0_DIS7;
                      03101 
0AE9   0BA1           03102 LOOP74          DECFSZ CONTADOR2,F;
0AEA   2AE9           03103                         GOTO LOOP74;
0AEB   0BA0           03104                         DECFSZ CONTADOR1,F;
0AEC   2AD7           03105                         GOTO FTGRM74;
                      03106                         
0AED   2786           03107                         CALL LIMPIEZA_PG0;
                      03108 
                      03109 ;---------- Ftgm1 --------- _ _ _ _ _ _ 1
                      03110 
0AEE   302D           03111                         MOVLW M;
0AEF   00A0           03112                         MOVWF CONTADOR1;
0AF0   30FF           03113 FTGRM75         MOVLW N;
0AF1   00A1           03114                         MOVWF CONTADOR2;
                      03115 
0AF2   3066           03116                         MOVLW NUM_4;
0AF3   27A0           03117                         CALL P0_DIS0;
                      03118 
0AF4   3000           03119                         MOVLW NULL;
0AF5   27A5           03120                         CALL P0_DIS1;
                      03121 
0AF6   3058           03122                         MOVLW CAR_CC;
0AF7   27AA           03123                         CALL P0_DIS2;
                      03124 
MPASM  5.30.01                         TDM 4.ASM   11-21-2023  23:07:44         PAGE 60


LOC  OBJECT CODE     LINE SOURCE TEXT
  VALUE

0AF8   305C           03125                         MOVLW CAR_O;
0AF9   27AF           03126                         CALL P0_DIS3;
                      03127 
0AFA   3054           03128                         MOVLW CAR_NN;
0AFB   27B4           03129                         CALL P0_DIS4;
                      03130 
0AFC   3078           03131                         MOVLW CAR_T;
0AFD   27B9           03132                         CALL P0_DIS5;
                      03133 
0AFE   3050           03134                         MOVLW CAR_R;
0AFF   27BE           03135                         CALL P0_DIS6;
                      03136 
0B00   305C           03137                         MOVLW CAR_O;
0B01   27C3           03138                         CALL P0_DIS7;
                      03139 
0B02   0BA1           03140 LOOP75          DECFSZ CONTADOR2,F;
0B03   2B02           03141                         GOTO LOOP75;
0B04   0BA0           03142                         DECFSZ CONTADOR1,F;
0B05   2AF0           03143                         GOTO FTGRM75;
                      03144                         
0B06   2786           03145                         CALL LIMPIEZA_PG0;
                      03146 
                      03147 ;---------- Ftgm1 --------- _ _ _ _ _ _ 1
                      03148 
0B07   302D           03149                         MOVLW M;
0B08   00A0           03150                         MOVWF CONTADOR1;
0B09   30FF           03151 FTGRM76         MOVLW N;
0B0A   00A1           03152                         MOVWF CONTADOR2;
                      03153 
0B0B   3000           03154                         MOVLW NULL;
0B0C   27A0           03155                         CALL P0_DIS0;
                      03156 
0B0D   3058           03157                         MOVLW CAR_CC;
0B0E   27A5           03158                         CALL P0_DIS1;
                      03159 
0B0F   305C           03160                         MOVLW CAR_O;
0B10   27AA           03161                         CALL P0_DIS2;
                      03162 
0B11   3054           03163                         MOVLW CAR_NN;
0B12   27AF           03164                         CALL P0_DIS3;
                      03165 
0B13   3078           03166                         MOVLW CAR_T;
0B14   27B4           03167                         CALL P0_DIS4;
                      03168 
0B15   3050           03169                         MOVLW CAR_R;
0B16   27B9           03170                         CALL P0_DIS5;
                      03171 
0B17   305C           03172                         MOVLW CAR_O;
0B18   27BE           03173                         CALL P0_DIS6;
                      03174 
0B19   3006           03175                         MOVLW NUM_1;
0B1A   27C3           03176                         CALL P0_DIS7;
                      03177 
MPASM  5.30.01                         TDM 4.ASM   11-21-2023  23:07:44         PAGE 61


LOC  OBJECT CODE     LINE SOURCE TEXT
  VALUE

0B1B   0BA1           03178 LOOP76          DECFSZ CONTADOR2,F;
0B1C   2B1B           03179                         GOTO LOOP76;
0B1D   0BA0           03180                         DECFSZ CONTADOR1,F;
0B1E   2B09           03181                         GOTO FTGRM76;
                      03182                         
0B1F   2786           03183                         CALL LIMPIEZA_PG0;
                      03184 
                      03185 ;---------- Ftgm1 --------- _ _ _ _ _ _ 1
                      03186 
0B20   302D           03187                         MOVLW M;
0B21   00A0           03188                         MOVWF CONTADOR1;
0B22   30FF           03189 FTGRM77         MOVLW N;
0B23   00A1           03190                         MOVWF CONTADOR2;
                      03191 
0B24   3058           03192                         MOVLW CAR_CC;
0B25   27A0           03193                         CALL P0_DIS0;
                      03194 
0B26   305C           03195                         MOVLW CAR_O;
0B27   27A5           03196                         CALL P0_DIS1;
                      03197 
0B28   3054           03198                         MOVLW CAR_NN;
0B29   27AA           03199                         CALL P0_DIS2;
                      03200 
0B2A   3078           03201                         MOVLW CAR_T;
0B2B   27AF           03202                         CALL P0_DIS3;
                      03203 
0B2C   3050           03204                         MOVLW CAR_R;
0B2D   27B4           03205                         CALL P0_DIS4;
                      03206 
0B2E   305C           03207                         MOVLW CAR_O;
0B2F   27B9           03208                         CALL P0_DIS5;
                      03209 
0B30   3006           03210                         MOVLW NUM_1;
0B31   27BE           03211                         CALL P0_DIS6;
                      03212 
0B32   3000           03213                         MOVLW NULL;
0B33   27C3           03214                         CALL P0_DIS7;
                      03215 
0B34   0BA1           03216 LOOP77          DECFSZ CONTADOR2,F;
0B35   2B34           03217                         GOTO LOOP77;
0B36   0BA0           03218                         DECFSZ CONTADOR1,F;
0B37   2B22           03219                         GOTO FTGRM77;
                      03220                         
0B38   2786           03221                         CALL LIMPIEZA_PG0;
                      03222 
                      03223 ;---------- Ftgm1 --------- _ _ _ _ _ _ 1
                      03224 
0B39   302D           03225                         MOVLW M;
0B3A   00A0           03226                         MOVWF CONTADOR1;
0B3B   30FF           03227 FTGRM78         MOVLW N;
0B3C   00A1           03228                         MOVWF CONTADOR2;
                      03229 
0B3D   305C           03230                         MOVLW CAR_O;
MPASM  5.30.01                         TDM 4.ASM   11-21-2023  23:07:44         PAGE 62


LOC  OBJECT CODE     LINE SOURCE TEXT
  VALUE

0B3E   27A0           03231                         CALL P0_DIS0;
                      03232 
0B3F   3054           03233                         MOVLW CAR_NN;
0B40   27A5           03234                         CALL P0_DIS1;
                      03235 
0B41   3078           03236                         MOVLW CAR_T;
0B42   27AA           03237                         CALL P0_DIS2;
                      03238 
0B43   3050           03239                         MOVLW CAR_R;
0B44   27AF           03240                         CALL P0_DIS3;
                      03241 
0B45   305C           03242                         MOVLW CAR_O;
0B46   27B4           03243                         CALL P0_DIS4;
                      03244 
0B47   3006           03245                         MOVLW NUM_1;
0B48   27B9           03246                         CALL P0_DIS5;
                      03247 
0B49   3000           03248                         MOVLW NULL;
0B4A   27BE           03249                         CALL P0_DIS6;
                      03250 
0B4B   305E           03251                         MOVLW CAR_D;
0B4C   27C3           03252                         CALL P0_DIS7;
                      03253 
0B4D   0BA1           03254 LOOP78          DECFSZ CONTADOR2,F;
0B4E   2B4D           03255                         GOTO LOOP78;
0B4F   0BA0           03256                         DECFSZ CONTADOR1,F;
0B50   2B3B           03257                         GOTO FTGRM78;
                      03258                         
0B51   2786           03259                         CALL LIMPIEZA_PG0;
                      03260 
                      03261 ;---------- Ftgm1 --------- _ _ _ _ _ _ 1
                      03262 
0B52   302D           03263                         MOVLW M;
0B53   00A0           03264                         MOVWF CONTADOR1;
0B54   30FF           03265 FTGRM79         MOVLW N;
0B55   00A1           03266                         MOVWF CONTADOR2;
                      03267 
0B56   3054           03268                         MOVLW CAR_NN;
0B57   27A0           03269                         CALL P0_DIS0;
                      03270 
0B58   3078           03271                         MOVLW CAR_T;
0B59   27A5           03272                         CALL P0_DIS1;
                      03273 
0B5A   3050           03274                         MOVLW CAR_R;
0B5B   27AA           03275                         CALL P0_DIS2;
                      03276 
0B5C   305C           03277                         MOVLW CAR_O;
0B5D   27AF           03278                         CALL P0_DIS3;
                      03279 
0B5E   3006           03280                         MOVLW NUM_1;
0B5F   27B4           03281                         CALL P0_DIS4;
                      03282 
0B60   3000           03283                         MOVLW NULL;
MPASM  5.30.01                         TDM 4.ASM   11-21-2023  23:07:44         PAGE 63


LOC  OBJECT CODE     LINE SOURCE TEXT
  VALUE

0B61   27B9           03284                         CALL P0_DIS5;
                      03285 
0B62   305E           03286                         MOVLW CAR_D;
0B63   27BE           03287                         CALL P0_DIS6;
                      03288 
0B64   3079           03289                         MOVLW CAR_E;
0B65   27C3           03290                         CALL P0_DIS7;
                      03291 
0B66   0BA1           03292 LOOP79          DECFSZ CONTADOR2,F;
0B67   2B66           03293                         GOTO LOOP79;
0B68   0BA0           03294                         DECFSZ CONTADOR1,F;
0B69   2B54           03295                         GOTO FTGRM79;
                      03296                         
0B6A   2786           03297                         CALL LIMPIEZA_PG0;
                      03298 
                      03299 
                      03300 ;---------- Ftgm1 --------- _ _ _ _ _ _ 1
                      03301 
0B6B   302D           03302                         MOVLW M;
0B6C   00A0           03303                         MOVWF CONTADOR1;
0B6D   30FF           03304 FTGRM80         MOVLW N;
0B6E   00A1           03305                         MOVWF CONTADOR2;
                      03306 
0B6F   3078           03307                         MOVLW CAR_T;
0B70   27A0           03308                         CALL P0_DIS0;
                      03309 
0B71   3050           03310                         MOVLW CAR_R;
0B72   27A5           03311                         CALL P0_DIS1;
                      03312 
0B73   305C           03313                         MOVLW CAR_O;
0B74   27AA           03314                         CALL P0_DIS2;
                      03315 
0B75   3006           03316                         MOVLW NUM_1;
0B76   27AF           03317                         CALL P0_DIS3;
                      03318 
0B77   3000           03319                         MOVLW NULL;
0B78   27B4           03320                         CALL P0_DIS4;
                      03321 
0B79   305E           03322                         MOVLW CAR_D;
0B7A   27B9           03323                         CALL P0_DIS5;
                      03324 
0B7B   3079           03325                         MOVLW CAR_E;
0B7C   27BE           03326                         CALL P0_DIS6;
                      03327 
0B7D   3000           03328                         MOVLW NULL;
0B7E   27C3           03329                         CALL P0_DIS7;
                      03330 
0B7F   0BA1           03331 LOOP80          DECFSZ CONTADOR2,F;
0B80   2B7F           03332                         GOTO LOOP80;
0B81   0BA0           03333                         DECFSZ CONTADOR1,F;
0B82   2B6D           03334                         GOTO FTGRM80;
                      03335                         
0B83   2786           03336                         CALL LIMPIEZA_PG0;
MPASM  5.30.01                         TDM 4.ASM   11-21-2023  23:07:44         PAGE 64


LOC  OBJECT CODE     LINE SOURCE TEXT
  VALUE

                      03337 
                      03338 ;---------- Ftgm1 --------- _ _ _ _ _ _ 1
                      03339 
0B84   302D           03340                         MOVLW M;
0B85   00A0           03341                         MOVWF CONTADOR1;
0B86   30FF           03342 FTGRM81         MOVLW N;
0B87   00A1           03343                         MOVWF CONTADOR2;
                      03344 
0B88   3050           03345                         MOVLW CAR_R;
0B89   27A0           03346                         CALL P0_DIS0;
                      03347 
0B8A   305C           03348                         MOVLW CAR_O;
0B8B   27A5           03349                         CALL P0_DIS1;
                      03350 
0B8C   3006           03351                         MOVLW NUM_1;
0B8D   27AA           03352                         CALL P0_DIS2;
                      03353 
0B8E   3000           03354                         MOVLW NULL;
0B8F   27AF           03355                         CALL P0_DIS3;
                      03356 
0B90   305E           03357                         MOVLW CAR_D;
0B91   27B4           03358                         CALL P0_DIS4;
                      03359 
0B92   3079           03360                         MOVLW CAR_E;
0B93   27B9           03361                         CALL P0_DIS5;
                      03362 
0B94   3000           03363                         MOVLW NULL;
0B95   27BE           03364                         CALL P0_DIS6;
                      03365 
0B96   305E           03366                         MOVLW CAR_D;
0B97   27C3           03367                         CALL P0_DIS7;
                      03368 
0B98   0BA1           03369 LOOP81          DECFSZ CONTADOR2,F;
0B99   2B98           03370                         GOTO LOOP81;
0B9A   0BA0           03371                         DECFSZ CONTADOR1,F;
0B9B   2B86           03372                         GOTO FTGRM81;
                      03373                         
0B9C   2786           03374                         CALL LIMPIEZA_PG0;
                      03375 
                      03376 ;---------- Ftgm1 --------- _ _ _ _ _ _ 1
                      03377 
0B9D   302D           03378                         MOVLW M;
0B9E   00A0           03379                         MOVWF CONTADOR1;
0B9F   30FF           03380 FTGRM82         MOVLW N;
0BA0   00A1           03381                         MOVWF CONTADOR2;
                      03382 
0BA1   305C           03383                         MOVLW CAR_O;
0BA2   27A0           03384                         CALL P0_DIS0;
                      03385 
0BA3   3006           03386                         MOVLW NUM_1;
0BA4   27A5           03387                         CALL P0_DIS1;
                      03388 
0BA5   3000           03389                         MOVLW NULL;
MPASM  5.30.01                         TDM 4.ASM   11-21-2023  23:07:44         PAGE 65


LOC  OBJECT CODE     LINE SOURCE TEXT
  VALUE

0BA6   27AA           03390                         CALL P0_DIS2;
                      03391 
0BA7   305E           03392                         MOVLW CAR_D;
0BA8   27AF           03393                         CALL P0_DIS3;
                      03394 
0BA9   3079           03395                         MOVLW CAR_E;
0BAA   27B4           03396                         CALL P0_DIS4;
                      03397 
0BAB   3000           03398                         MOVLW NULL;
0BAC   27B9           03399                         CALL P0_DIS5;
                      03400 
0BAD   305E           03401                         MOVLW CAR_D;
0BAE   27BE           03402                         CALL P0_DIS6;
                      03403 
0BAF   3006           03404                         MOVLW NUM_1;
0BB0   27C3           03405                         CALL P0_DIS7;
                      03406 
0BB1   0BA1           03407 LOOP82          DECFSZ CONTADOR2,F;
0BB2   2BB1           03408                         GOTO LOOP82;
0BB3   0BA0           03409                         DECFSZ CONTADOR1,F;
0BB4   2B9F           03410                         GOTO FTGRM82;
                      03411                         
0BB5   2786           03412                         CALL LIMPIEZA_PG0;
                      03413 
                      03414 ;---------- Ftgm1 --------- _ _ _ _ _ _ 1
                      03415 
0BB6   302D           03416                         MOVLW M;
0BB7   00A0           03417                         MOVWF CONTADOR1;
0BB8   30FF           03418 FTGRM82.1       MOVLW N;
0BB9   00A1           03419                         MOVWF CONTADOR2;
                      03420 
0BBA   3006           03421                         MOVLW NUM_1;
0BBB   27A0           03422                         CALL P0_DIS0;
                      03423 
0BBC   3000           03424                         MOVLW NULL;
0BBD   27A5           03425                         CALL P0_DIS1;
                      03426 
0BBE   305E           03427                         MOVLW CAR_D;
0BBF   27AA           03428                         CALL P0_DIS2;
                      03429 
0BC0   3079           03430                         MOVLW CAR_E;
0BC1   27AF           03431                         CALL P0_DIS3;
                      03432 
0BC2   3000           03433                         MOVLW NULL;
0BC3   27B4           03434                         CALL P0_DIS4;
                      03435 
0BC4   305E           03436                         MOVLW CAR_D;
0BC5   27B9           03437                         CALL P0_DIS5;
                      03438 
0BC6   3006           03439                         MOVLW NUM_1;
0BC7   27BE           03440                         CALL P0_DIS6;
                      03441 
0BC8   306D           03442                         MOVLW NUM_5;
MPASM  5.30.01                         TDM 4.ASM   11-21-2023  23:07:44         PAGE 66


LOC  OBJECT CODE     LINE SOURCE TEXT
  VALUE

0BC9   27C3           03443                         CALL P0_DIS7;
                      03444 
0BCA   0BA1           03445 LOOP82.1        DECFSZ CONTADOR2,F;
0BCB   2BCA           03446                         GOTO LOOP82.1;
0BCC   0BA0           03447                         DECFSZ CONTADOR1,F;
0BCD   2BB8           03448                         GOTO FTGRM82.1;
                      03449                         
0BCE   2786           03450                         CALL LIMPIEZA_PG0;
                      03451 
                      03452 ;---------- Ftgm1 --------- _ _ _ _ _ _ 1
                      03453 
0BCF   302D           03454                         MOVLW M;
0BD0   00A0           03455                         MOVWF CONTADOR1;
0BD1   30FF           03456 FTGRM83         MOVLW N;
0BD2   00A1           03457                         MOVWF CONTADOR2;
                      03458 
0BD3   3000           03459                         MOVLW NULL;
0BD4   27A0           03460                         CALL P0_DIS0;
                      03461 
0BD5   305E           03462                         MOVLW CAR_D;
0BD6   27A5           03463                         CALL P0_DIS1;
                      03464 
0BD7   3079           03465                         MOVLW CAR_E;
0BD8   27AA           03466                         CALL P0_DIS2;
                      03467 
0BD9   3000           03468                         MOVLW NULL;
0BDA   27AF           03469                         CALL P0_DIS3;
                      03470 
0BDB   305E           03471                         MOVLW CAR_D;
0BDC   27B4           03472                         CALL P0_DIS4;
                      03473 
0BDD   3006           03474                         MOVLW NUM_1;
0BDE   27B9           03475                         CALL P0_DIS5;
                      03476 
0BDF   306D           03477                         MOVLW NUM_5;
0BE0   27BE           03478                         CALL P0_DIS6;
                      03479 
0BE1   3073           03480                         MOVLW CAR_P;
0BE2   27C3           03481                         CALL P0_DIS7;
                      03482 
0BE3   0BA1           03483 LOOP83          DECFSZ CONTADOR2,F;
0BE4   2BE3           03484                         GOTO LOOP83;
0BE5   0BA0           03485                         DECFSZ CONTADOR1,F;
0BE6   2BD1           03486                         GOTO FTGRM83;
                      03487                         
0BE7   2786           03488                         CALL LIMPIEZA_PG0;
                      03489 
                      03490 ;---------- Ftgm1 --------- _ _ _ _ _ _ 1
                      03491 
0BE8   302D           03492                         MOVLW M;
0BE9   00A0           03493                         MOVWF CONTADOR1;
0BEA   30FF           03494 FTGRM84         MOVLW N;
0BEB   00A1           03495                         MOVWF CONTADOR2;
MPASM  5.30.01                         TDM 4.ASM   11-21-2023  23:07:44         PAGE 67


LOC  OBJECT CODE     LINE SOURCE TEXT
  VALUE

                      03496 
0BEC   305E           03497                         MOVLW CAR_D;
0BED   27A0           03498                         CALL P0_DIS0;
                      03499 
0BEE   3079           03500                         MOVLW CAR_E;
0BEF   27A5           03501                         CALL P0_DIS1;
                      03502 
0BF0   3000           03503                         MOVLW NULL;
0BF1   27AA           03504                         CALL P0_DIS2;
                      03505 
0BF2   305E           03506                         MOVLW CAR_D;
0BF3   27AF           03507                         CALL P0_DIS3;
                      03508 
0BF4   3006           03509                         MOVLW NUM_1;
0BF5   27B4           03510                         CALL P0_DIS4;
                      03511 
0BF6   306D           03512                         MOVLW NUM_5;
0BF7   27B9           03513                         CALL P0_DIS5;
                      03514 
0BF8   3073           03515                         MOVLW CAR_P;
0BF9   27BE           03516                         CALL P0_DIS6;
                      03517 
0BFA   3006           03518                         MOVLW NUM_1;
0BFB   27C3           03519                         CALL P0_DIS7;
                      03520 
0BFC   0BA1           03521 LOOP84          DECFSZ CONTADOR2,F;
0BFD   2BFC           03522                         GOTO LOOP84;
0BFE   0BA0           03523                         DECFSZ CONTADOR1,F;
0BFF   2BEA           03524                         GOTO FTGRM84;
                      03525                         
0C00   2786           03526                         CALL LIMPIEZA_PG0;
                      03527 
                      03528 ;---------- Ftgm1 --------- _ _ _ _ _ _ 1
                      03529 
0C01   302D           03530                         MOVLW M;
0C02   00A0           03531                         MOVWF CONTADOR1;
0C03   30FF           03532 FTGRM85         MOVLW N;
0C04   00A1           03533                         MOVWF CONTADOR2;
                      03534 
0C05   3079           03535                         MOVLW CAR_E;
0C06   27A0           03536                         CALL P0_DIS0;
                      03537 
0C07   3000           03538                         MOVLW NULL;
0C08   27A5           03539                         CALL P0_DIS1;
                      03540 
0C09   305E           03541                         MOVLW CAR_D;
0C0A   27AA           03542                         CALL P0_DIS2;
                      03543 
0C0B   3006           03544                         MOVLW NUM_1;
0C0C   27AF           03545                         CALL P0_DIS3;
                      03546 
0C0D   306D           03547                         MOVLW NUM_5;
0C0E   27B4           03548                         CALL P0_DIS4;
MPASM  5.30.01                         TDM 4.ASM   11-21-2023  23:07:44         PAGE 68


LOC  OBJECT CODE     LINE SOURCE TEXT
  VALUE

                      03549 
0C0F   3073           03550                         MOVLW CAR_P;
0C10   27B9           03551                         CALL P0_DIS5;
                      03552 
0C11   3006           03553                         MOVLW NUM_1;
0C12   27BE           03554                         CALL P0_DIS6;
                      03555 
0C13   3077           03556                         MOVLW CAR_A;
0C14   27C3           03557                         CALL P0_DIS7;
                      03558 
0C15   0BA1           03559 LOOP85          DECFSZ CONTADOR2,F;
0C16   2C15           03560                         GOTO LOOP85;
0C17   0BA0           03561                         DECFSZ CONTADOR1,F;
0C18   2C03           03562                         GOTO FTGRM85;
                      03563                         
0C19   2786           03564                         CALL LIMPIEZA_PG0;
                      03565 
                      03566 ;---------- Ftgm1 --------- _ _ _ _ _ _ 1
                      03567 
0C1A   302D           03568                         MOVLW M;
0C1B   00A0           03569                         MOVWF CONTADOR1;
0C1C   30FF           03570 FTGRM86         MOVLW N;
0C1D   00A1           03571                         MOVWF CONTADOR2;
                      03572 
0C1E   3000           03573                         MOVLW NULL;
0C1F   27A0           03574                         CALL P0_DIS0;
                      03575 
0C20   305E           03576                         MOVLW CAR_D;
0C21   27A5           03577                         CALL P0_DIS1;
                      03578 
0C22   3006           03579                         MOVLW NUM_1;
0C23   27AA           03580                         CALL P0_DIS2;
                      03581 
0C24   306D           03582                         MOVLW NUM_5;
0C25   27AF           03583                         CALL P0_DIS3;
                      03584 
0C26   3073           03585                         MOVLW CAR_P;
0C27   27B4           03586                         CALL P0_DIS4;
                      03587 
0C28   3006           03588                         MOVLW NUM_1;
0C29   27B9           03589                         CALL P0_DIS5;
                      03590 
0C2A   3077           03591                         MOVLW CAR_A;
0C2B   27BE           03592                         CALL P0_DIS6;
                      03593 
0C2C   306E           03594                         MOVLW CAR_Y;
0C2D   27C3           03595                         CALL P0_DIS7;
                      03596 
0C2E   0BA1           03597 LOOP86          DECFSZ CONTADOR2,F;
0C2F   2C2E           03598                         GOTO LOOP86;
0C30   0BA0           03599                         DECFSZ CONTADOR1,F;
0C31   2C1C           03600                         GOTO FTGRM86;
                      03601                         
MPASM  5.30.01                         TDM 4.ASM   11-21-2023  23:07:44         PAGE 69


LOC  OBJECT CODE     LINE SOURCE TEXT
  VALUE

0C32   2786           03602                         CALL LIMPIEZA_PG0;
                      03603 
                      03604 ;---------- Ftgm1 --------- _ _ _ _ _ _ 1
                      03605 
0C33   302D           03606                         MOVLW M;
0C34   00A0           03607                         MOVWF CONTADOR1;
0C35   30FF           03608 FTGRM87         MOVLW N;
0C36   00A1           03609                         MOVWF CONTADOR2;
                      03610 
0C37   305E           03611                         MOVLW CAR_D;
0C38   27A0           03612                         CALL P0_DIS0;
                      03613 
0C39   3006           03614                         MOVLW NUM_1;
0C3A   27A5           03615                         CALL P0_DIS1;
                      03616 
0C3B   306D           03617                         MOVLW NUM_5;
0C3C   27AA           03618                         CALL P0_DIS2;
                      03619 
0C3D   3073           03620                         MOVLW CAR_P;
0C3E   27AF           03621                         CALL P0_DIS3;
                      03622 
0C3F   3006           03623                         MOVLW NUM_1;
0C40   27B4           03624                         CALL P0_DIS4;
                      03625 
0C41   3077           03626                         MOVLW CAR_A;
0C42   27B9           03627                         CALL P0_DIS5;
                      03628 
0C43   306E           03629                         MOVLW CAR_Y;
0C44   27BE           03630                         CALL P0_DIS6;
                      03631 
0C45   306D           03632                         MOVLW NUM_5;
0C46   27C3           03633                         CALL P0_DIS7;
                      03634 
0C47   0BA1           03635 LOOP87          DECFSZ CONTADOR2,F;
0C48   2C47           03636                         GOTO LOOP87;
0C49   0BA0           03637                         DECFSZ CONTADOR1,F;
0C4A   2C35           03638                         GOTO FTGRM87;
                      03639                         
0C4B   2786           03640                         CALL LIMPIEZA_PG0;
                      03641 
                      03642 ;---------- Ftgm1 --------- _ _ _ _ _ _ 1
                      03643 
0C4C   302D           03644                         MOVLW M;
0C4D   00A0           03645                         MOVWF CONTADOR1;
0C4E   30FF           03646 FTGRM88         MOVLW N;
0C4F   00A1           03647                         MOVWF CONTADOR2;
                      03648 
0C50   3006           03649                         MOVLW NUM_1;
0C51   27A0           03650                         CALL P0_DIS0;
                      03651 
0C52   306D           03652                         MOVLW NUM_5;
0C53   27A5           03653                         CALL P0_DIS1;
                      03654 
MPASM  5.30.01                         TDM 4.ASM   11-21-2023  23:07:44         PAGE 70


LOC  OBJECT CODE     LINE SOURCE TEXT
  VALUE

0C54   3073           03655                         MOVLW CAR_P;
0C55   27AA           03656                         CALL P0_DIS2;
                      03657 
0C56   3006           03658                         MOVLW NUM_1;
0C57   27AF           03659                         CALL P0_DIS3;
                      03660 
0C58   3077           03661                         MOVLW CAR_A;
0C59   27B4           03662                         CALL P0_DIS4;
                      03663 
0C5A   306E           03664                         MOVLW CAR_Y;
0C5B   27B9           03665                         CALL P0_DIS5;
                      03666 
0C5C   306D           03667                         MOVLW NUM_5;
0C5D   27BE           03668                         CALL P0_DIS6;
                      03669 
0C5E   3000           03670                         MOVLW NULL;
0C5F   27C3           03671                         CALL P0_DIS7;
                      03672 
0C60   0BA1           03673 LOOP88          DECFSZ CONTADOR2,F;
0C61   2C60           03674                         GOTO LOOP88;
0C62   0BA0           03675                         DECFSZ CONTADOR1,F;
0C63   2C4E           03676                         GOTO FTGRM88;
                      03677                         
0C64   2786           03678                         CALL LIMPIEZA_PG0;
                      03679 
                      03680 ;---------- Ftgm1 --------- _ _ _ _ _ _ 1
                      03681 
0C65   302D           03682                         MOVLW M;
0C66   00A0           03683                         MOVWF CONTADOR1;
0C67   30FF           03684 FTGRM89         MOVLW N;
0C68   00A1           03685                         MOVWF CONTADOR2;
                      03686 
0C69   306D           03687                         MOVLW NUM_5;
0C6A   27A0           03688                         CALL P0_DIS0;
                      03689 
0C6B   3073           03690                         MOVLW CAR_P;
0C6C   27A5           03691                         CALL P0_DIS1;
                      03692 
0C6D   3006           03693                         MOVLW NUM_1;
0C6E   27AA           03694                         CALL P0_DIS2;
                      03695 
0C6F   3077           03696                         MOVLW CAR_A;
0C70   27AF           03697                         CALL P0_DIS3;
                      03698 
0C71   306E           03699                         MOVLW CAR_Y;
0C72   27B4           03700                         CALL P0_DIS4;
                      03701 
0C73   306D           03702                         MOVLW NUM_5;
0C74   27B9           03703                         CALL P0_DIS5;
                      03704 
0C75   3000           03705                         MOVLW NULL;
0C76   27BE           03706                         CALL P0_DIS6;
                      03707 
MPASM  5.30.01                         TDM 4.ASM   11-21-2023  23:07:44         PAGE 71


LOC  OBJECT CODE     LINE SOURCE TEXT
  VALUE

0C77   3073           03708                         MOVLW CAR_P;
0C78   27C3           03709                         CALL P0_DIS7;
                      03710 
0C79   0BA1           03711 LOOP89          DECFSZ CONTADOR2,F;
0C7A   2C79           03712                         GOTO LOOP89;
0C7B   0BA0           03713                         DECFSZ CONTADOR1,F;
0C7C   2C67           03714                         GOTO FTGRM89;
                      03715                         
0C7D   2786           03716                         CALL LIMPIEZA_PG0;
                      03717 
                      03718 ;---------- Ftgm1 --------- _ _ _ _ _ _ 1
                      03719 
0C7E   302D           03720                         MOVLW M;
0C7F   00A0           03721                         MOVWF CONTADOR1;
0C80   30FF           03722 FTGRM90         MOVLW N;
0C81   00A1           03723                         MOVWF CONTADOR2;
                      03724 
0C82   3073           03725                         MOVLW CAR_P;
0C83   27A0           03726                         CALL P0_DIS0;
                      03727 
0C84   3006           03728                         MOVLW NUM_1;
0C85   27A5           03729                         CALL P0_DIS1;
                      03730 
0C86   3077           03731                         MOVLW CAR_A;
0C87   27AA           03732                         CALL P0_DIS2;
                      03733 
0C88   306E           03734                         MOVLW CAR_Y;
0C89   27AF           03735                         CALL P0_DIS3;
                      03736 
0C8A   306D           03737                         MOVLW NUM_5;
0C8B   27B4           03738                         CALL P0_DIS4;
                      03739 
0C8C   3000           03740                         MOVLW NULL;
0C8D   27B9           03741                         CALL P0_DIS5;
                      03742 
0C8E   3073           03743                         MOVLW CAR_P;
0C8F   27BE           03744                         CALL P0_DIS6;
                      03745 
0C90   305C           03746                         MOVLW CAR_O;
0C91   27C3           03747                         CALL P0_DIS7;
                      03748 
0C92   0BA1           03749 LOOP90          DECFSZ CONTADOR2,F;
0C93   2C92           03750                         GOTO LOOP90;
0C94   0BA0           03751                         DECFSZ CONTADOR1,F;
0C95   2C80           03752                         GOTO FTGRM90;
                      03753                         
0C96   2786           03754                         CALL LIMPIEZA_PG0;
                      03755 
                      03756 ;---------- Ftgm1 --------- _ _ _ _ _ _ 1
                      03757 
0C97   302D           03758                         MOVLW M;
0C98   00A0           03759                         MOVWF CONTADOR1;
0C99   30FF           03760 FTGRM91         MOVLW N;
MPASM  5.30.01                         TDM 4.ASM   11-21-2023  23:07:44         PAGE 72


LOC  OBJECT CODE     LINE SOURCE TEXT
  VALUE

0C9A   00A1           03761                         MOVWF CONTADOR2;
                      03762 
0C9B   3006           03763                         MOVLW NUM_1;
0C9C   27A0           03764                         CALL P0_DIS0;
                      03765 
0C9D   3077           03766                         MOVLW CAR_A;
0C9E   27A5           03767                         CALL P0_DIS1;
                      03768 
0C9F   306E           03769                         MOVLW CAR_Y;
0CA0   27AA           03770                         CALL P0_DIS2;
                      03771 
0CA1   306D           03772                         MOVLW NUM_5;
0CA2   27AF           03773                         CALL P0_DIS3;
                      03774 
0CA3   3000           03775                         MOVLW NULL;
0CA4   27B4           03776                         CALL P0_DIS4;
                      03777 
0CA5   3073           03778                         MOVLW CAR_P;
0CA6   27B9           03779                         CALL P0_DIS5;
                      03780 
0CA7   305C           03781                         MOVLW CAR_O;
0CA8   27BE           03782                         CALL P0_DIS6;
                      03783 
0CA9   3050           03784                         MOVLW CAR_R;
0CAA   27C3           03785                         CALL P0_DIS7;
                      03786 
0CAB   0BA1           03787 LOOP91          DECFSZ CONTADOR2,F;
0CAC   2CAB           03788                         GOTO LOOP91;
0CAD   0BA0           03789                         DECFSZ CONTADOR1,F;
0CAE   2C99           03790                         GOTO FTGRM91;
                      03791                         
0CAF   2786           03792                         CALL LIMPIEZA_PG0;
                      03793 
                      03794 ;---------- Ftgm1 --------- _ _ _ _ _ _ 1
                      03795 
0CB0   302D           03796                         MOVLW M;
0CB1   00A0           03797                         MOVWF CONTADOR1;
0CB2   30FF           03798 FTGRM92         MOVLW N;
0CB3   00A1           03799                         MOVWF CONTADOR2;
                      03800 
0CB4   3077           03801                         MOVLW CAR_A;
0CB5   27A0           03802                         CALL P0_DIS0;
                      03803 
0CB6   306E           03804                         MOVLW CAR_Y;
0CB7   27A5           03805                         CALL P0_DIS1;
                      03806 
0CB8   306D           03807                         MOVLW NUM_5;
0CB9   27AA           03808                         CALL P0_DIS2;
                      03809 
0CBA   3000           03810                         MOVLW NULL;
0CBB   27AF           03811                         CALL P0_DIS3;
                      03812 
0CBC   3073           03813                         MOVLW CAR_P;
MPASM  5.30.01                         TDM 4.ASM   11-21-2023  23:07:44         PAGE 73


LOC  OBJECT CODE     LINE SOURCE TEXT
  VALUE

0CBD   27B4           03814                         CALL P0_DIS4;
                      03815 
0CBE   305C           03816                         MOVLW CAR_O;
0CBF   27B9           03817                         CALL P0_DIS5;
                      03818 
0CC0   3050           03819                         MOVLW CAR_R;
0CC1   27BE           03820                         CALL P0_DIS6;
                      03821 
0CC2   3000           03822                         MOVLW NULL;
0CC3   27C3           03823                         CALL P0_DIS7;
                      03824 
0CC4   0BA1           03825 LOOP92          DECFSZ CONTADOR2,F;
0CC5   2CC4           03826                         GOTO LOOP92;
0CC6   0BA0           03827                         DECFSZ CONTADOR1,F;
0CC7   2CB2           03828                         GOTO FTGRM92;
                      03829                         
0CC8   2786           03830                         CALL LIMPIEZA_PG0;
                      03831 
                      03832 ;---------- Ftgm1 --------- _ _ _ _ _ _ 1
                      03833 
0CC9   302D           03834                         MOVLW M;
0CCA   00A0           03835                         MOVWF CONTADOR1;
0CCB   30FF           03836 FTGRM93         MOVLW N;
0CCC   00A1           03837                         MOVWF CONTADOR2;
                      03838 
0CCD   306E           03839                         MOVLW CAR_Y;
0CCE   27A0           03840                         CALL P0_DIS0;
                      03841 
0CCF   306D           03842                         MOVLW NUM_5;
0CD0   27A5           03843                         CALL P0_DIS1;
                      03844 
0CD1   3000           03845                         MOVLW NULL;
0CD2   27AA           03846                         CALL P0_DIS2;
                      03847 
0CD3   3073           03848                         MOVLW CAR_P;
0CD4   27AF           03849                         CALL P0_DIS3;
                      03850 
0CD5   305C           03851                         MOVLW CAR_O;
0CD6   27B4           03852                         CALL P0_DIS4;
                      03853 
0CD7   3050           03854                         MOVLW CAR_R;
0CD8   27B9           03855                         CALL P0_DIS5;
                      03856 
0CD9   3000           03857                         MOVLW NULL;
0CDA   27BE           03858                         CALL P0_DIS6;
                      03859 
0CDB   3078           03860                         MOVLW CAR_T;
0CDC   27C3           03861                         CALL P0_DIS7;
                      03862 
0CDD   0BA1           03863 LOOP93          DECFSZ CONTADOR2,F;
0CDE   2CDD           03864                         GOTO LOOP93;
0CDF   0BA0           03865                         DECFSZ CONTADOR1,F;
0CE0   2CCB           03866                         GOTO FTGRM93;
MPASM  5.30.01                         TDM 4.ASM   11-21-2023  23:07:44         PAGE 74


LOC  OBJECT CODE     LINE SOURCE TEXT
  VALUE

                      03867                         
0CE1   2786           03868                         CALL LIMPIEZA_PG0;
                      03869 
                      03870 ;---------- Ftgm1 --------- _ _ _ _ _ _ 1
                      03871 
0CE2   302D           03872                         MOVLW M;
0CE3   00A0           03873                         MOVWF CONTADOR1;
0CE4   30FF           03874 FTGRM94         MOVLW N;
0CE5   00A1           03875                         MOVWF CONTADOR2;
                      03876 
0CE6   306D           03877                         MOVLW NUM_5;
0CE7   27A0           03878                         CALL P0_DIS0;
                      03879 
0CE8   3000           03880                         MOVLW NULL;
0CE9   27A5           03881                         CALL P0_DIS1;
                      03882 
0CEA   3073           03883                         MOVLW CAR_P;
0CEB   27AA           03884                         CALL P0_DIS2;
                      03885 
0CEC   305C           03886                         MOVLW CAR_O;
0CED   27AF           03887                         CALL P0_DIS3;
                      03888 
0CEE   3050           03889                         MOVLW CAR_R;
0CEF   27B4           03890                         CALL P0_DIS4;
                      03891 
0CF0   3000           03892                         MOVLW NULL;
0CF1   27B9           03893                         CALL P0_DIS5;
                      03894 
0CF2   3078           03895                         MOVLW CAR_T;
0CF3   27BE           03896                         CALL P0_DIS6;
                      03897 
0CF4   305E           03898                         MOVLW CAR_D;
0CF5   27C3           03899                         CALL P0_DIS7;
                      03900 
0CF6   0BA1           03901 LOOP94          DECFSZ CONTADOR2,F;
0CF7   2CF6           03902                         GOTO LOOP94;
0CF8   0BA0           03903                         DECFSZ CONTADOR1,F;
0CF9   2CE4           03904                         GOTO FTGRM94;
                      03905                         
0CFA   2786           03906                         CALL LIMPIEZA_PG0;
                      03907 
                      03908 ;---------- Ftgm1 --------- _ _ _ _ _ _ 1
                      03909 
0CFB   302D           03910                         MOVLW M;
0CFC   00A0           03911                         MOVWF CONTADOR1;
0CFD   30FF           03912 FTGRM95         MOVLW N;
0CFE   00A1           03913                         MOVWF CONTADOR2;
                      03914 
0CFF   3000           03915                         MOVLW NULL;
0D00   27A0           03916                         CALL P0_DIS0;
                      03917 
0D01   3073           03918                         MOVLW CAR_P;
0D02   27A5           03919                         CALL P0_DIS1;
MPASM  5.30.01                         TDM 4.ASM   11-21-2023  23:07:44         PAGE 75


LOC  OBJECT CODE     LINE SOURCE TEXT
  VALUE

                      03920 
0D03   305C           03921                         MOVLW CAR_O;
0D04   27AA           03922                         CALL P0_DIS2;
                      03923 
0D05   3050           03924                         MOVLW CAR_R;
0D06   27AF           03925                         CALL P0_DIS3;
                      03926 
0D07   3000           03927                         MOVLW NULL;
0D08   27B4           03928                         CALL P0_DIS4;
                      03929 
0D09   3078           03930                         MOVLW CAR_T;
0D0A   27B9           03931                         CALL P0_DIS5;
                      03932 
0D0B   305E           03933                         MOVLW CAR_D;
0D0C   27BE           03934                         CALL P0_DIS6;
                      03935 
0D0D   3037           03936                         MOVLW CAR_N;
0D0E   27C3           03937                         CALL P0_DIS7;
                      03938 
0D0F   0BA1           03939 LOOP95          DECFSZ CONTADOR2,F;
0D10   2D0F           03940                         GOTO LOOP95;
0D11   0BA0           03941                         DECFSZ CONTADOR1,F;
0D12   2CFD           03942                         GOTO FTGRM95;
                      03943                         
0D13   2786           03944                         CALL LIMPIEZA_PG0;
                      03945 
                      03946 ;---------- Ftgm1 --------- _ _ _ _ _ _ 1
                      03947 
0D14   302D           03948                         MOVLW M;
0D15   00A0           03949                         MOVWF CONTADOR1;
0D16   30FF           03950 FTGRM96         MOVLW N;
0D17   00A1           03951                         MOVWF CONTADOR2;
                      03952 
0D18   3073           03953                         MOVLW CAR_P;
0D19   27A0           03954                         CALL P0_DIS0;
                      03955 
0D1A   305C           03956                         MOVLW CAR_O;
0D1B   27A5           03957                         CALL P0_DIS1;
                      03958 
0D1C   3050           03959                         MOVLW CAR_R;
0D1D   27AA           03960                         CALL P0_DIS2;
                      03961 
0D1E   3000           03962                         MOVLW NULL;
0D1F   27AF           03963                         CALL P0_DIS3;
                      03964 
0D20   3078           03965                         MOVLW CAR_T;
0D21   27B4           03966                         CALL P0_DIS4;
                      03967 
0D22   305E           03968                         MOVLW CAR_D;
0D23   27B9           03969                         CALL P0_DIS5;
                      03970 
0D24   3037           03971                         MOVLW CAR_N;
0D25   27BE           03972                         CALL P0_DIS6;
MPASM  5.30.01                         TDM 4.ASM   11-21-2023  23:07:44         PAGE 76


LOC  OBJECT CODE     LINE SOURCE TEXT
  VALUE

                      03973 
0D26   3037           03974                         MOVLW CAR_N;
0D27   27C3           03975                         CALL P0_DIS7;
                      03976 
0D28   0BA1           03977 LOOP96          DECFSZ CONTADOR2,F;
0D29   2D28           03978                         GOTO LOOP96;
0D2A   0BA0           03979                         DECFSZ CONTADOR1,F;
0D2B   2D16           03980                         GOTO FTGRM96;
                      03981                         
0D2C   2786           03982                         CALL LIMPIEZA_PG0;
                      03983 
                      03984 ;---------- Ftgm1 --------- _ _ _ _ _ _ 1
                      03985 
0D2D   302D           03986                         MOVLW M;
0D2E   00A0           03987                         MOVWF CONTADOR1;
0D2F   30FF           03988 FTGRM97         MOVLW N;
0D30   00A1           03989                         MOVWF CONTADOR2;
                      03990 
0D31   305C           03991                         MOVLW CAR_O;
0D32   27A0           03992                         CALL P0_DIS0;
                      03993 
0D33   3050           03994                         MOVLW CAR_R;
0D34   27A5           03995                         CALL P0_DIS1;
                      03996 
0D35   3000           03997                         MOVLW NULL;
0D36   27AA           03998                         CALL P0_DIS2;
                      03999 
0D37   3078           04000                         MOVLW CAR_T;
0D38   27AF           04001                         CALL P0_DIS3;
                      04002 
0D39   305E           04003                         MOVLW CAR_D;
0D3A   27B4           04004                         CALL P0_DIS4;
                      04005 
0D3B   3037           04006                         MOVLW CAR_N;
0D3C   27B9           04007                         CALL P0_DIS5;
                      04008 
0D3D   3037           04009                         MOVLW CAR_N;
0D3E   27BE           04010                         CALL P0_DIS6;
                      04011 
0D3F   3000           04012                         MOVLW NULL;
0D40   27C3           04013                         CALL P0_DIS7;
                      04014 
0D41   0BA1           04015 LOOP97          DECFSZ CONTADOR2,F;
0D42   2D41           04016                         GOTO LOOP97;
0D43   0BA0           04017                         DECFSZ CONTADOR1,F;
0D44   2D2F           04018                         GOTO FTGRM97;
                      04019                         
0D45   2786           04020                         CALL LIMPIEZA_PG0;
                      04021 
                      04022 ;---------- Ftgm1 --------- _ _ _ _ _ _ 1
                      04023 
0D46   302D           04024                         MOVLW M;
0D47   00A0           04025                         MOVWF CONTADOR1;
MPASM  5.30.01                         TDM 4.ASM   11-21-2023  23:07:44         PAGE 77


LOC  OBJECT CODE     LINE SOURCE TEXT
  VALUE

0D48   30FF           04026 FTGRM98         MOVLW N;
0D49   00A1           04027                         MOVWF CONTADOR2;
                      04028 
0D4A   3050           04029                         MOVLW CAR_R;
0D4B   27A0           04030                         CALL P0_DIS0;
                      04031 
0D4C   3000           04032                         MOVLW NULL;
0D4D   27A5           04033                         CALL P0_DIS1;
                      04034 
0D4E   3078           04035                         MOVLW CAR_T;
0D4F   27AA           04036                         CALL P0_DIS2;
                      04037 
0D50   305E           04038                         MOVLW CAR_D;
0D51   27AF           04039                         CALL P0_DIS3;
                      04040 
0D52   3037           04041                         MOVLW CAR_N;
0D53   27B4           04042                         CALL P0_DIS4;
                      04043 
0D54   3037           04044                         MOVLW CAR_N;
0D55   27B9           04045                         CALL P0_DIS5;
                      04046 
0D56   3000           04047                         MOVLW NULL;
0D57   27BE           04048                         CALL P0_DIS6;
                      04049 
0D58   307D           04050                         MOVLW NUM_6;
0D59   27C3           04051                         CALL P0_DIS7;
                      04052 
0D5A   0BA1           04053 LOOP98          DECFSZ CONTADOR2,F;
0D5B   2D5A           04054                         GOTO LOOP98;
0D5C   0BA0           04055                         DECFSZ CONTADOR1,F;
0D5D   2D48           04056                         GOTO FTGRM98;
                      04057                         
0D5E   2786           04058                         CALL LIMPIEZA_PG0;
                      04059 
                      04060 ;---------- Ftgm1 --------- _ _ _ _ _ _ 1
                      04061 
0D5F   302D           04062                         MOVLW M;
0D60   00A0           04063                         MOVWF CONTADOR1;
0D61   30FF           04064 FTGRM99         MOVLW N;
0D62   00A1           04065                         MOVWF CONTADOR2;
                      04066 
0D63   3000           04067                         MOVLW NULL;
0D64   27A0           04068                         CALL P0_DIS0;
                      04069 
0D65   3078           04070                         MOVLW CAR_T;
0D66   27A5           04071                         CALL P0_DIS1;
                      04072 
0D67   305E           04073                         MOVLW CAR_D;
0D68   27AA           04074                         CALL P0_DIS2;
                      04075 
0D69   3037           04076                         MOVLW CAR_N;
0D6A   27AF           04077                         CALL P0_DIS3;
                      04078 
MPASM  5.30.01                         TDM 4.ASM   11-21-2023  23:07:44         PAGE 78


LOC  OBJECT CODE     LINE SOURCE TEXT
  VALUE

0D6B   3037           04079                         MOVLW CAR_N;
0D6C   27B4           04080                         CALL P0_DIS4;
                      04081 
0D6D   3000           04082                         MOVLW NULL;
0D6E   27B9           04083                         CALL P0_DIS5;
                      04084 
0D6F   307D           04085                         MOVLW NUM_6;
0D70   27BE           04086                         CALL P0_DIS6;
                      04087 
0D71   3050           04088                         MOVLW CAR_R;
0D72   27C3           04089                         CALL P0_DIS7;
                      04090 
0D73   0BA1           04091 LOOP99          DECFSZ CONTADOR2,F;
0D74   2D73           04092                         GOTO LOOP99;
0D75   0BA0           04093                         DECFSZ CONTADOR1,F;
0D76   2D61           04094                         GOTO FTGRM99;
                      04095                         
0D77   2786           04096                         CALL LIMPIEZA_PG0;
                      04097 
                      04098 ;---------- Ftgm1 --------- _ _ _ _ _ _ 1
                      04099 
0D78   302D           04100                         MOVLW M;
0D79   00A0           04101                         MOVWF CONTADOR1;
0D7A   30FF           04102 FTGRM100                MOVLW N;
0D7B   00A1           04103                         MOVWF CONTADOR2;
                      04104 
0D7C   3078           04105                         MOVLW CAR_T;
0D7D   27A0           04106                         CALL P0_DIS0;
                      04107 
0D7E   305E           04108                         MOVLW CAR_D;
0D7F   27A5           04109                         CALL P0_DIS1;
                      04110 
0D80   3037           04111                         MOVLW CAR_N;
0D81   27AA           04112                         CALL P0_DIS2;
                      04113 
0D82   3037           04114                         MOVLW CAR_N;
0D83   27AF           04115                         CALL P0_DIS3;
                      04116 
0D84   3000           04117                         MOVLW NULL;
0D85   27B4           04118                         CALL P0_DIS4;
                      04119 
0D86   307D           04120                         MOVLW NUM_6;
0D87   27B9           04121                         CALL P0_DIS5;
                      04122 
0D88   3050           04123                         MOVLW CAR_R;
0D89   27BE           04124                         CALL P0_DIS6;
                      04125 
0D8A   301C           04126                         MOVLW CAR_UU;
0D8B   27C3           04127                         CALL P0_DIS7;
                      04128 
0D8C   0BA1           04129 LOOP100         DECFSZ CONTADOR2,F;
0D8D   2D8C           04130                         GOTO LOOP100;
0D8E   0BA0           04131                         DECFSZ CONTADOR1,F;
MPASM  5.30.01                         TDM 4.ASM   11-21-2023  23:07:44         PAGE 79


LOC  OBJECT CODE     LINE SOURCE TEXT
  VALUE

0D8F   2D7A           04132                         GOTO FTGRM100;
                      04133                         
0D90   2786           04134                         CALL LIMPIEZA_PG0;
                      04135 
                      04136 ;---------- Ftgm1 --------- _ _ _ _ _ _ 1
                      04137 
0D91   302D           04138                         MOVLW M;
0D92   00A0           04139                         MOVWF CONTADOR1;
0D93   30FF           04140 FTGRM101                MOVLW N;
0D94   00A1           04141                         MOVWF CONTADOR2;
                      04142 
0D95   305E           04143                         MOVLW CAR_D;
0D96   27A0           04144                         CALL P0_DIS0;
                      04145 
0D97   3037           04146                         MOVLW CAR_N;
0D98   27A5           04147                         CALL P0_DIS1;
                      04148 
0D99   3037           04149                         MOVLW CAR_N;
0D9A   27AA           04150                         CALL P0_DIS2;
                      04151 
0D9B   3000           04152                         MOVLW NULL;
0D9C   27AF           04153                         CALL P0_DIS3;
                      04154 
0D9D   307D           04155                         MOVLW NUM_6;
0D9E   27B4           04156                         CALL P0_DIS4;
                      04157 
0D9F   3050           04158                         MOVLW CAR_R;
0DA0   27B9           04159                         CALL P0_DIS5;
                      04160 
0DA1   301C           04161                         MOVLW CAR_UU;
0DA2   27BE           04162                         CALL P0_DIS6;
                      04163 
0DA3   3073           04164                         MOVLW CAR_P;
0DA4   27C3           04165                         CALL P0_DIS7;
                      04166 
0DA5   0BA1           04167 LOOP101         DECFSZ CONTADOR2,F;
0DA6   2DA5           04168                         GOTO LOOP101;
0DA7   0BA0           04169                         DECFSZ CONTADOR1,F;
0DA8   2D93           04170                         GOTO FTGRM101;
                      04171                         
0DA9   2786           04172                         CALL LIMPIEZA_PG0;
                      04173 
                      04174 ;---------- Ftgm1 --------- _ _ _ _ _ _ 1
                      04175 
0DAA   302D           04176                         MOVLW M;
0DAB   00A0           04177                         MOVWF CONTADOR1;
0DAC   30FF           04178 FTGRM102                MOVLW N;
0DAD   00A1           04179                         MOVWF CONTADOR2;
                      04180 
0DAE   3037           04181                         MOVLW CAR_N;
0DAF   27A0           04182                         CALL P0_DIS0;
                      04183 
0DB0   3037           04184                         MOVLW CAR_N;
MPASM  5.30.01                         TDM 4.ASM   11-21-2023  23:07:44         PAGE 80


LOC  OBJECT CODE     LINE SOURCE TEXT
  VALUE

0DB1   27A5           04185                         CALL P0_DIS1;
                      04186 
0DB2   3000           04187                         MOVLW NULL;
0DB3   27AA           04188                         CALL P0_DIS2;
                      04189 
0DB4   307D           04190                         MOVLW NUM_6;
0DB5   27AF           04191                         CALL P0_DIS3;
                      04192 
0DB6   3050           04193                         MOVLW CAR_R;
0DB7   27B4           04194                         CALL P0_DIS4;
                      04195 
0DB8   301C           04196                         MOVLW CAR_UU;
0DB9   27B9           04197                         CALL P0_DIS5;
                      04198 
0DBA   3073           04199                         MOVLW CAR_P;
0DBB   27BE           04200                         CALL P0_DIS6;
                      04201 
0DBC   305C           04202                         MOVLW CAR_O;
0DBD   27C3           04203                         CALL P0_DIS7;
                      04204 
0DBE   0BA1           04205 LOOP102         DECFSZ CONTADOR2,F;
0DBF   2DBE           04206                         GOTO LOOP102;
0DC0   0BA0           04207                         DECFSZ CONTADOR1,F;
0DC1   2DAC           04208                         GOTO FTGRM102;
                      04209                         
0DC2   2786           04210                         CALL LIMPIEZA_PG0;
                      04211 
                      04212 ;---------- Ftgm1 --------- _ _ _ _ _ _ 1
                      04213 
0DC3   302D           04214                         MOVLW M;
0DC4   00A0           04215                         MOVWF CONTADOR1;
0DC5   30FF           04216 FTGRM103                MOVLW N;
0DC6   00A1           04217                         MOVWF CONTADOR2;
                      04218 
0DC7   3037           04219                         MOVLW CAR_N;
0DC8   27A0           04220                         CALL P0_DIS0;
                      04221 
0DC9   3000           04222                         MOVLW NULL;
0DCA   27A5           04223                         CALL P0_DIS1;
                      04224 
0DCB   307D           04225                         MOVLW NUM_6;
0DCC   27AA           04226                         CALL P0_DIS2;
                      04227 
0DCD   3050           04228                         MOVLW CAR_R;
0DCE   27AF           04229                         CALL P0_DIS3;
                      04230 
0DCF   301C           04231                         MOVLW CAR_UU;
0DD0   27B4           04232                         CALL P0_DIS4;
                      04233 
0DD1   3073           04234                         MOVLW CAR_P;
0DD2   27B9           04235                         CALL P0_DIS5;
                      04236 
0DD3   305C           04237                         MOVLW CAR_O;
MPASM  5.30.01                         TDM 4.ASM   11-21-2023  23:07:44         PAGE 81


LOC  OBJECT CODE     LINE SOURCE TEXT
  VALUE

0DD4   27BE           04238                         CALL P0_DIS6;
                      04239 
0DD5   3000           04240                         MOVLW NULL;
0DD6   27C3           04241                         CALL P0_DIS7;
                      04242 
0DD7   0BA1           04243 LOOP103         DECFSZ CONTADOR2,F;
0DD8   2DD7           04244                         GOTO LOOP103;
0DD9   0BA0           04245                         DECFSZ CONTADOR1,F;
0DDA   2DC5           04246                         GOTO FTGRM103;
                      04247                         
0DDB   2786           04248                         CALL LIMPIEZA_PG0;
                      04249 
                      04250 ;---------- Ftgm1 --------- _ _ _ _ _ _ 1
                      04251 
0DDC   302D           04252                         MOVLW M;
0DDD   00A0           04253                         MOVWF CONTADOR1;
0DDE   30FF           04254 FTGRM104                MOVLW N;
0DDF   00A1           04255                         MOVWF CONTADOR2;
                      04256 
0DE0   3000           04257                         MOVLW NULL;
0DE1   27A0           04258                         CALL P0_DIS0;
                      04259 
0DE2   307D           04260                         MOVLW NUM_6;
0DE3   27A5           04261                         CALL P0_DIS1;
                      04262 
0DE4   3050           04263                         MOVLW CAR_R;
0DE5   27AA           04264                         CALL P0_DIS2;
                      04265 
0DE6   301C           04266                         MOVLW CAR_UU;
0DE7   27AF           04267                         CALL P0_DIS3;
                      04268 
0DE8   3073           04269                         MOVLW CAR_P;
0DE9   27B4           04270                         CALL P0_DIS4;
                      04271 
0DEA   305C           04272                         MOVLW CAR_O;
0DEB   27B9           04273                         CALL P0_DIS5;
                      04274 
0DEC   3000           04275                         MOVLW NULL;
0DED   27BE           04276                         CALL P0_DIS6;
                      04277 
0DEE   306D           04278                         MOVLW NUM_5;
0DEF   27C3           04279                         CALL P0_DIS7;
                      04280 
0DF0   0BA1           04281 LOOP104         DECFSZ CONTADOR2,F;
0DF1   2DF0           04282                         GOTO LOOP104;
0DF2   0BA0           04283                         DECFSZ CONTADOR1,F;
0DF3   2DDE           04284                         GOTO FTGRM104;
                      04285                         
0DF4   2786           04286                         CALL LIMPIEZA_PG0;
                      04287 
                      04288 ;---------- Ftgm1 --------- _ _ _ _ _ _ 1
                      04289 
0DF5   302D           04290                         MOVLW M;
MPASM  5.30.01                         TDM 4.ASM   11-21-2023  23:07:44         PAGE 82


LOC  OBJECT CODE     LINE SOURCE TEXT
  VALUE

0DF6   00A0           04291                         MOVWF CONTADOR1;
0DF7   30FF           04292 FTGRM105                MOVLW N;
0DF8   00A1           04293                         MOVWF CONTADOR2;
                      04294 
0DF9   307D           04295                         MOVLW NUM_6;
0DFA   27A0           04296                         CALL P0_DIS0;
                      04297 
0DFB   3050           04298                         MOVLW CAR_R;
0DFC   27A5           04299                         CALL P0_DIS1;
                      04300 
0DFD   301C           04301                         MOVLW CAR_UU;
0DFE   27AA           04302                         CALL P0_DIS2;
                      04303 
0DFF   3073           04304                         MOVLW CAR_P;
0E00   27AF           04305                         CALL P0_DIS3;
                      04306 
0E01   305C           04307                         MOVLW CAR_O;
0E02   27B4           04308                         CALL P0_DIS4;
                      04309 
0E03   3000           04310                         MOVLW NULL;
0E04   27B9           04311                         CALL P0_DIS5;
                      04312 
0E05   306D           04313                         MOVLW NUM_5;
0E06   27BE           04314                         CALL P0_DIS6;
                      04315 
0E07   3006           04316                         MOVLW NUM_1;
0E08   27C3           04317                         CALL P0_DIS7;
                      04318 
0E09   0BA1           04319 LOOP105         DECFSZ CONTADOR2,F;
0E0A   2E09           04320                         GOTO LOOP105;
0E0B   0BA0           04321                         DECFSZ CONTADOR1,F;
0E0C   2DF7           04322                         GOTO FTGRM105;
                      04323                         
0E0D   2786           04324                         CALL LIMPIEZA_PG0;
                      04325 
                      04326 ;---------- Ftgm1 --------- _ _ _ _ _ _ 1
                      04327 
0E0E   302D           04328                         MOVLW M;
0E0F   00A0           04329                         MOVWF CONTADOR1;
0E10   30FF           04330 FTGRM106                MOVLW N;
0E11   00A1           04331                         MOVWF CONTADOR2;
                      04332 
0E12   3050           04333                         MOVLW CAR_R;
0E13   27A0           04334                         CALL P0_DIS0;
                      04335 
0E14   301C           04336                         MOVLW CAR_UU;
0E15   27A5           04337                         CALL P0_DIS1;
                      04338 
0E16   3073           04339                         MOVLW CAR_P;
0E17   27AA           04340                         CALL P0_DIS2;
                      04341 
0E18   305C           04342                         MOVLW CAR_O;
0E19   27AF           04343                         CALL P0_DIS3;
MPASM  5.30.01                         TDM 4.ASM   11-21-2023  23:07:44         PAGE 83


LOC  OBJECT CODE     LINE SOURCE TEXT
  VALUE

                      04344 
0E1A   3000           04345                         MOVLW NULL;
0E1B   27B4           04346                         CALL P0_DIS4;
                      04347 
0E1C   306D           04348                         MOVLW NUM_5;
0E1D   27B9           04349                         CALL P0_DIS5;
                      04350 
0E1E   3006           04351                         MOVLW NUM_1;
0E1F   27BE           04352                         CALL P0_DIS6;
                      04353 
0E20   3037           04354                         MOVLW CAR_N;
0E21   27C3           04355                         CALL P0_DIS7;
                      04356 
0E22   0BA1           04357 LOOP106         DECFSZ CONTADOR2,F;
0E23   2E22           04358                         GOTO LOOP106;
0E24   0BA0           04359                         DECFSZ CONTADOR1,F;
0E25   2E10           04360                         GOTO FTGRM106;
                      04361                         
0E26   2786           04362                         CALL LIMPIEZA_PG0;
                      04363 
                      04364 ;---------- Ftgm1 --------- _ _ _ _ _ _ 1
                      04365 
0E27   302D           04366                         MOVLW M;
0E28   00A0           04367                         MOVWF CONTADOR1;
0E29   30FF           04368 FTGRM107                MOVLW N;
0E2A   00A1           04369                         MOVWF CONTADOR2;
                      04370 
0E2B   301C           04371                         MOVLW CAR_UU;
0E2C   27A0           04372                         CALL P0_DIS0;
                      04373 
0E2D   3073           04374                         MOVLW CAR_P;
0E2E   27A5           04375                         CALL P0_DIS1;
                      04376 
0E2F   305C           04377                         MOVLW CAR_O;
0E30   27AA           04378                         CALL P0_DIS2;
                      04379 
0E31   3000           04380                         MOVLW NULL;
0E32   27AF           04381                         CALL P0_DIS3;
                      04382 
0E33   306D           04383                         MOVLW NUM_5;
0E34   27B4           04384                         CALL P0_DIS4;
                      04385 
0E35   3006           04386                         MOVLW NUM_1;
0E36   27B9           04387                         CALL P0_DIS5;
                      04388 
0E37   3037           04389                         MOVLW CAR_N;
0E38   27BE           04390                         CALL P0_DIS6;
                      04391 
0E39   3037           04392                         MOVLW CAR_N;
0E3A   27C3           04393                         CALL P0_DIS7;
                      04394 
0E3B   0BA1           04395 LOOP107         DECFSZ CONTADOR2,F;
0E3C   2E3B           04396                         GOTO LOOP107;
MPASM  5.30.01                         TDM 4.ASM   11-21-2023  23:07:44         PAGE 84


LOC  OBJECT CODE     LINE SOURCE TEXT
  VALUE

0E3D   0BA0           04397                         DECFSZ CONTADOR1,F;
0E3E   2E29           04398                         GOTO FTGRM107;
                      04399                         
0E3F   2786           04400                         CALL LIMPIEZA_PG0;
                      04401 
                      04402 ;---------- Ftgm1 --------- _ _ _ _ _ _ 1
                      04403 
0E40   302D           04404                         MOVLW M;
0E41   00A0           04405                         MOVWF CONTADOR1;
0E42   30FF           04406 FTGRM108                MOVLW N;
0E43   00A1           04407                         MOVWF CONTADOR2;
                      04408 
0E44   3073           04409                         MOVLW CAR_P;
0E45   27A0           04410                         CALL P0_DIS0;
                      04411 
0E46   305C           04412                         MOVLW CAR_O;
0E47   27A5           04413                         CALL P0_DIS1;
                      04414 
0E48   3000           04415                         MOVLW NULL;
0E49   27AA           04416                         CALL P0_DIS2;
                      04417 
0E4A   306D           04418                         MOVLW NUM_5;
0E4B   27AF           04419                         CALL P0_DIS3;
                      04420 
0E4C   3006           04421                         MOVLW NUM_1;
0E4D   27B4           04422                         CALL P0_DIS4;
                      04423 
0E4E   3037           04424                         MOVLW CAR_N;
0E4F   27B9           04425                         CALL P0_DIS5;
                      04426 
0E50   3037           04427                         MOVLW CAR_N;
0E51   27BE           04428                         CALL P0_DIS6;
                      04429 
0E52   3006           04430                         MOVLW NUM_1;
0E53   27C3           04431                         CALL P0_DIS7;
                      04432 
0E54   0BA1           04433 LOOP108         DECFSZ CONTADOR2,F;
0E55   2E54           04434                         GOTO LOOP108;
0E56   0BA0           04435                         DECFSZ CONTADOR1,F;
0E57   2E42           04436                         GOTO FTGRM108;
                      04437                         
0E58   2786           04438                         CALL LIMPIEZA_PG0;
                      04439 
                      04440 ;---------- Ftgm1 --------- _ _ _ _ _ _ 1
                      04441 
0E59   302D           04442                         MOVLW M;
0E5A   00A0           04443                         MOVWF CONTADOR1;
0E5B   30FF           04444 FTGRM109                MOVLW N;
0E5C   00A1           04445                         MOVWF CONTADOR2;
                      04446 
0E5D   305C           04447                         MOVLW CAR_O;
0E5E   27A0           04448                         CALL P0_DIS0;
                      04449 
MPASM  5.30.01                         TDM 4.ASM   11-21-2023  23:07:44         PAGE 85


LOC  OBJECT CODE     LINE SOURCE TEXT
  VALUE

0E5F   3000           04450                         MOVLW NULL;
0E60   27A5           04451                         CALL P0_DIS1;
                      04452 
0E61   306D           04453                         MOVLW NUM_5;
0E62   27AA           04454                         CALL P0_DIS2;
                      04455 
0E63   3006           04456                         MOVLW NUM_1;
0E64   27AF           04457                         CALL P0_DIS3;
                      04458 
0E65   3037           04459                         MOVLW CAR_N;
0E66   27B4           04460                         CALL P0_DIS4;
                      04461 
0E67   3037           04462                         MOVLW CAR_N;
0E68   27B9           04463                         CALL P0_DIS5;
                      04464 
0E69   3006           04465                         MOVLW NUM_1;
0E6A   27BE           04466                         CALL P0_DIS6;
                      04467 
0E6B   3000           04468                         MOVLW NULL;
0E6C   27C3           04469                         CALL P0_DIS7;
                      04470 
0E6D   0BA1           04471 LOOP109         DECFSZ CONTADOR2,F;
0E6E   2E6D           04472                         GOTO LOOP109;
0E6F   0BA0           04473                         DECFSZ CONTADOR1,F;
0E70   2E5B           04474                         GOTO FTGRM109;
                      04475                         
0E71   2786           04476                         CALL LIMPIEZA_PG0;
                      04477 
                      04478 ;---------- Ftgm1 --------- _ _ _ _ _ _ 1
                      04479 
0E72   302D           04480                         MOVLW M;
0E73   00A0           04481                         MOVWF CONTADOR1;
0E74   30FF           04482 FTGRM110                MOVLW N;
0E75   00A1           04483                         MOVWF CONTADOR2;
                      04484 
0E76   3000           04485                         MOVLW NULL;
0E77   27A0           04486                         CALL P0_DIS0;
                      04487 
0E78   306D           04488                         MOVLW NUM_5;
0E79   27A5           04489                         CALL P0_DIS1;
                      04490 
0E7A   3006           04491                         MOVLW NUM_1;
0E7B   27AA           04492                         CALL P0_DIS2;
                      04493 
0E7C   3037           04494                         MOVLW CAR_N;
0E7D   27AF           04495                         CALL P0_DIS3;
                      04496 
0E7E   3037           04497                         MOVLW CAR_N;
0E7F   27B4           04498                         CALL P0_DIS4;
                      04499 
0E80   3006           04500                         MOVLW NUM_1;
0E81   27B9           04501                         CALL P0_DIS5;
                      04502 
MPASM  5.30.01                         TDM 4.ASM   11-21-2023  23:07:44         PAGE 86


LOC  OBJECT CODE     LINE SOURCE TEXT
  VALUE

0E82   3000           04503                         MOVLW NULL;
0E83   27BE           04504                         CALL P0_DIS6;
                      04505 
0E84   3079           04506                         MOVLW CAR_E;
0E85   27C3           04507                         CALL P0_DIS7;
                      04508 
0E86   0BA1           04509 LOOP110         DECFSZ CONTADOR2,F;
0E87   2E86           04510                         GOTO LOOP110;
0E88   0BA0           04511                         DECFSZ CONTADOR1,F;
0E89   2E74           04512                         GOTO FTGRM110;
                      04513                         
0E8A   2786           04514                         CALL LIMPIEZA_PG0;
                      04515 
                      04516 ;---------- Ftgm1 --------- _ _ _ _ _ _ 1
                      04517 
0E8B   302D           04518                         MOVLW M;
0E8C   00A0           04519                         MOVWF CONTADOR1;
0E8D   30FF           04520 FTGRM111                MOVLW N;
0E8E   00A1           04521                         MOVWF CONTADOR2;
                      04522 
0E8F   306D           04523                         MOVLW NUM_5;
0E90   27A0           04524                         CALL P0_DIS0;
                      04525 
0E91   3006           04526                         MOVLW NUM_1;
0E92   27A5           04527                         CALL P0_DIS1;
                      04528 
0E93   3037           04529                         MOVLW CAR_N;
0E94   27AA           04530                         CALL P0_DIS2;
                      04531 
0E95   3037           04532                         MOVLW CAR_N;
0E96   27AF           04533                         CALL P0_DIS3;
                      04534 
0E97   3006           04535                         MOVLW NUM_1;
0E98   27B4           04536                         CALL P0_DIS4;
                      04537 
0E99   3000           04538                         MOVLW NULL;
0E9A   27B9           04539                         CALL P0_DIS5;
                      04540 
0E9B   3079           04541                         MOVLW CAR_E;
0E9C   27BE           04542                         CALL P0_DIS6;
                      04543 
0E9D   306F           04544                         MOVLW NUM_9;
0E9E   27C3           04545                         CALL P0_DIS7;
                      04546 
0E9F   0BA1           04547 LOOP111         DECFSZ CONTADOR2,F;
0EA0   2E9F           04548                         GOTO LOOP111;
0EA1   0BA0           04549                         DECFSZ CONTADOR1,F;
0EA2   2E8D           04550                         GOTO FTGRM111;
                      04551                         
0EA3   2786           04552                         CALL LIMPIEZA_PG0;
                      04553 
                      04554 ;---------- Ftgm1 --------- _ _ _ _ _ _ 1
                      04555 
MPASM  5.30.01                         TDM 4.ASM   11-21-2023  23:07:44         PAGE 87


LOC  OBJECT CODE     LINE SOURCE TEXT
  VALUE

0EA4   302D           04556                         MOVLW M;
0EA5   00A0           04557                         MOVWF CONTADOR1;
0EA6   30FF           04558 FTGRM112                MOVLW N;
0EA7   00A1           04559                         MOVWF CONTADOR2;
                      04560 
0EA8   3006           04561                         MOVLW NUM_1;
0EA9   27A0           04562                         CALL P0_DIS0;
                      04563 
0EAA   3037           04564                         MOVLW CAR_N;
0EAB   27A5           04565                         CALL P0_DIS1;
                      04566 
0EAC   3037           04567                         MOVLW CAR_N;
0EAD   27AA           04568                         CALL P0_DIS2;
                      04569 
0EAE   3006           04570                         MOVLW NUM_1;
0EAF   27AF           04571                         CALL P0_DIS3;
                      04572 
0EB0   3000           04573                         MOVLW NULL;
0EB1   27B4           04574                         CALL P0_DIS4;
                      04575 
0EB2   3079           04576                         MOVLW CAR_E;
0EB3   27B9           04577                         CALL P0_DIS5;
                      04578 
0EB4   306F           04579                         MOVLW NUM_9;
0EB5   27BE           04580                         CALL P0_DIS6;
                      04581 
0EB6   301C           04582                         MOVLW CAR_UU;
0EB7   27C3           04583                         CALL P0_DIS7;
                      04584 
0EB8   0BA1           04585 LOOP112         DECFSZ CONTADOR2,F;
0EB9   2EB8           04586                         GOTO LOOP112;
0EBA   0BA0           04587                         DECFSZ CONTADOR1,F;
0EBB   2EA6           04588                         GOTO FTGRM112;
                      04589                         
0EBC   2786           04590                         CALL LIMPIEZA_PG0;
                      04591 
                      04592 ;---------- Ftgm1 --------- _ _ _ _ _ _ 1
                      04593 
0EBD   302D           04594                         MOVLW M;
0EBE   00A0           04595                         MOVWF CONTADOR1;
0EBF   30FF           04596 FTGRM113                MOVLW N;
0EC0   00A1           04597                         MOVWF CONTADOR2;
                      04598 
0EC1   3037           04599                         MOVLW CAR_N;
0EC2   27A0           04600                         CALL P0_DIS0;
                      04601 
0EC3   3037           04602                         MOVLW CAR_N;
0EC4   27A5           04603                         CALL P0_DIS1;
                      04604 
0EC5   3006           04605                         MOVLW NUM_1;
0EC6   27AA           04606                         CALL P0_DIS2;
                      04607 
0EC7   3000           04608                         MOVLW NULL;
MPASM  5.30.01                         TDM 4.ASM   11-21-2023  23:07:44         PAGE 88


LOC  OBJECT CODE     LINE SOURCE TEXT
  VALUE

0EC8   27AF           04609                         CALL P0_DIS3;
                      04610 
0EC9   3079           04611                         MOVLW CAR_E;
0ECA   27B4           04612                         CALL P0_DIS4;
                      04613 
0ECB   306F           04614                         MOVLW NUM_9;
0ECC   27B9           04615                         CALL P0_DIS5;
                      04616 
0ECD   301C           04617                         MOVLW CAR_UU;
0ECE   27BE           04618                         CALL P0_DIS6;
                      04619 
0ECF   3006           04620                         MOVLW NUM_1;
0ED0   27C3           04621                         CALL P0_DIS7;
                      04622 
0ED1   0BA1           04623 LOOP113         DECFSZ CONTADOR2,F;
0ED2   2ED1           04624                         GOTO LOOP113;
0ED3   0BA0           04625                         DECFSZ CONTADOR1,F;
0ED4   2EBF           04626                         GOTO FTGRM113;
                      04627                         
0ED5   2786           04628                         CALL LIMPIEZA_PG0;
                      04629 
                      04630 ;---------- Ftgm1 --------- _ _ _ _ _ _ 1
                      04631 
0ED6   302D           04632                         MOVLW M;
0ED7   00A0           04633                         MOVWF CONTADOR1;
0ED8   30FF           04634 FTGRM114                MOVLW N;
0ED9   00A1           04635                         MOVWF CONTADOR2;
                      04636 
0EDA   3037           04637                         MOVLW CAR_N;
0EDB   27A0           04638                         CALL P0_DIS0;
                      04639 
0EDC   3006           04640                         MOVLW NUM_1;
0EDD   27A5           04641                         CALL P0_DIS1;
                      04642 
0EDE   3000           04643                         MOVLW NULL;
0EDF   27AA           04644                         CALL P0_DIS2;
                      04645 
0EE0   3079           04646                         MOVLW CAR_E;
0EE1   27AF           04647                         CALL P0_DIS3;
                      04648 
0EE2   306F           04649                         MOVLW NUM_9;
0EE3   27B4           04650                         CALL P0_DIS4;
                      04651 
0EE4   301C           04652                         MOVLW CAR_UU;
0EE5   27B9           04653                         CALL P0_DIS5;
                      04654 
0EE6   3006           04655                         MOVLW NUM_1;
0EE7   27BE           04656                         CALL P0_DIS6;
                      04657 
0EE8   3073           04658                         MOVLW CAR_P;
0EE9   27C3           04659                         CALL P0_DIS7;
                      04660 
0EEA   0BA1           04661 LOOP114         DECFSZ CONTADOR2,F;
MPASM  5.30.01                         TDM 4.ASM   11-21-2023  23:07:44         PAGE 89


LOC  OBJECT CODE     LINE SOURCE TEXT
  VALUE

0EEB   2EEA           04662                         GOTO LOOP114;
0EEC   0BA0           04663                         DECFSZ CONTADOR1,F;
0EED   2ED8           04664                         GOTO FTGRM114;
                      04665                         
0EEE   2786           04666                         CALL LIMPIEZA_PG0;
                      04667 
                      04668 ;---------- Ftgm1 --------- _ _ _ _ _ _ 1
                      04669 
0EEF   302D           04670                         MOVLW M;
0EF0   00A0           04671                         MOVWF CONTADOR1;
0EF1   30FF           04672 FTGRM115                MOVLW N;
0EF2   00A1           04673                         MOVWF CONTADOR2;
                      04674 
0EF3   3006           04675                         MOVLW NUM_1;
0EF4   27A0           04676                         CALL P0_DIS0;
                      04677 
0EF5   3000           04678                         MOVLW NULL;
0EF6   27A5           04679                         CALL P0_DIS1;
                      04680 
0EF7   3079           04681                         MOVLW CAR_E;
0EF8   27AA           04682                         CALL P0_DIS2;
                      04683 
0EF9   306F           04684                         MOVLW NUM_9;
0EFA   27AF           04685                         CALL P0_DIS3;
                      04686 
0EFB   301C           04687                         MOVLW CAR_UU;
0EFC   27B4           04688                         CALL P0_DIS4;
                      04689 
0EFD   3006           04690                         MOVLW NUM_1;
0EFE   27B9           04691                         CALL P0_DIS5;
                      04692 
0EFF   3073           04693                         MOVLW CAR_P;
0F00   27BE           04694                         CALL P0_DIS6;
                      04695 
0F01   305C           04696                         MOVLW CAR_O;
0F02   27C3           04697                         CALL P0_DIS7;
                      04698 
0F03   0BA1           04699 LOOP115         DECFSZ CONTADOR2,F;
0F04   2F03           04700                         GOTO LOOP115;
0F05   0BA0           04701                         DECFSZ CONTADOR1,F;
0F06   2EF1           04702                         GOTO FTGRM115;
                      04703                         
0F07   2786           04704                         CALL LIMPIEZA_PG0;
                      04705 
                      04706 ;---------- Ftgm1 --------- _ _ _ _ _ _ 1
                      04707 
0F08   302D           04708                         MOVLW M;
0F09   00A0           04709                         MOVWF CONTADOR1;
0F0A   30FF           04710 FTGRM116                MOVLW N;
0F0B   00A1           04711                         MOVWF CONTADOR2;
                      04712 
0F0C   3000           04713                         MOVLW NULL;
0F0D   27A0           04714                         CALL P0_DIS0;
MPASM  5.30.01                         TDM 4.ASM   11-21-2023  23:07:44         PAGE 90


LOC  OBJECT CODE     LINE SOURCE TEXT
  VALUE

                      04715 
0F0E   3079           04716                         MOVLW CAR_E;
0F0F   27A5           04717                         CALL P0_DIS1;
                      04718 
0F10   306F           04719                         MOVLW NUM_9;
0F11   27AA           04720                         CALL P0_DIS2;
                      04721 
0F12   301C           04722                         MOVLW CAR_UU;
0F13   27AF           04723                         CALL P0_DIS3;
                      04724 
0F14   3006           04725                         MOVLW NUM_1;
0F15   27B4           04726                         CALL P0_DIS4;
                      04727 
0F16   3073           04728                         MOVLW CAR_P;
0F17   27B9           04729                         CALL P0_DIS5;
                      04730 
0F18   305C           04731                         MOVLW CAR_O;
0F19   27BE           04732                         CALL P0_DIS6;
                      04733 
0F1A   3000           04734                         MOVLW NULL;
0F1B   27C3           04735                         CALL P0_DIS7;
                      04736 
0F1C   0BA1           04737 LOOP116         DECFSZ CONTADOR2,F;
0F1D   2F1C           04738                         GOTO LOOP116;
0F1E   0BA0           04739                         DECFSZ CONTADOR1,F;
0F1F   2F0A           04740                         GOTO FTGRM116;
                      04741                         
0F20   2786           04742                         CALL LIMPIEZA_PG0;
                      04743 
                      04744 ;---------- Ftgm1 --------- _ _ _ _ _ _ 1
                      04745 
0F21   302D           04746                         MOVLW M;
0F22   00A0           04747                         MOVWF CONTADOR1;
0F23   30FF           04748 FTGRM117                MOVLW N;
0F24   00A1           04749                         MOVWF CONTADOR2;
                      04750 
0F25   3079           04751                         MOVLW CAR_E;
0F26   27A0           04752                         CALL P0_DIS0;
                      04753 
0F27   306F           04754                         MOVLW NUM_9;
0F28   27A5           04755                         CALL P0_DIS1;
                      04756 
0F29   301C           04757                         MOVLW CAR_UU;
0F2A   27AA           04758                         CALL P0_DIS2;
                      04759 
0F2B   3006           04760                         MOVLW NUM_1;
0F2C   27AF           04761                         CALL P0_DIS3;
                      04762 
0F2D   3073           04763                         MOVLW CAR_P;
0F2E   27B4           04764                         CALL P0_DIS4;
                      04765 
0F2F   305C           04766                         MOVLW CAR_O;
0F30   27B9           04767                         CALL P0_DIS5;
MPASM  5.30.01                         TDM 4.ASM   11-21-2023  23:07:44         PAGE 91


LOC  OBJECT CODE     LINE SOURCE TEXT
  VALUE

                      04768 
0F31   3000           04769                         MOVLW NULL;
0F32   27BE           04770                         CALL P0_DIS6;
                      04771 
0F33   305B           04772                         MOVLW NUM_2;
0F34   27C3           04773                         CALL P0_DIS7;
                      04774 
0F35   0BA1           04775 LOOP117         DECFSZ CONTADOR2,F;
0F36   2F35           04776                         GOTO LOOP117;
0F37   0BA0           04777                         DECFSZ CONTADOR1,F;
0F38   2F23           04778                         GOTO FTGRM117;
                      04779                         
0F39   2786           04780                         CALL LIMPIEZA_PG0;
                      04781 
                      04782 ;---------- Ftgm1 --------- _ _ _ _ _ _ 1
                      04783 
0F3A   302D           04784                         MOVLW M;
0F3B   00A0           04785                         MOVWF CONTADOR1;
0F3C   30FF           04786 FTGRM118                MOVLW N;
0F3D   00A1           04787                         MOVWF CONTADOR2;
                      04788 
0F3E   306F           04789                         MOVLW NUM_9;
0F3F   27A0           04790                         CALL P0_DIS0;
                      04791 
0F40   301C           04792                         MOVLW CAR_UU;
0F41   27A5           04793                         CALL P0_DIS1;
                      04794 
0F42   3006           04795                         MOVLW NUM_1;
0F43   27AA           04796                         CALL P0_DIS2;
                      04797 
0F44   3073           04798                         MOVLW CAR_P;
0F45   27AF           04799                         CALL P0_DIS3;
                      04800 
0F46   305C           04801                         MOVLW CAR_O;
0F47   27B4           04802                         CALL P0_DIS4;
                      04803 
0F48   3000           04804                         MOVLW NULL;
0F49   27B9           04805                         CALL P0_DIS5;
                      04806 
0F4A   305B           04807                         MOVLW NUM_2;
0F4B   27BE           04808                         CALL P0_DIS6;
                      04809 
0F4C   3000           04810                         MOVLW NULL;
0F4D   27C3           04811                         CALL P0_DIS7;
                      04812 
0F4E   0BA1           04813 LOOP118         DECFSZ CONTADOR2,F;
0F4F   2F4E           04814                         GOTO LOOP118;
0F50   0BA0           04815                         DECFSZ CONTADOR1,F;
0F51   2F3C           04816                         GOTO FTGRM118;
                      04817                         
0F52   2786           04818                         CALL LIMPIEZA_PG0;
                      04819 
                      04820 
MPASM  5.30.01                         TDM 4.ASM   11-21-2023  23:07:44         PAGE 92


LOC  OBJECT CODE     LINE SOURCE TEXT
  VALUE

                      04821 ;---------- Ftgm1 --------- _ _ _ _ _ _ 1
                      04822 
0F53   302D           04823                         MOVLW M;
0F54   00A0           04824                         MOVWF CONTADOR1;
0F55   30FF           04825 FTGRM118.1              MOVLW N;
0F56   00A1           04826                         MOVWF CONTADOR2;
                      04827 
0F57   306F           04828                         MOVLW NUM_9;
0F58   27A0           04829                         CALL P0_DIS0;
                      04830 
0F59   301C           04831                         MOVLW CAR_UU;
0F5A   27A5           04832                         CALL P0_DIS1;
                      04833 
0F5B   3006           04834                         MOVLW NUM_1;
0F5C   27AA           04835                         CALL P0_DIS2;
                      04836 
0F5D   3073           04837                         MOVLW CAR_P;
0F5E   27AF           04838                         CALL P0_DIS3;
                      04839 
0F5F   305C           04840                         MOVLW CAR_O;
0F60   27B4           04841                         CALL P0_DIS4;
                      04842 
0F61   3000           04843                         MOVLW NULL;
0F62   27B9           04844                         CALL P0_DIS5;
                      04845 
0F63   305B           04846                         MOVLW NUM_2;
0F64   27BE           04847                         CALL P0_DIS6;
                      04848 
0F65   3000           04849                         MOVLW NULL;
0F66   27C3           04850                         CALL P0_DIS7;
                      04851 
0F67   0BA1           04852 LOOP118.1               DECFSZ CONTADOR2,F;
0F68   2F67           04853                         GOTO LOOP118.1;
0F69   0BA0           04854                         DECFSZ CONTADOR1,F;
0F6A   2F55           04855                         GOTO FTGRM118.1;
                      04856                         
0F6B   2786           04857                         CALL LIMPIEZA_PG0;
                      04858 
                      04859 ;---------- Ftgm1 --------- _ _ _ _ _ _ 1
                      04860 
0F6C   302D           04861                         MOVLW M;
0F6D   00A0           04862                         MOVWF CONTADOR1;
0F6E   30FF           04863 FTGRM119                MOVLW N;
0F6F   00A1           04864                         MOVWF CONTADOR2;
                      04865 
0F70   301C           04866                         MOVLW CAR_UU;
0F71   27A0           04867                         CALL P0_DIS0;
                      04868 
0F72   3006           04869                         MOVLW NUM_1;
0F73   27A5           04870                         CALL P0_DIS1;
                      04871 
0F74   3073           04872                         MOVLW CAR_P;
0F75   27AA           04873                         CALL P0_DIS2;
MPASM  5.30.01                         TDM 4.ASM   11-21-2023  23:07:44         PAGE 93


LOC  OBJECT CODE     LINE SOURCE TEXT
  VALUE

                      04874 
0F76   305C           04875                         MOVLW CAR_O;
0F77   27AF           04876                         CALL P0_DIS3;
                      04877 
0F78   3000           04878                         MOVLW NULL;
0F79   27B4           04879                         CALL P0_DIS4;
                      04880 
0F7A   305B           04881                         MOVLW NUM_2;
0F7B   27B9           04882                         CALL P0_DIS5;
                      04883 
0F7C   3000           04884                         MOVLW NULL;
0F7D   27BE           04885                         CALL P0_DIS6;
                      04886 
0F7E   3006           04887                         MOVLW NUM_1;
0F7F   27C3           04888                         CALL P0_DIS7;
                      04889 
0F80   0BA1           04890 LOOP119         DECFSZ CONTADOR2,F;
0F81   2F80           04891                         GOTO LOOP119;
0F82   0BA0           04892                         DECFSZ CONTADOR1,F;
0F83   2F6E           04893                         GOTO FTGRM119;
                      04894                         
0F84   2786           04895                         CALL LIMPIEZA_PG0;
                      04896 
                      04897 
0F85   2FC8           04898                         GOTO PG2;                       
                      04899 
                      04900                         ;=======================
                      04901                         ;== Limpia displays ====
                      04902                         ;=======================
                      04903                         
0F86   1408           04904 LIMPIEZA_PG0    BSF     PORTD,DIS0;
0F87   1488           04905                                 BSF     PORTD,DIS1;
0F88   1508           04906                                 BSF     PORTD,DIS2;
0F89   1588           04907                                 BSF     PORTD,DIS3;
0F8A   1608           04908                                 BSF     PORTD,DIS4;
0F8B   1688           04909                                 BSF     PORTD,DIS5;
0F8C   1708           04910                                 BSF     PORTD,DIS6;
0F8D   1788           04911                                 BSF     PORTD,DIS7;
                      04912                         
0F8E   1006           04913                                 BCF PORTB,A_RB0;
0F8F   1086           04914                                 BCF PORTB,B_RB1;
0F90   1106           04915                                 BCF PORTB,C_RB2;
0F91   1186           04916                                 BCF PORTB,D_RB3;
0F92   1206           04917                                 BCF PORTB,E_RB4;
0F93   1286           04918                                 BCF PORTB,F_RB5;
0F94   1306           04919                                 BCF PORTB,G_RB6;
0F95   1386           04920                                 BCF PORTB,DP_RB7;
                      04921                         
0F96   0008           04922                                 RETURN;
                      04923                         
                      04924 ;---------------------------------------------------------------------------------------------
                      04925                         ; ====================
                      04926                         ; === Retardo Menor ==
MPASM  5.30.01                         TDM 4.ASM   11-21-2023  23:07:44         PAGE 94


LOC  OBJECT CODE     LINE SOURCE TEXT
  VALUE

                      04927                         ; ====================
0F97   3003           04928 RMN_PG0         MOVLW L;
0F98   00A2           04929                         MOVWF CONTADOR3;
0F99   307E           04930 LOOPR1          MOVLW K;
0F9A   00A3           04931                         MOVWF CONTADOR4;
                      04932                         
0F9B   0BA3           04933 LOOPRB0         DECFSZ CONTADOR4,F;
0F9C   2F9B           04934                         GOTO LOOPRB0;
0F9D   0BA2           04935                         DECFSZ CONTADOR3,F;
0F9E   2F99           04936                         GOTO LOOPR1;
                      04937 
0F9F   0008           04938                         RETURN;
                      04939 ;---------------------------------------------------------------------------------------------
                      04940                         ;========================
                      04941                         ;=== Pulsos de cambio ===
                      04942                         ;========================
0FA0   0086           04943 P0_DIS0         MOVWF PORTB;
0FA1   1008           04944                         BCF PORTD,DIS0;
0FA2   2797           04945                         CALL RMN_PG0;
0FA3   1408           04946                         BSF PORTD,DIS0;
0FA4   0008           04947                         RETURN;
                      04948 
0FA5   0086           04949 P0_DIS1         MOVWF PORTB;
0FA6   1088           04950                         BCF PORTD,DIS1;
0FA7   2797           04951                         CALL RMN_PG0;
0FA8   1488           04952                         BSF PORTD,DIS1;
0FA9   0008           04953                         RETURN;
                      04954 
0FAA   0086           04955 P0_DIS2         MOVWF PORTB;
0FAB   1108           04956                         BCF PORTD,DIS2;
0FAC   2797           04957                         CALL RMN_PG0;
0FAD   1508           04958                         BSF PORTD,DIS2;
0FAE   0008           04959                         RETURN;
                      04960 
0FAF   0086           04961 P0_DIS3         MOVWF PORTB;
0FB0   1188           04962                         BCF PORTD,DIS3;
0FB1   2797           04963                         CALL RMN_PG0;
0FB2   1588           04964                         BSF PORTD,DIS3;
0FB3   0008           04965                         RETURN;
                      04966 
0FB4   0086           04967 P0_DIS4         MOVWF PORTB;
0FB5   1208           04968                         BCF PORTD,DIS4;
0FB6   2797           04969                         CALL RMN_PG0;
0FB7   1608           04970                         BSF PORTD,DIS4;
0FB8   0008           04971                         RETURN;
                      04972 
0FB9   0086           04973 P0_DIS5         MOVWF PORTB;
0FBA   1288           04974                         BCF PORTD,DIS5;
0FBB   2797           04975                         CALL RMN_PG0;
0FBC   1688           04976                         BSF PORTD,DIS5;
0FBD   0008           04977                         RETURN;
                      04978 
0FBE   0086           04979 P0_DIS6         MOVWF PORTB;
MPASM  5.30.01                         TDM 4.ASM   11-21-2023  23:07:44         PAGE 95


LOC  OBJECT CODE     LINE SOURCE TEXT
  VALUE

0FBF   1308           04980                         BCF PORTD,DIS6;
0FC0   2797           04981                         CALL RMN_PG0;
0FC1   1708           04982                         BSF PORTD,DIS6;
0FC2   0008           04983                         RETURN;
                      04984 
0FC3   0086           04985 P0_DIS7         MOVWF PORTB;
0FC4   1388           04986                         BCF PORTD,DIS7;
0FC5   2797           04987                         CALL RMN_PG0;
0FC6   1788           04988                         BSF PORTD,DIS7;
0FC7   0008           04989                         RETURN;
                      04990 
0FC8   160A           04991 PG2                     BSF PCLATH,.4;
0FC9   118A           04992                         BCF PCLATH,.3;
1000                  04993                         ORG 0X1000;
                      04994 
                      04995 
                      04996 ;---------- Ftgm1 --------- _ _ _ _ _ _ 1
                      04997 
1000   302D           04998                         MOVLW M;
1001   00A0           04999                         MOVWF CONTADOR1;
1002   30FF           05000 FTGRM120                MOVLW N;
1003   00A1           05001                         MOVWF CONTADOR2;
                      05002 
1004   3006           05003                         MOVLW NUM_1;
1005   24FD           05004                         CALL MP0_DIS0;
                      05005 
1006   3073           05006                         MOVLW CAR_P;
1007   2502           05007                         CALL MP0_DIS1;
                      05008 
1008   305C           05009                         MOVLW CAR_O;
1009   2507           05010                         CALL MP0_DIS2;
                      05011 
100A   3000           05012                         MOVLW NULL;
100B   250C           05013                         CALL MP0_DIS3;
                      05014 
100C   305B           05015                         MOVLW NUM_2;
100D   2511           05016                         CALL MP0_DIS4;
                      05017 
100E   3000           05018                         MOVLW NULL;
100F   2516           05019                         CALL MP0_DIS5;
                      05020 
1010   3006           05021                         MOVLW NUM_1;
1011   251B           05022                         CALL MP0_DIS6;
                      05023 
1012   3054           05024                         MOVLW CAR_NN;
1013   2520           05025                         CALL MP0_DIS7;
                      05026 
1014   0BA1           05027 LOOP120         DECFSZ CONTADOR2,F;
1015   2814           05028                         GOTO LOOP120;
1016   0BA0           05029                         DECFSZ CONTADOR1,F;
1017   2802           05030                         GOTO FTGRM120;
                      05031                         
1018   24E3           05032                         CALL MLIMPIEZA_PG0;
MPASM  5.30.01                         TDM 4.ASM   11-21-2023  23:07:44         PAGE 96


LOC  OBJECT CODE     LINE SOURCE TEXT
  VALUE

                      05033 
                      05034 ;---------- Ftgm1 --------- _ _ _ _ _ _ 1
                      05035 
1019   302D           05036                         MOVLW M;
101A   00A0           05037                         MOVWF CONTADOR1;
101B   30FF           05038 FTGRM121                MOVLW N;
101C   00A1           05039                         MOVWF CONTADOR2;
                      05040 
101D   3073           05041                         MOVLW CAR_P;
101E   24FD           05042                         CALL MP0_DIS0;
                      05043 
101F   305C           05044                         MOVLW CAR_O;
1020   2502           05045                         CALL MP0_DIS1;
                      05046 
1021   3000           05047                         MOVLW NULL;
1022   2507           05048                         CALL MP0_DIS2;
                      05049 
1023   305B           05050                         MOVLW NUM_2;
1024   250C           05051                         CALL MP0_DIS3;
                      05052 
1025   3000           05053                         MOVLW NULL;
1026   2511           05054                         CALL MP0_DIS4;
                      05055 
1027   3006           05056                         MOVLW NUM_1;
1028   2516           05057                         CALL MP0_DIS5;
                      05058 
1029   3054           05059                         MOVLW CAR_NN;
102A   251B           05060                         CALL MP0_DIS6;
                      05061 
102B   3078           05062                         MOVLW CAR_T;
102C   2520           05063                         CALL MP0_DIS7;
                      05064 
102D   0BA1           05065 LOOP121         DECFSZ CONTADOR2,F;
102E   282D           05066                         GOTO LOOP121;
102F   0BA0           05067                         DECFSZ CONTADOR1,F;
1030   281B           05068                         GOTO FTGRM121;
                      05069                         
1031   24E3           05070                         CALL MLIMPIEZA_PG0;
                      05071 
                      05072 ;---------- Ftgm1 --------- _ _ _ _ _ _ 1
                      05073 
1032   302D           05074                         MOVLW M;
1033   00A0           05075                         MOVWF CONTADOR1;
1034   30FF           05076 FTGRM122                MOVLW N;
1035   00A1           05077                         MOVWF CONTADOR2;
                      05078 
1036   305C           05079                         MOVLW CAR_O;
1037   24FD           05080                         CALL MP0_DIS0;
                      05081 
1038   3000           05082                         MOVLW NULL;
1039   2502           05083                         CALL MP0_DIS1;
                      05084 
103A   305B           05085                         MOVLW NUM_2;
MPASM  5.30.01                         TDM 4.ASM   11-21-2023  23:07:44         PAGE 97


LOC  OBJECT CODE     LINE SOURCE TEXT
  VALUE

103B   2507           05086                         CALL MP0_DIS2;
                      05087 
103C   3000           05088                         MOVLW NULL;
103D   250C           05089                         CALL MP0_DIS3;
                      05090 
103E   3006           05091                         MOVLW NUM_1;
103F   2511           05092                         CALL MP0_DIS4;
                      05093 
1040   3054           05094                         MOVLW CAR_NN;
1041   2516           05095                         CALL MP0_DIS5;
                      05096 
1042   3078           05097                         MOVLW CAR_T;
1043   251B           05098                         CALL MP0_DIS6;
                      05099 
1044   3079           05100                         MOVLW CAR_E;
1045   2520           05101                         CALL MP0_DIS7;
                      05102 
1046   0BA1           05103 LOOP122         DECFSZ CONTADOR2,F;
1047   2846           05104                         GOTO LOOP122;
1048   0BA0           05105                         DECFSZ CONTADOR1,F;
1049   2834           05106                         GOTO FTGRM122;
                      05107                         
104A   24E3           05108                         CALL MLIMPIEZA_PG0;
                      05109 
                      05110 ;---------- Ftgm1 --------- _ _ _ _ _ _ 1
                      05111 
104B   302D           05112                         MOVLW M;
104C   00A0           05113                         MOVWF CONTADOR1;
104D   30FF           05114 FTGRM123                MOVLW N;
104E   00A1           05115                         MOVWF CONTADOR2;
                      05116 
104F   3000           05117                         MOVLW NULL;
1050   24FD           05118                         CALL MP0_DIS0;
                      05119 
1051   305B           05120                         MOVLW NUM_2;
1052   2502           05121                         CALL MP0_DIS1;
                      05122 
1053   3000           05123                         MOVLW NULL;
1054   2507           05124                         CALL MP0_DIS2;
                      05125 
1055   3006           05126                         MOVLW NUM_1;
1056   250C           05127                         CALL MP0_DIS3;
                      05128 
1057   3054           05129                         MOVLW CAR_NN;
1058   2511           05130                         CALL MP0_DIS4;
                      05131 
1059   3078           05132                         MOVLW CAR_T;
105A   2516           05133                         CALL MP0_DIS5;
                      05134 
105B   3079           05135                         MOVLW CAR_E;
105C   251B           05136                         CALL MP0_DIS6;
                      05137 
105D   307D           05138                         MOVLW NUM_6;
MPASM  5.30.01                         TDM 4.ASM   11-21-2023  23:07:44         PAGE 98


LOC  OBJECT CODE     LINE SOURCE TEXT
  VALUE

105E   2520           05139                         CALL MP0_DIS7;
                      05140 
105F   0BA1           05141 LOOP123         DECFSZ CONTADOR2,F;
1060   285F           05142                         GOTO LOOP123;
1061   0BA0           05143                         DECFSZ CONTADOR1,F;
1062   284D           05144                         GOTO FTGRM123;
                      05145                         
1063   24E3           05146                         CALL MLIMPIEZA_PG0;
                      05147 
                      05148 ;---------- Ftgm1 --------- _ _ _ _ _ _ 1
                      05149 
1064   302D           05150                         MOVLW M;
1065   00A0           05151                         MOVWF CONTADOR1;
1066   30FF           05152 FTGRM124                MOVLW N;
1067   00A1           05153                         MOVWF CONTADOR2;
                      05154 
1068   305B           05155                         MOVLW NUM_2;
1069   24FD           05156                         CALL MP0_DIS0;
                      05157 
106A   3000           05158                         MOVLW NULL;
106B   2502           05159                         CALL MP0_DIS1;
                      05160 
106C   3006           05161                         MOVLW NUM_1;
106D   2507           05162                         CALL MP0_DIS2;
                      05163 
106E   3054           05164                         MOVLW CAR_NN;
106F   250C           05165                         CALL MP0_DIS3;
                      05166 
1070   3078           05167                         MOVLW CAR_T;
1071   2511           05168                         CALL MP0_DIS4;
                      05169 
1072   3079           05170                         MOVLW CAR_E;
1073   2516           05171                         CALL MP0_DIS5;
                      05172 
1074   307D           05173                         MOVLW NUM_6;
1075   251B           05174                         CALL MP0_DIS6;
                      05175 
1076   3050           05176                         MOVLW CAR_R;
1077   2520           05177                         CALL MP0_DIS7;
                      05178 
1078   0BA1           05179 LOOP124         DECFSZ CONTADOR2,F;
1079   2878           05180                         GOTO LOOP124;
107A   0BA0           05181                         DECFSZ CONTADOR1,F;
107B   2866           05182                         GOTO FTGRM124;
                      05183                         
107C   24E3           05184                         CALL MLIMPIEZA_PG0;
                      05185 
                      05186 ;---------- Ftgm1 --------- _ _ _ _ _ _ 1
                      05187 
107D   302D           05188                         MOVLW M;
107E   00A0           05189                         MOVWF CONTADOR1;
107F   30FF           05190 FTGRM125                MOVLW N;
1080   00A1           05191                         MOVWF CONTADOR2;
MPASM  5.30.01                         TDM 4.ASM   11-21-2023  23:07:44         PAGE 99


LOC  OBJECT CODE     LINE SOURCE TEXT
  VALUE

                      05192 
1081   3000           05193                         MOVLW NULL;
1082   24FD           05194                         CALL MP0_DIS0;
                      05195 
1083   3006           05196                         MOVLW NUM_1;
1084   2502           05197                         CALL MP0_DIS1;
                      05198 
1085   3054           05199                         MOVLW CAR_NN;
1086   2507           05200                         CALL MP0_DIS2;
                      05201 
1087   3078           05202                         MOVLW CAR_T;
1088   250C           05203                         CALL MP0_DIS3;
                      05204 
1089   3079           05205                         MOVLW CAR_E;
108A   2511           05206                         CALL MP0_DIS4;
                      05207 
108B   307D           05208                         MOVLW NUM_6;
108C   2516           05209                         CALL MP0_DIS5;
                      05210 
108D   3050           05211                         MOVLW CAR_R;
108E   251B           05212                         CALL MP0_DIS6;
                      05213 
108F   3077           05214                         MOVLW CAR_A;
1090   2520           05215                         CALL MP0_DIS7;
                      05216 
1091   0BA1           05217 LOOP125         DECFSZ CONTADOR2,F;
1092   2891           05218                         GOTO LOOP125;
1093   0BA0           05219                         DECFSZ CONTADOR1,F;
1094   287F           05220                         GOTO FTGRM125;
                      05221                         
1095   24E3           05222                         CALL MLIMPIEZA_PG0;
                      05223 
                      05224 ;---------- Ftgm1 --------- _ _ _ _ _ _ 1
                      05225 
1096   302D           05226                         MOVLW M;
1097   00A0           05227                         MOVWF CONTADOR1;
1098   30FF           05228 FTGRM126                MOVLW N;
1099   00A1           05229                         MOVWF CONTADOR2;
                      05230 
109A   3006           05231                         MOVLW NUM_1;
109B   24FD           05232                         CALL MP0_DIS0;
                      05233 
109C   3054           05234                         MOVLW CAR_NN;
109D   2502           05235                         CALL MP0_DIS1;
                      05236 
109E   3078           05237                         MOVLW CAR_T;
109F   2507           05238                         CALL MP0_DIS2;
                      05239 
10A0   3079           05240                         MOVLW CAR_E;
10A1   250C           05241                         CALL MP0_DIS3;
                      05242 
10A2   307D           05243                         MOVLW NUM_6;
10A3   2511           05244                         CALL MP0_DIS4;
MPASM  5.30.01                         TDM 4.ASM   11-21-2023  23:07:44         PAGE 100


LOC  OBJECT CODE     LINE SOURCE TEXT
  VALUE

                      05245 
10A4   3050           05246                         MOVLW CAR_R;
10A5   2516           05247                         CALL MP0_DIS5;
                      05248 
10A6   3077           05249                         MOVLW CAR_A;
10A7   251B           05250                         CALL MP0_DIS6;
                      05251 
10A8   3054           05252                         MOVLW CAR_NN;
10A9   2520           05253                         CALL MP0_DIS7;
                      05254 
10AA   0BA1           05255 LOOP126         DECFSZ CONTADOR2,F;
10AB   28AA           05256                         GOTO LOOP126;
10AC   0BA0           05257                         DECFSZ CONTADOR1,F;
10AD   2898           05258                         GOTO FTGRM126;
                      05259                         
10AE   24E3           05260                         CALL MLIMPIEZA_PG0;
                      05261 
                      05262 ;---------- Ftgm1 --------- _ _ _ _ _ _ 1
                      05263 
10AF   302D           05264                         MOVLW M;
10B0   00A0           05265                         MOVWF CONTADOR1;
10B1   30FF           05266 FTGRM127                MOVLW N;
10B2   00A1           05267                         MOVWF CONTADOR2;
                      05268 
10B3   3054           05269                         MOVLW CAR_NN;
10B4   24FD           05270                         CALL MP0_DIS0;
                      05271 
10B5   3078           05272                         MOVLW CAR_T;
10B6   2502           05273                         CALL MP0_DIS1;
                      05274 
10B7   3079           05275                         MOVLW CAR_E;
10B8   2507           05276                         CALL MP0_DIS2;
                      05277 
10B9   307D           05278                         MOVLW NUM_6;
10BA   250C           05279                         CALL MP0_DIS3;
                      05280 
10BB   3050           05281                         MOVLW CAR_R;
10BC   2511           05282                         CALL MP0_DIS4;
                      05283 
10BD   3077           05284                         MOVLW CAR_A;
10BE   2516           05285                         CALL MP0_DIS5;
                      05286 
10BF   3037           05287                         MOVLW CAR_N;
10C0   251B           05288                         CALL MP0_DIS6;
                      05289 
10C1   3078           05290                         MOVLW CAR_T;
10C2   2520           05291                         CALL MP0_DIS7;
                      05292 
10C3   0BA1           05293 LOOP127         DECFSZ CONTADOR2,F;
10C4   28C3           05294                         GOTO LOOP127;
10C5   0BA0           05295                         DECFSZ CONTADOR1,F;
10C6   28B1           05296                         GOTO FTGRM127;
                      05297                         
MPASM  5.30.01                         TDM 4.ASM   11-21-2023  23:07:44         PAGE 101


LOC  OBJECT CODE     LINE SOURCE TEXT
  VALUE

10C7   24E3           05298                         CALL MLIMPIEZA_PG0;
                      05299 
                      05300 ;---------- Ftgm1 --------- _ _ _ _ _ _ 1
                      05301 
10C8   302D           05302                         MOVLW M;
10C9   00A0           05303                         MOVWF CONTADOR1;
10CA   30FF           05304 FTGRM128                MOVLW N;
10CB   00A1           05305                         MOVWF CONTADOR2;
                      05306 
10CC   3078           05307                         MOVLW CAR_T;
10CD   24FD           05308                         CALL MP0_DIS0;
                      05309 
10CE   3079           05310                         MOVLW CAR_E;
10CF   2502           05311                         CALL MP0_DIS1;
                      05312 
10D0   307D           05313                         MOVLW NUM_6;
10D1   2507           05314                         CALL MP0_DIS2;
                      05315 
10D2   3050           05316                         MOVLW CAR_R;
10D3   250C           05317                         CALL MP0_DIS3;
                      05318 
10D4   3077           05319                         MOVLW CAR_A;
10D5   2511           05320                         CALL MP0_DIS4;
                      05321 
10D6   3037           05322                         MOVLW CAR_N;
10D7   2516           05323                         CALL MP0_DIS5;
                      05324 
10D8   3078           05325                         MOVLW CAR_T;
10D9   251B           05326                         CALL MP0_DIS6;
                      05327 
10DA   3079           05328                         MOVLW CAR_E;
10DB   2520           05329                         CALL MP0_DIS7;
                      05330 
10DC   0BA1           05331 LOOP128         DECFSZ CONTADOR2,F;
10DD   28DC           05332                         GOTO LOOP128;
10DE   0BA0           05333                         DECFSZ CONTADOR1,F;
10DF   28CA           05334                         GOTO FTGRM128;
                      05335                         
10E0   24E3           05336                         CALL MLIMPIEZA_PG0;
                      05337 
                      05338 ;---------- Ftgm1 --------- _ _ _ _ _ _ 1
                      05339 
10E1   302D           05340                         MOVLW M;
10E2   00A0           05341                         MOVWF CONTADOR1;
10E3   30FF           05342 FTGRM129                MOVLW N;
10E4   00A1           05343                         MOVWF CONTADOR2;
                      05344 
10E5   3079           05345                         MOVLW CAR_E;
10E6   24FD           05346                         CALL MP0_DIS0;
                      05347 
10E7   307D           05348                         MOVLW NUM_6;
10E8   2502           05349                         CALL MP0_DIS1;
                      05350 
MPASM  5.30.01                         TDM 4.ASM   11-21-2023  23:07:44         PAGE 102


LOC  OBJECT CODE     LINE SOURCE TEXT
  VALUE

10E9   3050           05351                         MOVLW CAR_R;
10EA   2507           05352                         CALL MP0_DIS2;
                      05353 
10EB   3077           05354                         MOVLW CAR_A;
10EC   250C           05355                         CALL MP0_DIS3;
                      05356 
10ED   3037           05357                         MOVLW CAR_N;
10EE   2511           05358                         CALL MP0_DIS4;
                      05359 
10EF   3078           05360                         MOVLW CAR_T;
10F0   2516           05361                         CALL MP0_DIS5;
                      05362 
10F1   3079           05363                         MOVLW CAR_E;
10F2   251B           05364                         CALL MP0_DIS6;
                      05365 
10F3   306D           05366                         MOVLW NUM_5;
10F4   2520           05367                         CALL MP0_DIS7;
                      05368 
10F5   0BA1           05369 LOOP129         DECFSZ CONTADOR2,F;
10F6   28F5           05370                         GOTO LOOP129;
10F7   0BA0           05371                         DECFSZ CONTADOR1,F;
10F8   28E3           05372                         GOTO FTGRM129;
                      05373                         
10F9   24E3           05374                         CALL MLIMPIEZA_PG0;
                      05375 
                      05376 ;---------- Ftgm1 --------- _ _ _ _ _ _ 1
                      05377 
10FA   302D           05378                         MOVLW M;
10FB   00A0           05379                         MOVWF CONTADOR1;
10FC   30FF           05380 FTGRM130                MOVLW N;
10FD   00A1           05381                         MOVWF CONTADOR2;
                      05382 
10FE   307D           05383                         MOVLW NUM_6;
10FF   24FD           05384                         CALL MP0_DIS0;
                      05385 
1100   3050           05386                         MOVLW CAR_R;
1101   2502           05387                         CALL MP0_DIS1;
                      05388 
1102   3077           05389                         MOVLW CAR_A;
1103   2507           05390                         CALL MP0_DIS2;
                      05391 
1104   3037           05392                         MOVLW CAR_N;
1105   250C           05393                         CALL MP0_DIS3;
                      05394 
1106   3078           05395                         MOVLW CAR_T;
1107   2511           05396                         CALL MP0_DIS4;
                      05397 
1108   3079           05398                         MOVLW CAR_E;
1109   2516           05399                         CALL MP0_DIS5;
                      05400 
110A   306D           05401                         MOVLW NUM_5;
110B   251B           05402                         CALL MP0_DIS6;
                      05403 
MPASM  5.30.01                         TDM 4.ASM   11-21-2023  23:07:44         PAGE 103


LOC  OBJECT CODE     LINE SOURCE TEXT
  VALUE

110C   3000           05404                         MOVLW NULL;
110D   2520           05405                         CALL MP0_DIS7;
                      05406 
110E   0BA1           05407 LOOP130         DECFSZ CONTADOR2,F;
110F   290E           05408                         GOTO LOOP130;
1110   0BA0           05409                         DECFSZ CONTADOR1,F;
1111   28FC           05410                         GOTO FTGRM130;
                      05411                         
1112   24E3           05412                         CALL MLIMPIEZA_PG0;
                      05413 
                      05414 ;---------- Ftgm1 --------- _ _ _ _ _ _ 1
                      05415 
1113   302D           05416                         MOVLW M;
1114   00A0           05417                         MOVWF CONTADOR1;
1115   30FF           05418 FTGRM131                MOVLW N;
1116   00A1           05419                         MOVWF CONTADOR2;
                      05420 
1117   3050           05421                         MOVLW CAR_R;
1118   24FD           05422                         CALL MP0_DIS0;
                      05423 
1119   3077           05424                         MOVLW CAR_A;
111A   2502           05425                         CALL MP0_DIS1;
                      05426 
111B   3054           05427                         MOVLW CAR_NN;
111C   2507           05428                         CALL MP0_DIS2;
                      05429 
111D   3078           05430                         MOVLW CAR_T;
111E   250C           05431                         CALL MP0_DIS3;
                      05432 
111F   3079           05433                         MOVLW CAR_E;
1120   2511           05434                         CALL MP0_DIS4;
                      05435 
1121   306D           05436                         MOVLW NUM_5;
1122   2516           05437                         CALL MP0_DIS5;
                      05438 
1123   3000           05439                         MOVLW NULL;
1124   251B           05440                         CALL MP0_DIS6;
                      05441 
1125   3037           05442                         MOVLW CAR_N;
1126   2520           05443                         CALL MP0_DIS7;
                      05444 
1127   0BA1           05445 LOOP131         DECFSZ CONTADOR2,F;
1128   2927           05446                         GOTO LOOP131;
1129   0BA0           05447                         DECFSZ CONTADOR1,F;
112A   2915           05448                         GOTO FTGRM131;
                      05449                         
112B   24E3           05450                         CALL MLIMPIEZA_PG0;
                      05451 
                      05452 ;---------- Ftgm1 --------- _ _ _ _ _ _ 1
                      05453 
112C   302D           05454                         MOVLW M;
112D   00A0           05455                         MOVWF CONTADOR1;
112E   30FF           05456 FTGRM132                MOVLW N;
MPASM  5.30.01                         TDM 4.ASM   11-21-2023  23:07:44         PAGE 104


LOC  OBJECT CODE     LINE SOURCE TEXT
  VALUE

112F   00A1           05457                         MOVWF CONTADOR2;
                      05458 
1130   3077           05459                         MOVLW CAR_A;
1131   24FD           05460                         CALL MP0_DIS0;
                      05461 
1132   3054           05462                         MOVLW CAR_NN;
1133   2502           05463                         CALL MP0_DIS1;
                      05464 
1134   3078           05465                         MOVLW CAR_T;
1135   2507           05466                         CALL MP0_DIS2;
                      05467 
1136   3079           05468                         MOVLW CAR_E;
1137   250C           05469                         CALL MP0_DIS3;
                      05470 
1138   306D           05471                         MOVLW NUM_5;
1139   2511           05472                         CALL MP0_DIS4;
                      05473 
113A   3000           05474                         MOVLW NULL;
113B   2516           05475                         CALL MP0_DIS5;
                      05476 
113C   3037           05477                         MOVLW CAR_N;
113D   251B           05478                         CALL MP0_DIS6;
                      05479 
113E   3037           05480                         MOVLW CAR_N;
113F   2520           05481                         CALL MP0_DIS7;
                      05482 
1140   0BA1           05483 LOOP132         DECFSZ CONTADOR2,F;
1141   2940           05484                         GOTO LOOP132;
1142   0BA0           05485                         DECFSZ CONTADOR1,F;
1143   292E           05486                         GOTO FTGRM132;
                      05487                         
1144   24E3           05488                         CALL MLIMPIEZA_PG0;
                      05489 
                      05490 ;---------- Ftgm1 --------- _ _ _ _ _ _ 1
                      05491 
1145   302D           05492                         MOVLW M;
1146   00A0           05493                         MOVWF CONTADOR1;
1147   30FF           05494 FTGRM133                MOVLW N;
1148   00A1           05495                         MOVWF CONTADOR2;
                      05496 
1149   3054           05497                         MOVLW CAR_NN;
114A   24FD           05498                         CALL MP0_DIS0;
                      05499 
114B   3078           05500                         MOVLW CAR_T;
114C   2502           05501                         CALL MP0_DIS1;
                      05502 
114D   3079           05503                         MOVLW CAR_E;
114E   2507           05504                         CALL MP0_DIS2;
                      05505 
114F   306D           05506                         MOVLW NUM_5;
1150   250C           05507                         CALL MP0_DIS3;
                      05508 
1151   3000           05509                         MOVLW NULL;
MPASM  5.30.01                         TDM 4.ASM   11-21-2023  23:07:44         PAGE 105


LOC  OBJECT CODE     LINE SOURCE TEXT
  VALUE

1152   2511           05510                         CALL MP0_DIS4;
                      05511 
1153   3037           05512                         MOVLW CAR_N;
1154   2516           05513                         CALL MP0_DIS5;
                      05514 
1155   3037           05515                         MOVLW CAR_N;
1156   251B           05516                         CALL MP0_DIS6;
                      05517 
1157   3077           05518                         MOVLW CAR_A;
1158   2520           05519                         CALL MP0_DIS7;
                      05520 
1159   0BA1           05521 LOOP133         DECFSZ CONTADOR2,F;
115A   2959           05522                         GOTO LOOP133;
115B   0BA0           05523                         DECFSZ CONTADOR1,F;
115C   2947           05524                         GOTO FTGRM133;
                      05525                         
115D   24E3           05526                         CALL MLIMPIEZA_PG0;
                      05527 
                      05528 ;---------- Ftgm1 --------- _ _ _ _ _ _ 1
                      05529 
115E   302D           05530                         MOVLW M;
115F   00A0           05531                         MOVWF CONTADOR1;
1160   30FF           05532 FTGRM134                MOVLW N;
1161   00A1           05533                         MOVWF CONTADOR2;
                      05534 
1162   3078           05535                         MOVLW CAR_T;
1163   24FD           05536                         CALL MP0_DIS0;
                      05537 
1164   3079           05538                         MOVLW CAR_E;
1165   2502           05539                         CALL MP0_DIS1;
                      05540 
1166   306D           05541                         MOVLW NUM_5;
1167   2507           05542                         CALL MP0_DIS2;
                      05543 
1168   3000           05544                         MOVLW NULL;
1169   250C           05545                         CALL MP0_DIS3;
                      05546 
116A   3037           05547                         MOVLW CAR_N;
116B   2511           05548                         CALL MP0_DIS4;
                      05549 
116C   3037           05550                         MOVLW CAR_N;
116D   2516           05551                         CALL MP0_DIS5;
                      05552 
116E   3077           05553                         MOVLW CAR_A;
116F   251B           05554                         CALL MP0_DIS6;
                      05555 
1170   3050           05556                         MOVLW CAR_R;
1171   2520           05557                         CALL MP0_DIS7;
                      05558 
1172   0BA1           05559 LOOP134         DECFSZ CONTADOR2,F;
1173   2972           05560                         GOTO LOOP134;
1174   0BA0           05561                         DECFSZ CONTADOR1,F;
1175   2960           05562                         GOTO FTGRM134;
MPASM  5.30.01                         TDM 4.ASM   11-21-2023  23:07:44         PAGE 106


LOC  OBJECT CODE     LINE SOURCE TEXT
  VALUE

                      05563                         
1176   24E3           05564                         CALL MLIMPIEZA_PG0;
                      05565 
                      05566 ;---------- Ftgm1 --------- _ _ _ _ _ _ 1
                      05567 
1177   302D           05568                         MOVLW M;
1178   00A0           05569                         MOVWF CONTADOR1;
1179   30FF           05570 FTGRM135                MOVLW N;
117A   00A1           05571                         MOVWF CONTADOR2;
                      05572 
117B   3079           05573                         MOVLW CAR_E;
117C   24FD           05574                         CALL MP0_DIS0;
                      05575 
117D   306D           05576                         MOVLW NUM_5;
117E   2502           05577                         CALL MP0_DIS1;
                      05578 
117F   3000           05579                         MOVLW NULL;
1180   2507           05580                         CALL MP0_DIS2;
                      05581 
1181   3037           05582                         MOVLW CAR_N;
1182   250C           05583                         CALL MP0_DIS3;
                      05584 
1183   3037           05585                         MOVLW CAR_N;
1184   2511           05586                         CALL MP0_DIS4;
                      05587 
1185   3077           05588                         MOVLW CAR_A;
1186   2516           05589                         CALL MP0_DIS5;
                      05590 
1187   3050           05591                         MOVLW CAR_R;
1188   251B           05592                         CALL MP0_DIS6;
                      05593 
1189   3078           05594                         MOVLW CAR_T;
118A   2520           05595                         CALL MP0_DIS7;
                      05596 
118B   0BA1           05597 LOOP135         DECFSZ CONTADOR2,F;
118C   298B           05598                         GOTO LOOP135;
118D   0BA0           05599                         DECFSZ CONTADOR1,F;
118E   2979           05600                         GOTO FTGRM135;
                      05601                         
118F   24E3           05602                         CALL MLIMPIEZA_PG0;
                      05603 
                      05604 ;---------- Ftgm1 --------- _ _ _ _ _ _ 1
                      05605 
1190   302D           05606                         MOVLW M;
1191   00A0           05607                         MOVWF CONTADOR1;
1192   30FF           05608 FTGRM136                MOVLW N;
1193   00A1           05609                         MOVWF CONTADOR2;
                      05610 
1194   306D           05611                         MOVLW NUM_5;
1195   24FD           05612                         CALL MP0_DIS0;
                      05613 
1196   3000           05614                         MOVLW NULL;
1197   2502           05615                         CALL MP0_DIS1;
MPASM  5.30.01                         TDM 4.ASM   11-21-2023  23:07:44         PAGE 107


LOC  OBJECT CODE     LINE SOURCE TEXT
  VALUE

                      05616 
1198   3037           05617                         MOVLW CAR_N;
1199   2507           05618                         CALL MP0_DIS2;
                      05619 
119A   3037           05620                         MOVLW CAR_N;
119B   250C           05621                         CALL MP0_DIS3;
                      05622 
119C   3077           05623                         MOVLW CAR_A;
119D   2511           05624                         CALL MP0_DIS4;
                      05625 
119E   3050           05626                         MOVLW CAR_R;
119F   2516           05627                         CALL MP0_DIS5;
                      05628 
11A0   3078           05629                         MOVLW CAR_T;
11A1   251B           05630                         CALL MP0_DIS6;
                      05631 
11A2   3006           05632                         MOVLW NUM_1;
11A3   2520           05633                         CALL MP0_DIS7;
                      05634 
11A4   0BA1           05635 LOOP136         DECFSZ CONTADOR2,F;
11A5   29A4           05636                         GOTO LOOP136;
11A6   0BA0           05637                         DECFSZ CONTADOR1,F;
11A7   2992           05638                         GOTO FTGRM136;
                      05639                         
11A8   24E3           05640                         CALL MLIMPIEZA_PG0;
                      05641 
                      05642 ;---------- Ftgm1 --------- _ _ _ _ _ _ 1
                      05643 
11A9   302D           05644                         MOVLW M;
11AA   00A0           05645                         MOVWF CONTADOR1;
11AB   30FF           05646 FTGRM137                MOVLW N;
11AC   00A1           05647                         MOVWF CONTADOR2;
                      05648 
11AD   3000           05649                         MOVLW NULL;
11AE   24FD           05650                         CALL MP0_DIS0;
                      05651 
11AF   3037           05652                         MOVLW CAR_N;
11B0   2502           05653                         CALL MP0_DIS1;
                      05654 
11B1   3037           05655                         MOVLW CAR_N;
11B2   2507           05656                         CALL MP0_DIS2;
                      05657 
11B3   3077           05658                         MOVLW CAR_A;
11B4   250C           05659                         CALL MP0_DIS3;
                      05660 
11B5   3050           05661                         MOVLW CAR_R;
11B6   2511           05662                         CALL MP0_DIS4;
                      05663 
11B7   3078           05664                         MOVLW CAR_T;
11B8   2516           05665                         CALL MP0_DIS5;
                      05666 
11B9   3006           05667                         MOVLW NUM_1;
11BA   251B           05668                         CALL MP0_DIS6;
MPASM  5.30.01                         TDM 4.ASM   11-21-2023  23:07:44         PAGE 108


LOC  OBJECT CODE     LINE SOURCE TEXT
  VALUE

                      05669 
11BB   3037           05670                         MOVLW CAR_N;
11BC   2520           05671                         CALL MP0_DIS7;
                      05672 
11BD   0BA1           05673 LOOP137         DECFSZ CONTADOR2,F;
11BE   29BD           05674                         GOTO LOOP137;
11BF   0BA0           05675                         DECFSZ CONTADOR1,F;
11C0   29AB           05676                         GOTO FTGRM137;
                      05677                         
11C1   24E3           05678                         CALL MLIMPIEZA_PG0;
                      05679 
                      05680 ;---------- Ftgm1 --------- _ _ _ _ _ _ 1
                      05681 
11C2   302D           05682                         MOVLW M;
11C3   00A0           05683                         MOVWF CONTADOR1;
11C4   30FF           05684 FTGRM138                MOVLW N;
11C5   00A1           05685                         MOVWF CONTADOR2;
                      05686 
11C6   3037           05687                         MOVLW CAR_N;
11C7   24FD           05688                         CALL MP0_DIS0;
                      05689 
11C8   3037           05690                         MOVLW CAR_N;
11C9   2502           05691                         CALL MP0_DIS1;
                      05692 
11CA   3077           05693                         MOVLW CAR_A;
11CB   2507           05694                         CALL MP0_DIS2;
                      05695 
11CC   3050           05696                         MOVLW CAR_R;
11CD   250C           05697                         CALL MP0_DIS3;
                      05698 
11CE   3078           05699                         MOVLW CAR_T;
11CF   2511           05700                         CALL MP0_DIS4;
                      05701 
11D0   3006           05702                         MOVLW NUM_1;
11D1   2516           05703                         CALL MP0_DIS5;
                      05704 
11D2   3037           05705                         MOVLW CAR_N;
11D3   251B           05706                         CALL MP0_DIS6;
                      05707 
11D4   3079           05708                         MOVLW CAR_E;
11D5   2520           05709                         CALL MP0_DIS7;
                      05710 
11D6   0BA1           05711 LOOP138         DECFSZ CONTADOR2,F;
11D7   29D6           05712                         GOTO LOOP138;
11D8   0BA0           05713                         DECFSZ CONTADOR1,F;
11D9   29C4           05714                         GOTO FTGRM138;
                      05715                         
11DA   24E3           05716                         CALL MLIMPIEZA_PG0;
                      05717 
                      05718 ;---------- Ftgm1 --------- _ _ _ _ _ _ 1
                      05719 
11DB   302D           05720                         MOVLW M;
11DC   00A0           05721                         MOVWF CONTADOR1;
MPASM  5.30.01                         TDM 4.ASM   11-21-2023  23:07:44         PAGE 109


LOC  OBJECT CODE     LINE SOURCE TEXT
  VALUE

11DD   30FF           05722 FTGRM139                MOVLW N;
11DE   00A1           05723                         MOVWF CONTADOR2;
                      05724 
11DF   3037           05725                         MOVLW CAR_N;
11E0   24FD           05726                         CALL MP0_DIS0;
                      05727 
11E1   3077           05728                         MOVLW CAR_A;
11E2   2502           05729                         CALL MP0_DIS1;
                      05730 
11E3   3050           05731                         MOVLW CAR_R;
11E4   2507           05732                         CALL MP0_DIS2;
                      05733 
11E5   3078           05734                         MOVLW CAR_T;
11E6   250C           05735                         CALL MP0_DIS3;
                      05736 
11E7   3006           05737                         MOVLW NUM_1;
11E8   2511           05738                         CALL MP0_DIS4;
                      05739 
11E9   3037           05740                         MOVLW CAR_N;
11EA   2516           05741                         CALL MP0_DIS5;
                      05742 
11EB   3079           05743                         MOVLW CAR_E;
11EC   251B           05744                         CALL MP0_DIS6;
                      05745 
11ED   305B           05746                         MOVLW NUM_2;
11EE   2520           05747                         CALL MP0_DIS7;
                      05748 
11EF   0BA1           05749 LOOP139         DECFSZ CONTADOR2,F;
11F0   29EF           05750                         GOTO LOOP139;
11F1   0BA0           05751                         DECFSZ CONTADOR1,F;
11F2   29DD           05752                         GOTO FTGRM139;
                      05753                         
11F3   24E3           05754                         CALL MLIMPIEZA_PG0;
                      05755 
                      05756 ;---------- Ftgm1 --------- _ _ _ _ _ _ 1
                      05757 
11F4   302D           05758                         MOVLW M;
11F5   00A0           05759                         MOVWF CONTADOR1;
11F6   30FF           05760 FTGRM140                MOVLW N;
11F7   00A1           05761                         MOVWF CONTADOR2;
                      05762 
11F8   3077           05763                         MOVLW CAR_A;
11F9   24FD           05764                         CALL MP0_DIS0;
                      05765 
11FA   3050           05766                         MOVLW CAR_R;
11FB   2502           05767                         CALL MP0_DIS1;
                      05768 
11FC   3078           05769                         MOVLW CAR_T;
11FD   2507           05770                         CALL MP0_DIS2;
                      05771 
11FE   3006           05772                         MOVLW NUM_1;
11FF   250C           05773                         CALL MP0_DIS3;
                      05774 
MPASM  5.30.01                         TDM 4.ASM   11-21-2023  23:07:44         PAGE 110


LOC  OBJECT CODE     LINE SOURCE TEXT
  VALUE

1200   3037           05775                         MOVLW CAR_N;
1201   2511           05776                         CALL MP0_DIS4;
                      05777 
1202   3079           05778                         MOVLW CAR_E;
1203   2516           05779                         CALL MP0_DIS5;
                      05780 
1204   305B           05781                         MOVLW NUM_2;
1205   251B           05782                         CALL MP0_DIS6;
                      05783 
1206   3000           05784                         MOVLW NULL;
1207   2520           05785                         CALL MP0_DIS7;
                      05786 
1208   0BA1           05787 LOOP140         DECFSZ CONTADOR2,F;
1209   2A08           05788                         GOTO LOOP140;
120A   0BA0           05789                         DECFSZ CONTADOR1,F;
120B   29F6           05790                         GOTO FTGRM140;
                      05791                         
120C   24E3           05792                         CALL MLIMPIEZA_PG0;
                      05793 
                      05794 ;---------- Ftgm1 --------- _ _ _ _ _ _ 1
                      05795 
120D   302D           05796                         MOVLW M;
120E   00A0           05797                         MOVWF CONTADOR1;
120F   30FF           05798 FTGRM141                MOVLW N;
1210   00A1           05799                         MOVWF CONTADOR2;
                      05800 
1211   3050           05801                         MOVLW CAR_R;
1212   24FD           05802                         CALL MP0_DIS0;
                      05803 
1213   3078           05804                         MOVLW CAR_T;
1214   2502           05805                         CALL MP0_DIS1;
                      05806 
1215   3006           05807                         MOVLW NUM_1;
1216   2507           05808                         CALL MP0_DIS2;
                      05809 
1217   3037           05810                         MOVLW CAR_N;
1218   250C           05811                         CALL MP0_DIS3;
                      05812 
1219   3079           05813                         MOVLW CAR_E;
121A   2511           05814                         CALL MP0_DIS4;
                      05815 
121B   305B           05816                         MOVLW NUM_2;
121C   2516           05817                         CALL MP0_DIS5;
                      05818 
121D   3000           05819                         MOVLW NULL;
121E   251B           05820                         CALL MP0_DIS6;
                      05821 
121F   3038           05822                         MOVLW CAR_L;
1220   2520           05823                         CALL MP0_DIS7;
                      05824 
1221   0BA1           05825 LOOP141         DECFSZ CONTADOR2,F;
1222   2A21           05826                         GOTO LOOP141;
1223   0BA0           05827                         DECFSZ CONTADOR1,F;
MPASM  5.30.01                         TDM 4.ASM   11-21-2023  23:07:44         PAGE 111


LOC  OBJECT CODE     LINE SOURCE TEXT
  VALUE

1224   2A0F           05828                         GOTO FTGRM141;
                      05829                         
1225   24E3           05830                         CALL MLIMPIEZA_PG0;
                      05831 
                      05832 ;---------- Ftgm1 --------- _ _ _ _ _ _ 1
                      05833 
1226   302D           05834                         MOVLW M;
1227   00A0           05835                         MOVWF CONTADOR1;
1228   30FF           05836 FTGRM142                MOVLW N;
1229   00A1           05837                         MOVWF CONTADOR2;
                      05838 
122A   3078           05839                         MOVLW CAR_T;
122B   24FD           05840                         CALL MP0_DIS0;
                      05841 
122C   3006           05842                         MOVLW NUM_1;
122D   2502           05843                         CALL MP0_DIS1;
                      05844 
122E   3037           05845                         MOVLW CAR_N;
122F   2507           05846                         CALL MP0_DIS2;
                      05847 
1230   3079           05848                         MOVLW CAR_E;
1231   250C           05849                         CALL MP0_DIS3;
                      05850 
1232   305B           05851                         MOVLW NUM_2;
1233   2511           05852                         CALL MP0_DIS4;
                      05853 
1234   3000           05854                         MOVLW NULL;
1235   2516           05855                         CALL MP0_DIS5;
                      05856 
1236   3038           05857                         MOVLW CAR_L;
1237   251B           05858                         CALL MP0_DIS6;
                      05859 
1238   305C           05860                         MOVLW CAR_O;
1239   2520           05861                         CALL MP0_DIS7;
                      05862 
123A   0BA1           05863 LOOP142         DECFSZ CONTADOR2,F;
123B   2A3A           05864                         GOTO LOOP142;
123C   0BA0           05865                         DECFSZ CONTADOR1,F;
123D   2A28           05866                         GOTO FTGRM142;
                      05867                         
123E   24E3           05868                         CALL MLIMPIEZA_PG0;
                      05869 
                      05870 ;---------- Ftgm1 --------- _ _ _ _ _ _ 1
                      05871 
123F   302D           05872                         MOVLW M;
1240   00A0           05873                         MOVWF CONTADOR1;
1241   30FF           05874 FTGRM143                MOVLW N;
1242   00A1           05875                         MOVWF CONTADOR2;
                      05876 
1243   3006           05877                         MOVLW NUM_1;
1244   24FD           05878                         CALL MP0_DIS0;
                      05879 
1245   3037           05880                         MOVLW CAR_N;
MPASM  5.30.01                         TDM 4.ASM   11-21-2023  23:07:44         PAGE 112


LOC  OBJECT CODE     LINE SOURCE TEXT
  VALUE

1246   2502           05881                         CALL MP0_DIS1;
                      05882 
1247   3079           05883                         MOVLW CAR_E;
1248   2507           05884                         CALL MP0_DIS2;
                      05885 
1249   305B           05886                         MOVLW NUM_2;
124A   250C           05887                         CALL MP0_DIS3;
                      05888 
124B   3000           05889                         MOVLW NULL;
124C   2511           05890                         CALL MP0_DIS4;
                      05891 
124D   3038           05892                         MOVLW CAR_L;
124E   2516           05893                         CALL MP0_DIS5;
                      05894 
124F   305C           05895                         MOVLW CAR_O;
1250   251B           05896                         CALL MP0_DIS6;
                      05897 
1251   3073           05898                         MOVLW CAR_P;
1252   2520           05899                         CALL MP0_DIS7;
                      05900 
1253   0BA1           05901 LOOP143         DECFSZ CONTADOR2,F;
1254   2A53           05902                         GOTO LOOP143;
1255   0BA0           05903                         DECFSZ CONTADOR1,F;
1256   2A41           05904                         GOTO FTGRM143;
                      05905                         
1257   24E3           05906                         CALL MLIMPIEZA_PG0;
                      05907 
                      05908 ;---------- Ftgm1 --------- _ _ _ _ _ _ 1
                      05909 
1258   302D           05910                         MOVLW M;
1259   00A0           05911                         MOVWF CONTADOR1;
125A   30FF           05912 FTGRM144                MOVLW N;
125B   00A1           05913                         MOVWF CONTADOR2;
                      05914 
125C   3037           05915                         MOVLW CAR_N;
125D   24FD           05916                         CALL MP0_DIS0;
                      05917 
125E   3079           05918                         MOVLW CAR_E;
125F   2502           05919                         CALL MP0_DIS1;
                      05920 
1260   305B           05921                         MOVLW NUM_2;
1261   2507           05922                         CALL MP0_DIS2;
                      05923 
1262   3000           05924                         MOVLW NULL;
1263   250C           05925                         CALL MP0_DIS3;
                      05926 
1264   3038           05927                         MOVLW CAR_L;
1265   2511           05928                         CALL MP0_DIS4;
                      05929 
1266   305C           05930                         MOVLW CAR_O;
1267   2516           05931                         CALL MP0_DIS5;
                      05932 
1268   3073           05933                         MOVLW CAR_P;
MPASM  5.30.01                         TDM 4.ASM   11-21-2023  23:07:44         PAGE 113


LOC  OBJECT CODE     LINE SOURCE TEXT
  VALUE

1269   251B           05934                         CALL MP0_DIS6;
                      05935 
126A   3079           05936                         MOVLW CAR_E;
126B   2520           05937                         CALL MP0_DIS7;
                      05938 
126C   0BA1           05939 LOOP144         DECFSZ CONTADOR2,F;
126D   2A6C           05940                         GOTO LOOP144;
126E   0BA0           05941                         DECFSZ CONTADOR1,F;
126F   2A5A           05942                         GOTO FTGRM144;
                      05943                         
1270   24E3           05944                         CALL MLIMPIEZA_PG0;
                      05945 
                      05946 ;---------- Ftgm1 --------- _ _ _ _ _ _ 1
                      05947 
1271   302D           05948                         MOVLW M;
1272   00A0           05949                         MOVWF CONTADOR1;
1273   30FF           05950 FTGRM145                MOVLW N;
1274   00A1           05951                         MOVWF CONTADOR2;
                      05952 
1275   3079           05953                         MOVLW CAR_E;
1276   24FD           05954                         CALL MP0_DIS0;
                      05955 
1277   305B           05956                         MOVLW NUM_2;
1278   2502           05957                         CALL MP0_DIS1;
                      05958 
1279   3000           05959                         MOVLW NULL;
127A   2507           05960                         CALL MP0_DIS2;
                      05961 
127B   3038           05962                         MOVLW CAR_L;
127C   250C           05963                         CALL MP0_DIS3;
                      05964 
127D   305C           05965                         MOVLW CAR_O;
127E   2511           05966                         CALL MP0_DIS4;
                      05967 
127F   3073           05968                         MOVLW CAR_P;
1280   2516           05969                         CALL MP0_DIS5;
                      05970 
1281   3079           05971                         MOVLW CAR_E;
1282   251B           05972                         CALL MP0_DIS6;
                      05973 
1283   305B           05974                         MOVLW NUM_2;
1284   2520           05975                         CALL MP0_DIS7;
                      05976 
1285   0BA1           05977 LOOP145         DECFSZ CONTADOR2,F;
1286   2A85           05978                         GOTO LOOP145;
1287   0BA0           05979                         DECFSZ CONTADOR1,F;
1288   2A73           05980                         GOTO FTGRM145;
                      05981                         
1289   24E3           05982                         CALL MLIMPIEZA_PG0;
                      05983 
                      05984 ;---------- Ftgm1 --------- _ _ _ _ _ _ 1
                      05985 
128A   302D           05986                         MOVLW M;
MPASM  5.30.01                         TDM 4.ASM   11-21-2023  23:07:44         PAGE 114


LOC  OBJECT CODE     LINE SOURCE TEXT
  VALUE

128B   00A0           05987                         MOVWF CONTADOR1;
128C   30FF           05988 FTGRM146                MOVLW N;
128D   00A1           05989                         MOVWF CONTADOR2;
                      05990 
128E   305B           05991                         MOVLW NUM_2;
128F   24FD           05992                         CALL MP0_DIS0;
                      05993 
1290   3000           05994                         MOVLW NULL;
1291   2502           05995                         CALL MP0_DIS1;
                      05996 
1292   3038           05997                         MOVLW CAR_L;
1293   2507           05998                         CALL MP0_DIS2;
                      05999 
1294   305C           06000                         MOVLW CAR_O;
1295   250C           06001                         CALL MP0_DIS3;
                      06002 
1296   3073           06003                         MOVLW CAR_P;
1297   2511           06004                         CALL MP0_DIS4;
                      06005 
1298   3079           06006                         MOVLW CAR_E;
1299   2516           06007                         CALL MP0_DIS5;
                      06008 
129A   305B           06009                         MOVLW NUM_2;
129B   251B           06010                         CALL MP0_DIS6;
                      06011 
129C   3000           06012                         MOVLW NULL;
129D   2520           06013                         CALL MP0_DIS7;
                      06014 
129E   0BA1           06015 LOOP146         DECFSZ CONTADOR2,F;
129F   2A9E           06016                         GOTO LOOP146;
12A0   0BA0           06017                         DECFSZ CONTADOR1,F;
12A1   2A8C           06018                         GOTO FTGRM146;
                      06019                         
12A2   24E3           06020                         CALL MLIMPIEZA_PG0;
                      06021 
                      06022 ;---------- Ftgm1 --------- _ _ _ _ _ _ 1
                      06023 
12A3   302D           06024                         MOVLW M;
12A4   00A0           06025                         MOVWF CONTADOR1;
12A5   30FF           06026 FTGRM147                MOVLW N;
12A6   00A1           06027                         MOVWF CONTADOR2;
                      06028 
12A7   3000           06029                         MOVLW NULL;
12A8   24FD           06030                         CALL MP0_DIS0;
                      06031 
12A9   3038           06032                         MOVLW CAR_L;
12AA   2502           06033                         CALL MP0_DIS1;
                      06034 
12AB   305C           06035                         MOVLW CAR_O;
12AC   2507           06036                         CALL MP0_DIS2;
                      06037 
12AD   3073           06038                         MOVLW CAR_P;
12AE   250C           06039                         CALL MP0_DIS3;
MPASM  5.30.01                         TDM 4.ASM   11-21-2023  23:07:44         PAGE 115


LOC  OBJECT CODE     LINE SOURCE TEXT
  VALUE

                      06040 
12AF   3079           06041                         MOVLW CAR_E;
12B0   2511           06042                         CALL MP0_DIS4;
                      06043 
12B1   305B           06044                         MOVLW NUM_2;
12B2   2516           06045                         CALL MP0_DIS5;
                      06046 
12B3   3000           06047                         MOVLW NULL;
12B4   251B           06048                         CALL MP0_DIS6;
                      06049 
12B5   3073           06050                         MOVLW CAR_P;
12B6   2520           06051                         CALL MP0_DIS7;
                      06052 
12B7   0BA1           06053 LOOP147         DECFSZ CONTADOR2,F;
12B8   2AB7           06054                         GOTO LOOP147;
12B9   0BA0           06055                         DECFSZ CONTADOR1,F;
12BA   2AA5           06056                         GOTO FTGRM147;
                      06057                         
12BB   24E3           06058                         CALL MLIMPIEZA_PG0;
                      06059 
                      06060 ;---------- Ftgm1 --------- _ _ _ _ _ _ 1
                      06061 
12BC   302D           06062                         MOVLW M;
12BD   00A0           06063                         MOVWF CONTADOR1;
12BE   30FF           06064 FTGRM148                MOVLW N;
12BF   00A1           06065                         MOVWF CONTADOR2;
                      06066 
12C0   3038           06067                         MOVLW CAR_L;
12C1   24FD           06068                         CALL MP0_DIS0;
                      06069 
12C2   305C           06070                         MOVLW CAR_O;
12C3   2502           06071                         CALL MP0_DIS1;
                      06072 
12C4   3073           06073                         MOVLW CAR_P;
12C5   2507           06074                         CALL MP0_DIS2;
                      06075 
12C6   3079           06076                         MOVLW CAR_E;
12C7   250C           06077                         CALL MP0_DIS3;
                      06078 
12C8   305B           06079                         MOVLW NUM_2;
12C9   2511           06080                         CALL MP0_DIS4;
                      06081 
12CA   3000           06082                         MOVLW NULL;
12CB   2516           06083                         CALL MP0_DIS5;
                      06084 
12CC   3073           06085                         MOVLW CAR_P;
12CD   251B           06086                         CALL MP0_DIS6;
                      06087 
12CE   301C           06088                         MOVLW CAR_UU;
12CF   2520           06089                         CALL MP0_DIS7;
                      06090 
12D0   0BA1           06091 LOOP148         DECFSZ CONTADOR2,F;
12D1   2AD0           06092                         GOTO LOOP148;
MPASM  5.30.01                         TDM 4.ASM   11-21-2023  23:07:44         PAGE 116


LOC  OBJECT CODE     LINE SOURCE TEXT
  VALUE

12D2   0BA0           06093                         DECFSZ CONTADOR1,F;
12D3   2ABE           06094                         GOTO FTGRM148;
                      06095                         
12D4   24E3           06096                         CALL MLIMPIEZA_PG0;
                      06097 
                      06098 ;---------- Ftgm1 --------- _ _ _ _ _ _ 1
                      06099 
12D5   302D           06100                         MOVLW M;
12D6   00A0           06101                         MOVWF CONTADOR1;
12D7   30FF           06102 FTGRM149                MOVLW N;
12D8   00A1           06103                         MOVWF CONTADOR2;
                      06104 
12D9   305C           06105                         MOVLW CAR_O;
12DA   24FD           06106                         CALL MP0_DIS0;
                      06107 
12DB   3073           06108                         MOVLW CAR_P;
12DC   2502           06109                         CALL MP0_DIS1;
                      06110 
12DD   3079           06111                         MOVLW CAR_E;
12DE   2507           06112                         CALL MP0_DIS2;
                      06113 
12DF   305B           06114                         MOVLW NUM_2;
12E0   250C           06115                         CALL MP0_DIS3;
                      06116 
12E1   3000           06117                         MOVLW NULL;
12E2   2511           06118                         CALL MP0_DIS4;
                      06119 
12E3   3073           06120                         MOVLW CAR_P;
12E4   2516           06121                         CALL MP0_DIS5;
                      06122 
12E5   301C           06123                         MOVLW CAR_UU;
12E6   251B           06124                         CALL MP0_DIS6;
                      06125 
12E7   3079           06126                         MOVLW CAR_E;
12E8   2520           06127                         CALL MP0_DIS7;
                      06128 
12E9   0BA1           06129 LOOP149         DECFSZ CONTADOR2,F;
12EA   2AE9           06130                         GOTO LOOP149;
12EB   0BA0           06131                         DECFSZ CONTADOR1,F;
12EC   2AD7           06132                         GOTO FTGRM149;
                      06133                         
12ED   24E3           06134                         CALL MLIMPIEZA_PG0;
                      06135 
                      06136 ;---------- Ftgm1 --------- _ _ _ _ _ _ 1
                      06137 
12EE   302D           06138                         MOVLW M;
12EF   00A0           06139                         MOVWF CONTADOR1;
12F0   30FF           06140 FTGRM150                MOVLW N;
12F1   00A1           06141                         MOVWF CONTADOR2;
                      06142 
12F2   3073           06143                         MOVLW CAR_P;
12F3   24FD           06144                         CALL MP0_DIS0;
                      06145 
MPASM  5.30.01                         TDM 4.ASM   11-21-2023  23:07:44         PAGE 117


LOC  OBJECT CODE     LINE SOURCE TEXT
  VALUE

12F4   3079           06146                         MOVLW CAR_E;
12F5   2502           06147                         CALL MP0_DIS1;
                      06148 
12F6   305B           06149                         MOVLW NUM_2;
12F7   2507           06150                         CALL MP0_DIS2;
                      06151 
12F8   3000           06152                         MOVLW NULL;
12F9   250C           06153                         CALL MP0_DIS3;
                      06154 
12FA   3073           06155                         MOVLW CAR_P;
12FB   2511           06156                         CALL MP0_DIS4;
                      06157 
12FC   301C           06158                         MOVLW CAR_UU;
12FD   2516           06159                         CALL MP0_DIS5;
                      06160 
12FE   3079           06161                         MOVLW CAR_E;
12FF   251B           06162                         CALL MP0_DIS6;
                      06163 
1300   3054           06164                         MOVLW CAR_NN;
1301   2520           06165                         CALL MP0_DIS7;
                      06166 
1302   0BA1           06167 LOOP150         DECFSZ CONTADOR2,F;
1303   2B02           06168                         GOTO LOOP150;
1304   0BA0           06169                         DECFSZ CONTADOR1,F;
1305   2AF0           06170                         GOTO FTGRM150;
                      06171                         
1306   24E3           06172                         CALL MLIMPIEZA_PG0;
                      06173 
                      06174 ;---------- Ftgm1 --------- _ _ _ _ _ _ 1
                      06175 
1307   302D           06176                         MOVLW M;
1308   00A0           06177                         MOVWF CONTADOR1;
1309   30FF           06178 FTGRM151                MOVLW N;
130A   00A1           06179                         MOVWF CONTADOR2;
                      06180 
130B   3079           06181                         MOVLW CAR_E;
130C   24FD           06182                         CALL MP0_DIS0;
                      06183 
130D   305B           06184                         MOVLW NUM_2;
130E   2502           06185                         CALL MP0_DIS1;
                      06186 
130F   3000           06187                         MOVLW NULL;
1310   2507           06188                         CALL MP0_DIS2;
                      06189 
1311   3073           06190                         MOVLW CAR_P;
1312   250C           06191                         CALL MP0_DIS3;
                      06192 
1313   301C           06193                         MOVLW CAR_UU;
1314   2511           06194                         CALL MP0_DIS4;
                      06195 
1315   3079           06196                         MOVLW CAR_E;
1316   2516           06197                         CALL MP0_DIS5;
                      06198 
MPASM  5.30.01                         TDM 4.ASM   11-21-2023  23:07:44         PAGE 118


LOC  OBJECT CODE     LINE SOURCE TEXT
  VALUE

1317   3054           06199                         MOVLW CAR_NN;
1318   251B           06200                         CALL MP0_DIS6;
                      06201 
1319   3078           06202                         MOVLW CAR_T;
131A   2520           06203                         CALL MP0_DIS7;
                      06204 
131B   0BA1           06205 LOOP151         DECFSZ CONTADOR2,F;
131C   2B1B           06206                         GOTO LOOP151;
131D   0BA0           06207                         DECFSZ CONTADOR1,F;
131E   2B09           06208                         GOTO FTGRM151;
                      06209                         
131F   24E3           06210                         CALL MLIMPIEZA_PG0;
                      06211 
                      06212 ;---------- Ftgm1 --------- _ _ _ _ _ _ 1
                      06213 
1320   302D           06214                         MOVLW M;
1321   00A0           06215                         MOVWF CONTADOR1;
1322   30FF           06216 FTGRM152                MOVLW N;
1323   00A1           06217                         MOVWF CONTADOR2;
                      06218 
1324   305B           06219                         MOVLW NUM_2;
1325   24FD           06220                         CALL MP0_DIS0;
                      06221 
1326   3000           06222                         MOVLW NULL;
1327   2502           06223                         CALL MP0_DIS1;
                      06224 
1328   3073           06225                         MOVLW CAR_P;
1329   2507           06226                         CALL MP0_DIS2;
                      06227 
132A   301C           06228                         MOVLW CAR_UU;
132B   250C           06229                         CALL MP0_DIS3;
                      06230 
132C   3079           06231                         MOVLW CAR_E;
132D   2511           06232                         CALL MP0_DIS4;
                      06233 
132E   3054           06234                         MOVLW CAR_NN;
132F   2516           06235                         CALL MP0_DIS5;
                      06236 
1330   3078           06237                         MOVLW CAR_T;
1331   251B           06238                         CALL MP0_DIS6;
                      06239 
1332   3079           06240                         MOVLW CAR_E;
1333   2520           06241                         CALL MP0_DIS7;
                      06242 
1334   0BA1           06243 LOOP152         DECFSZ CONTADOR2,F;
1335   2B34           06244                         GOTO LOOP152;
1336   0BA0           06245                         DECFSZ CONTADOR1,F;
1337   2B22           06246                         GOTO FTGRM152;
                      06247                         
1338   24E3           06248                         CALL MLIMPIEZA_PG0;
                      06249 
                      06250 ;---------- Ftgm1 --------- _ _ _ _ _ _ 1
                      06251 
MPASM  5.30.01                         TDM 4.ASM   11-21-2023  23:07:44         PAGE 119


LOC  OBJECT CODE     LINE SOURCE TEXT
  VALUE

1339   302D           06252                         MOVLW M;
133A   00A0           06253                         MOVWF CONTADOR1;
133B   30FF           06254 FTGRM153                MOVLW N;
133C   00A1           06255                         MOVWF CONTADOR2;
                      06256 
133D   3000           06257                         MOVLW NULL;
133E   24FD           06258                         CALL MP0_DIS0;
                      06259 
133F   3073           06260                         MOVLW CAR_P;
1340   2502           06261                         CALL MP0_DIS1;
                      06262 
1341   301C           06263                         MOVLW CAR_UU;
1342   2507           06264                         CALL MP0_DIS2;
                      06265 
1343   3079           06266                         MOVLW CAR_E;
1344   250C           06267                         CALL MP0_DIS3;
                      06268 
1345   3054           06269                         MOVLW CAR_NN;
1346   2511           06270                         CALL MP0_DIS4;
                      06271 
1347   3078           06272                         MOVLW CAR_T;
1348   2516           06273                         CALL MP0_DIS5;
                      06274 
1349   3079           06275                         MOVLW CAR_E;
134A   251B           06276                         CALL MP0_DIS6;
                      06277 
134B   3000           06278                         MOVLW NULL;
134C   2520           06279                         CALL MP0_DIS7;
                      06280 
134D   0BA1           06281 LOOP153         DECFSZ CONTADOR2,F;
134E   2B4D           06282                         GOTO LOOP153;
134F   0BA0           06283                         DECFSZ CONTADOR1,F;
1350   2B3B           06284                         GOTO FTGRM153;
                      06285                         
1351   24E3           06286                         CALL MLIMPIEZA_PG0;
                      06287 
                      06288 ;---------- Ftgm1 --------- _ _ _ _ _ _ 1
                      06289 
1352   302D           06290                         MOVLW M;
1353   00A0           06291                         MOVWF CONTADOR1;
1354   30FF           06292 FTGRM154                MOVLW N;
1355   00A1           06293                         MOVWF CONTADOR2;
                      06294 
1356   3073           06295                         MOVLW CAR_P;
1357   24FD           06296                         CALL MP0_DIS0;
                      06297 
1358   301C           06298                         MOVLW CAR_UU;
1359   2502           06299                         CALL MP0_DIS1;
                      06300 
135A   3079           06301                         MOVLW CAR_E;
135B   2507           06302                         CALL MP0_DIS2;
                      06303 
135C   3054           06304                         MOVLW CAR_NN;
MPASM  5.30.01                         TDM 4.ASM   11-21-2023  23:07:44         PAGE 120


LOC  OBJECT CODE     LINE SOURCE TEXT
  VALUE

135D   250C           06305                         CALL MP0_DIS3;
                      06306 
135E   3078           06307                         MOVLW CAR_T;
135F   2511           06308                         CALL MP0_DIS4;
                      06309 
1360   3079           06310                         MOVLW CAR_E;
1361   2516           06311                         CALL MP0_DIS5;
                      06312 
1362   3000           06313                         MOVLW NULL;
1363   251B           06314                         CALL MP0_DIS6;
                      06315 
1364   3050           06316                         MOVLW CAR_R;
1365   2520           06317                         CALL MP0_DIS7;
                      06318 
1366   0BA1           06319 LOOP154         DECFSZ CONTADOR2,F;
1367   2B66           06320                         GOTO LOOP154;
1368   0BA0           06321                         DECFSZ CONTADOR1,F;
1369   2B54           06322                         GOTO FTGRM154;
                      06323                         
136A   24E3           06324                         CALL MLIMPIEZA_PG0;
                      06325 
                      06326 ;---------- Ftgm1 --------- _ _ _ _ _ _ 1
                      06327 
136B   302D           06328                         MOVLW M;
136C   00A0           06329                         MOVWF CONTADOR1;
136D   30FF           06330 FTGRM155        MOVLW N;
136E   00A1           06331                         MOVWF CONTADOR2;
                      06332 
136F   301C           06333                         MOVLW CAR_UU;
1370   24FD           06334                         CALL MP0_DIS0;
                      06335 
1371   3079           06336                         MOVLW CAR_E;
1372   2502           06337                         CALL MP0_DIS1;
                      06338 
1373   3054           06339                         MOVLW CAR_NN;
1374   2507           06340                         CALL MP0_DIS2;
                      06341 
1375   3078           06342                         MOVLW CAR_T;
1376   250C           06343                         CALL MP0_DIS3;
                      06344 
1377   3079           06345                         MOVLW CAR_E;
1378   2511           06346                         CALL MP0_DIS4;
                      06347 
1379   3000           06348                         MOVLW NULL;
137A   2516           06349                         CALL MP0_DIS5;
                      06350 
137B   3050           06351                         MOVLW CAR_R;
137C   251B           06352                         CALL MP0_DIS6;
                      06353 
137D   3077           06354                         MOVLW CAR_A;
137E   2520           06355                         CALL MP0_DIS7;
                      06356 
137F   0BA1           06357 LOOP155         DECFSZ CONTADOR2,F;
MPASM  5.30.01                         TDM 4.ASM   11-21-2023  23:07:44         PAGE 121


LOC  OBJECT CODE     LINE SOURCE TEXT
  VALUE

1380   2B7F           06358                         GOTO LOOP155;
1381   0BA0           06359                         DECFSZ CONTADOR1,F;
1382   2B6D           06360                         GOTO FTGRM155;
                      06361                         
1383   24E3           06362                         CALL MLIMPIEZA_PG0;
                      06363 
                      06364 ;---------- Ftgm1 --------- _ _ _ _ _ _ 1
                      06365 
1384   302D           06366                         MOVLW M;
1385   00A0           06367                         MOVWF CONTADOR1;
1386   30FF           06368 FTGRM156        MOVLW N;
1387   00A1           06369                         MOVWF CONTADOR2;
                      06370 
1388   3079           06371                         MOVLW CAR_E;
1389   24FD           06372                         CALL MP0_DIS0;
                      06373 
138A   3054           06374                         MOVLW CAR_NN;
138B   2502           06375                         CALL MP0_DIS1;
                      06376 
138C   3078           06377                         MOVLW CAR_T;
138D   2507           06378                         CALL MP0_DIS2;
                      06379 
138E   3079           06380                         MOVLW CAR_E;
138F   250C           06381                         CALL MP0_DIS3;
                      06382 
1390   3000           06383                         MOVLW NULL;
1391   2511           06384                         CALL MP0_DIS4;
                      06385 
1392   3050           06386                         MOVLW CAR_R;
1393   2516           06387                         CALL MP0_DIS5;
                      06388 
1394   3077           06389                         MOVLW CAR_A;
1395   251B           06390                         CALL MP0_DIS6;
                      06391 
1396   3054           06392                         MOVLW CAR_NN;
1397   2520           06393                         CALL MP0_DIS7;
                      06394 
1398   0BA1           06395 LOOP156         DECFSZ CONTADOR2,F;
1399   2B98           06396                         GOTO LOOP156;
139A   0BA0           06397                         DECFSZ CONTADOR1,F;
139B   2B86           06398                         GOTO FTGRM156;
                      06399                         
139C   24E3           06400                         CALL MLIMPIEZA_PG0;
                      06401 
                      06402 ;---------- Ftgm1 --------- _ _ _ _ _ _ 1
                      06403 
139D   302D           06404                         MOVLW M;
139E   00A0           06405                         MOVWF CONTADOR1;
139F   30FF           06406 FTGRM157        MOVLW N;
13A0   00A1           06407                         MOVWF CONTADOR2;
                      06408 
13A1   3054           06409                         MOVLW CAR_NN;
13A2   24FD           06410                         CALL MP0_DIS0;
MPASM  5.30.01                         TDM 4.ASM   11-21-2023  23:07:44         PAGE 122


LOC  OBJECT CODE     LINE SOURCE TEXT
  VALUE

                      06411 
13A3   3078           06412                         MOVLW CAR_T;
13A4   2502           06413                         CALL MP0_DIS1;
                      06414 
13A5   3079           06415                         MOVLW CAR_E;
13A6   2507           06416                         CALL MP0_DIS2;
                      06417 
13A7   3000           06418                         MOVLW NULL;
13A8   250C           06419                         CALL MP0_DIS3;
                      06420 
13A9   3050           06421                         MOVLW CAR_R;
13AA   2511           06422                         CALL MP0_DIS4;
                      06423 
13AB   3077           06424                         MOVLW CAR_A;
13AC   2516           06425                         CALL MP0_DIS5;
                      06426 
13AD   3054           06427                         MOVLW CAR_NN;
13AE   251B           06428                         CALL MP0_DIS6;
                      06429 
13AF   3054           06430                         MOVLW CAR_NN;
13B0   2520           06431                         CALL MP0_DIS7;
                      06432 
13B1   0BA1           06433 LOOP157         DECFSZ CONTADOR2,F;
13B2   2BB1           06434                         GOTO LOOP157;
13B3   0BA0           06435                         DECFSZ CONTADOR1,F;
13B4   2B9F           06436                         GOTO FTGRM157;
                      06437                         
13B5   24E3           06438                         CALL MLIMPIEZA_PG0;
                      06439 
                      06440 ;---------- Ftgm1 --------- _ _ _ _ _ _ 1
                      06441 
13B6   302D           06442                         MOVLW M;
13B7   00A0           06443                         MOVWF CONTADOR1;
13B8   30FF           06444 FTGRM158                MOVLW N;
13B9   00A1           06445                         MOVWF CONTADOR2;
                      06446 
13BA   3078           06447                         MOVLW CAR_T;
13BB   24FD           06448                         CALL MP0_DIS0;
                      06449 
13BC   3079           06450                         MOVLW CAR_E;
13BD   2502           06451                         CALL MP0_DIS1;
                      06452 
13BE   3000           06453                         MOVLW NULL;
13BF   2507           06454                         CALL MP0_DIS2;
                      06455 
13C0   3050           06456                         MOVLW CAR_R;
13C1   250C           06457                         CALL MP0_DIS3;
                      06458 
13C2   3077           06459                         MOVLW CAR_A;
13C3   2511           06460                         CALL MP0_DIS4;
                      06461 
13C4   3054           06462                         MOVLW CAR_NN;
13C5   2516           06463                         CALL MP0_DIS5;
MPASM  5.30.01                         TDM 4.ASM   11-21-2023  23:07:44         PAGE 123


LOC  OBJECT CODE     LINE SOURCE TEXT
  VALUE

                      06464 
13C6   3054           06465                         MOVLW CAR_NN;
13C7   251B           06466                         CALL MP0_DIS6;
                      06467 
13C8   3006           06468                         MOVLW NUM_1;
13C9   2520           06469                         CALL MP0_DIS7;
                      06470 
13CA   0BA1           06471 LOOP158         DECFSZ CONTADOR2,F;
13CB   2BCA           06472                         GOTO LOOP158;
13CC   0BA0           06473                         DECFSZ CONTADOR1,F;
13CD   2BB8           06474                         GOTO FTGRM158;
                      06475                         
13CE   24E3           06476                         CALL MLIMPIEZA_PG0;
                      06477 
                      06478 ;---------- Ftgm1 --------- _ _ _ _ _ _ 1
                      06479 
13CF   302D           06480                         MOVLW M;
13D0   00A0           06481                         MOVWF CONTADOR1;
13D1   30FF           06482 FTGRM159                MOVLW N;
13D2   00A1           06483                         MOVWF CONTADOR2;
                      06484 
13D3   3079           06485                         MOVLW CAR_E;
13D4   24FD           06486                         CALL MP0_DIS0;
                      06487 
13D5   3000           06488                         MOVLW NULL;
13D6   2502           06489                         CALL MP0_DIS1;
                      06490 
13D7   3050           06491                         MOVLW CAR_R;
13D8   2507           06492                         CALL MP0_DIS2;
                      06493 
13D9   3077           06494                         MOVLW CAR_A;
13DA   250C           06495                         CALL MP0_DIS3;
                      06496 
13DB   3054           06497                         MOVLW CAR_NN;
13DC   2511           06498                         CALL MP0_DIS4;
                      06499 
13DD   3054           06500                         MOVLW CAR_NN;
13DE   2516           06501                         CALL MP0_DIS5;
                      06502 
13DF   3006           06503                         MOVLW NUM_1;
13E0   251B           06504                         CALL MP0_DIS6;
                      06505 
13E1   3050           06506                         MOVLW CAR_R;
13E2   2520           06507                         CALL MP0_DIS7;
                      06508 
13E3   0BA1           06509 LOOP159         DECFSZ CONTADOR2,F;
13E4   2BE3           06510                         GOTO LOOP159;
13E5   0BA0           06511                         DECFSZ CONTADOR1,F;
13E6   2BD1           06512                         GOTO FTGRM159;
                      06513                         
13E7   24E3           06514                         CALL MLIMPIEZA_PG0;
                      06515 
                      06516 ;---------- Ftgm1 --------- _ _ _ _ _ _ 1
MPASM  5.30.01                         TDM 4.ASM   11-21-2023  23:07:44         PAGE 124


LOC  OBJECT CODE     LINE SOURCE TEXT
  VALUE

                      06517 
13E8   302D           06518                         MOVLW M;
13E9   00A0           06519                         MOVWF CONTADOR1;
13EA   30FF           06520 FTGRM160                MOVLW N;
13EB   00A1           06521                         MOVWF CONTADOR2;
                      06522 
13EC   3000           06523                         MOVLW NULL;
13ED   24FD           06524                         CALL MP0_DIS0;
                      06525 
13EE   3050           06526                         MOVLW CAR_R;
13EF   2502           06527                         CALL MP0_DIS1;
                      06528 
13F0   3077           06529                         MOVLW CAR_A;
13F1   2507           06530                         CALL MP0_DIS2;
                      06531 
13F2   3054           06532                         MOVLW CAR_NN;
13F3   250C           06533                         CALL MP0_DIS3;
                      06534 
13F4   3054           06535                         MOVLW CAR_NN;
13F5   2511           06536                         CALL MP0_DIS4;
                      06537 
13F6   3006           06538                         MOVLW NUM_1;
13F7   2516           06539                         CALL MP0_DIS5;
                      06540 
13F8   3050           06541                         MOVLW CAR_R;
13F9   251B           06542                         CALL MP0_DIS6;
                      06543 
13FA   3079           06544                         MOVLW CAR_E;
13FB   2520           06545                         CALL MP0_DIS7;
                      06546 
13FC   0BA1           06547 LOOP160         DECFSZ CONTADOR2,F;
13FD   2BFC           06548                         GOTO LOOP160;
13FE   0BA0           06549                         DECFSZ CONTADOR1,F;
13FF   2BEA           06550                         GOTO FTGRM160;
                      06551                         
1400   24E3           06552                         CALL MLIMPIEZA_PG0;
                      06553 
                      06554 ;---------- Ftgm1 --------- _ _ _ _ _ _ 1
                      06555 
1401   302D           06556                         MOVLW M;
1402   00A0           06557                         MOVWF CONTADOR1;
1403   30FF           06558 FTGRM161                MOVLW N;
1404   00A1           06559                         MOVWF CONTADOR2;
                      06560 
1405   3050           06561                         MOVLW CAR_R;
1406   24FD           06562                         CALL MP0_DIS0;
                      06563 
1407   3077           06564                         MOVLW CAR_A;
1408   2502           06565                         CALL MP0_DIS1;
                      06566 
1409   3054           06567                         MOVLW CAR_NN;
140A   2507           06568                         CALL MP0_DIS2;
                      06569 
MPASM  5.30.01                         TDM 4.ASM   11-21-2023  23:07:44         PAGE 125


LOC  OBJECT CODE     LINE SOURCE TEXT
  VALUE

140B   3054           06570                         MOVLW CAR_NN;
140C   250C           06571                         CALL MP0_DIS3;
                      06572 
140D   3006           06573                         MOVLW NUM_1;
140E   2511           06574                         CALL MP0_DIS4;
                      06575 
140F   3050           06576                         MOVLW CAR_R;
1410   2516           06577                         CALL MP0_DIS5;
                      06578 
1411   3079           06579                         MOVLW CAR_E;
1412   251B           06580                         CALL MP0_DIS6;
                      06581 
1413   305B           06582                         MOVLW NUM_2;
1414   2520           06583                         CALL MP0_DIS7;
                      06584 
1415   0BA1           06585 LOOP161         DECFSZ CONTADOR2,F;
1416   2C15           06586                         GOTO LOOP161;
1417   0BA0           06587                         DECFSZ CONTADOR1,F;
1418   2C03           06588                         GOTO FTGRM161;
                      06589                         
1419   24E3           06590                         CALL MLIMPIEZA_PG0;
                      06591 
                      06592 ;---------- Ftgm1 --------- _ _ _ _ _ _ 1
                      06593 
141A   302D           06594                         MOVLW M;
141B   00A0           06595                         MOVWF CONTADOR1;
141C   30FF           06596 FTGRM162                MOVLW N;
141D   00A1           06597                         MOVWF CONTADOR2;
                      06598 
141E   3077           06599                         MOVLW CAR_A;
141F   24FD           06600                         CALL MP0_DIS0;
                      06601 
1420   3054           06602                         MOVLW CAR_NN;
1421   2502           06603                         CALL MP0_DIS1;
                      06604 
1422   3054           06605                         MOVLW CAR_NN;
1423   2507           06606                         CALL MP0_DIS2;
                      06607 
1424   3006           06608                         MOVLW NUM_1;
1425   250C           06609                         CALL MP0_DIS3;
                      06610 
1426   3050           06611                         MOVLW CAR_R;
1427   2511           06612                         CALL MP0_DIS4;
                      06613 
1428   3079           06614                         MOVLW CAR_E;
1429   2516           06615                         CALL MP0_DIS5;
                      06616 
142A   305B           06617                         MOVLW NUM_2;
142B   251B           06618                         CALL MP0_DIS6;
                      06619 
142C   3000           06620                         MOVLW NULL;
142D   2520           06621                         CALL MP0_DIS7;
                      06622 
MPASM  5.30.01                         TDM 4.ASM   11-21-2023  23:07:44         PAGE 126


LOC  OBJECT CODE     LINE SOURCE TEXT
  VALUE

142E   0BA1           06623 LOOP162         DECFSZ CONTADOR2,F;
142F   2C2E           06624                         GOTO LOOP162;
1430   0BA0           06625                         DECFSZ CONTADOR1,F;
1431   2C1C           06626                         GOTO FTGRM162;
                      06627                         
1432   24E3           06628                         CALL MLIMPIEZA_PG0;
                      06629                         
                      06630                         ;---------- Ftgm1 --------- _ _ _ _ _ _ 1
                      06631 
1433   302D           06632                         MOVLW M;
1434   00A0           06633                         MOVWF CONTADOR1;
1435   30FF           06634 FTGRM163        MOVLW N;
1436   00A1           06635                         MOVWF CONTADOR2;
                      06636 
1437   3054           06637                         MOVLW CAR_NN;
1438   24FD           06638                         CALL MP0_DIS0;
                      06639 
1439   3054           06640                         MOVLW CAR_NN;
143A   2502           06641                         CALL MP0_DIS1;
                      06642 
143B   3006           06643                         MOVLW NUM_1;
143C   2507           06644                         CALL MP0_DIS2;
                      06645 
143D   3050           06646                         MOVLW CAR_R;
143E   250C           06647                         CALL MP0_DIS3;
                      06648 
143F   3079           06649                         MOVLW CAR_E;
1440   2511           06650                         CALL MP0_DIS4;
                      06651 
1441   305B           06652                         MOVLW NUM_2;
1442   2516           06653                         CALL MP0_DIS5;
                      06654 
1443   3000           06655                         MOVLW NULL;
1444   251B           06656                         CALL MP0_DIS6;
                      06657                         
1445   3006           06658                         MOVLW NUM_1;
1446   2520           06659                         CALL MP0_DIS7;
                      06660 
1447   0BA1           06661 LOOP163         DECFSZ CONTADOR2,F;
1448   2C47           06662                         GOTO LOOP163;
1449   0BA0           06663                         DECFSZ CONTADOR1,F;
144A   2C35           06664                         GOTO FTGRM163;
                      06665                         
144B   24E3           06666                         CALL MLIMPIEZA_PG0;
                      06667                         
                      06668                         ;---------- Ftgm1 --------- _ _ _ _ _ _ 1
                      06669 
144C   302D           06670                         MOVLW M;
144D   00A0           06671                         MOVWF CONTADOR1;
144E   30FF           06672 FTGRM164        MOVLW N;
144F   00A1           06673                         MOVWF CONTADOR2;
                      06674 
1450   3054           06675                         MOVLW CAR_NN;
MPASM  5.30.01                         TDM 4.ASM   11-21-2023  23:07:44         PAGE 127


LOC  OBJECT CODE     LINE SOURCE TEXT
  VALUE

1451   24FD           06676                         CALL MP0_DIS0;
                      06677 
1452   3006           06678                         MOVLW NUM_1;
1453   2502           06679                         CALL MP0_DIS1;
                      06680 
1454   3050           06681                         MOVLW CAR_R;
1455   2507           06682                         CALL MP0_DIS2;
                      06683 
1456   3079           06684                         MOVLW CAR_E;
1457   250C           06685                         CALL MP0_DIS3;
                      06686 
1458   305B           06687                         MOVLW NUM_2;
1459   2511           06688                         CALL MP0_DIS4;
                      06689 
145A   3000           06690                         MOVLW NULL;
145B   2516           06691                         CALL MP0_DIS5;
                      06692                         
145C   3006           06693                         MOVLW NUM_1;
145D   251B           06694                         CALL MP0_DIS6;
                      06695                         
145E   3037           06696                         MOVLW CAR_N;
145F   2520           06697                         CALL MP0_DIS7;
                      06698 
1460   0BA1           06699 LOOP164         DECFSZ CONTADOR2,F;
1461   2C60           06700                         GOTO LOOP164;
1462   0BA0           06701                         DECFSZ CONTADOR1,F;
1463   2C4E           06702                         GOTO FTGRM164;
                      06703                         
1464   24E3           06704                         CALL MLIMPIEZA_PG0;
                      06705                         
                      06706                         ;---------- Ftgm1 --------- _ _ _ _ _ _ 1
                      06707 
1465   302D           06708                         MOVLW M;
1466   00A0           06709                         MOVWF CONTADOR1;
1467   30FF           06710 FTGRM165        MOVLW N;
1468   00A1           06711                         MOVWF CONTADOR2;
                      06712 
1469   3006           06713                         MOVLW NUM_1;
146A   24FD           06714                         CALL MP0_DIS0;
                      06715 
146B   3050           06716                         MOVLW CAR_R;
146C   2502           06717                         CALL MP0_DIS1;
                      06718 
146D   3079           06719                         MOVLW CAR_E;
146E   2507           06720                         CALL MP0_DIS2;
                      06721 
146F   305B           06722                         MOVLW NUM_2;
1470   250C           06723                         CALL MP0_DIS3;
                      06724 
1471   3000           06725                         MOVLW NULL;
1472   2511           06726                         CALL MP0_DIS4;
                      06727                         
1473   3006           06728                         MOVLW NUM_1;
MPASM  5.30.01                         TDM 4.ASM   11-21-2023  23:07:44         PAGE 128


LOC  OBJECT CODE     LINE SOURCE TEXT
  VALUE

1474   2516           06729                         CALL MP0_DIS5;
                      06730                         
1475   3037           06731                         MOVLW CAR_N;
1476   251B           06732                         CALL MP0_DIS6;
                      06733                         
1477   305B           06734                         MOVLW NUM_2;
1478   2520           06735                         CALL MP0_DIS7;
                      06736 
1479   0BA1           06737 LOOP165         DECFSZ CONTADOR2,F;
147A   2C79           06738                         GOTO LOOP165;
147B   0BA0           06739                         DECFSZ CONTADOR1,F;
147C   2C67           06740                         GOTO FTGRM165;
                      06741                         
147D   24E3           06742                         CALL MLIMPIEZA_PG0;
                      06743                         
                      06744                         ;---------- Ftgm1 --------- _ _ _ _ _ _ 1
                      06745 
147E   302D           06746                         MOVLW M;
147F   00A0           06747                         MOVWF CONTADOR1;
1480   30FF           06748 FTGRM166        MOVLW N;
1481   00A1           06749                         MOVWF CONTADOR2;
                      06750 
1482   3050           06751                         MOVLW CAR_R;
1483   24FD           06752                         CALL MP0_DIS0;
                      06753 
1484   3079           06754                         MOVLW CAR_E;
1485   2502           06755                         CALL MP0_DIS1;
                      06756 
1486   305B           06757                         MOVLW NUM_2;
1487   2507           06758                         CALL MP0_DIS2;
                      06759 
1488   3000           06760                         MOVLW NULL;
1489   250C           06761                         CALL MP0_DIS3;
                      06762                         
148A   3006           06763                         MOVLW NUM_1;
148B   2511           06764                         CALL MP0_DIS4;
                      06765                         
148C   3037           06766                         MOVLW CAR_N;
148D   2516           06767                         CALL MP0_DIS5;
                      06768                         
148E   305B           06769                         MOVLW NUM_2;
148F   251B           06770                         CALL MP0_DIS6;
                      06771                         
1490   3078           06772                         MOVLW CAR_T;
1491   2520           06773                         CALL MP0_DIS7;
                      06774 
1492   0BA1           06775 LOOP166         DECFSZ CONTADOR2,F;
1493   2C92           06776                         GOTO LOOP166;
1494   0BA0           06777                         DECFSZ CONTADOR1,F;
1495   2C80           06778                         GOTO FTGRM166;
                      06779                         
1496   24E3           06780                         CALL MLIMPIEZA_PG0;
                      06781                         
MPASM  5.30.01                         TDM 4.ASM   11-21-2023  23:07:44         PAGE 129


LOC  OBJECT CODE     LINE SOURCE TEXT
  VALUE

                      06782                         ;---------- Ftgm1 --------- _ _ _ _ _ _ 1
                      06783 
1497   302D           06784                         MOVLW M;
1498   00A0           06785                         MOVWF CONTADOR1;
1499   30FF           06786 FTGRM167        MOVLW N;
149A   00A1           06787                         MOVWF CONTADOR2;
                      06788 
149B   3079           06789                         MOVLW CAR_E;
149C   24FD           06790                         CALL MP0_DIS0;
                      06791 
149D   305B           06792                         MOVLW NUM_2;
149E   2502           06793                         CALL MP0_DIS1;
                      06794 
149F   3000           06795                         MOVLW NULL;
14A0   2507           06796                         CALL MP0_DIS2;
                      06797                         
14A1   3006           06798                         MOVLW NUM_1;
14A2   250C           06799                         CALL MP0_DIS3;
                      06800                         
14A3   3037           06801                         MOVLW CAR_N;
14A4   2511           06802                         CALL MP0_DIS4;
                      06803                         
14A5   305B           06804                         MOVLW NUM_2;
14A6   2516           06805                         CALL MP0_DIS5;
                      06806                         
14A7   3078           06807                         MOVLW CAR_T;
14A8   251B           06808                         CALL MP0_DIS6;
                      06809                         
14A9   3006           06810                         MOVLW NUM_1;
14AA   2520           06811                         CALL MP0_DIS7;
                      06812 
14AB   0BA1           06813 LOOP167         DECFSZ CONTADOR2,F;
14AC   2CAB           06814                         GOTO LOOP167;
14AD   0BA0           06815                         DECFSZ CONTADOR1,F;
14AE   2C99           06816                         GOTO FTGRM167;
                      06817                         
14AF   24E3           06818                         CALL MLIMPIEZA_PG0;
                      06819                         
                      06820                         ;---------- Ftgm1 --------- _ _ _ _ _ _ 1
                      06821 
14B0   302D           06822                         MOVLW M;
14B1   00A0           06823                         MOVWF CONTADOR1;
14B2   30FF           06824 FTGRM168        MOVLW N;
14B3   00A1           06825                         MOVWF CONTADOR2;
                      06826 
14B4   305B           06827                         MOVLW NUM_2;
14B5   24FD           06828                         CALL MP0_DIS0;
                      06829 
14B6   3000           06830                         MOVLW NULL;
14B7   2502           06831                         CALL MP0_DIS1;
                      06832                         
14B8   3006           06833                         MOVLW NUM_1;
14B9   2507           06834                         CALL MP0_DIS2;
MPASM  5.30.01                         TDM 4.ASM   11-21-2023  23:07:44         PAGE 130


LOC  OBJECT CODE     LINE SOURCE TEXT
  VALUE

                      06835                         
14BA   3037           06836                         MOVLW CAR_N;
14BB   250C           06837                         CALL MP0_DIS3;
                      06838                         
14BC   305B           06839                         MOVLW NUM_2;
14BD   2511           06840                         CALL MP0_DIS4;
                      06841                         
14BE   3078           06842                         MOVLW CAR_T;
14BF   2516           06843                         CALL MP0_DIS5;
                      06844                         
14C0   3006           06845                         MOVLW NUM_1;
14C1   251B           06846                         CALL MP0_DIS6;
                      06847                         
14C2   3078           06848                         MOVLW CAR_T;
14C3   2520           06849                         CALL MP0_DIS7;
                      06850 
14C4   0BA1           06851 LOOP168         DECFSZ CONTADOR2,F;
14C5   2CC4           06852                         GOTO LOOP168;
14C6   0BA0           06853                         DECFSZ CONTADOR1,F;
14C7   2CB2           06854                         GOTO FTGRM168;
                      06855                         
14C8   24E3           06856                         CALL MLIMPIEZA_PG0;
                      06857 
                      06858 
                      06859                         ;---------- Ftgm1 --------- _ _ _ _ _ _ 1
                      06860 
14C9   302D           06861                         MOVLW M;
14CA   00A0           06862                         MOVWF CONTADOR1;
14CB   30FF           06863 FTGRM169        MOVLW N;
14CC   00A1           06864                         MOVWF CONTADOR2;
                      06865 
14CD   3000           06866                         MOVLW NULL;
14CE   24FD           06867                         CALL MP0_DIS0;
                      06868                         
14CF   3006           06869                         MOVLW NUM_1;
14D0   2502           06870                         CALL MP0_DIS1;
                      06871                         
14D1   3037           06872                         MOVLW CAR_N;
14D2   2507           06873                         CALL MP0_DIS2;
                      06874                         
14D3   305B           06875                         MOVLW NUM_2;
14D4   250C           06876                         CALL MP0_DIS3;
                      06877                         
14D5   3078           06878                         MOVLW CAR_T;
14D6   2511           06879                         CALL MP0_DIS4;
                      06880                         
14D7   3006           06881                         MOVLW NUM_1;
14D8   2516           06882                         CALL MP0_DIS5;
                      06883                         
14D9   3078           06884                         MOVLW CAR_T;
14DA   251B           06885                         CALL MP0_DIS6;
                      06886                         
14DB   303E           06887                         MOVLW CAR_U;
MPASM  5.30.01                         TDM 4.ASM   11-21-2023  23:07:44         PAGE 131


LOC  OBJECT CODE     LINE SOURCE TEXT
  VALUE

14DC   2520           06888                         CALL MP0_DIS7;
                      06889 
14DD   0BA1           06890 LOOP169         DECFSZ CONTADOR2,F;
14DE   2CDD           06891                         GOTO LOOP169;
14DF   0BA0           06892                         DECFSZ CONTADOR1,F;
14E0   2CCB           06893                         GOTO FTGRM169;
                      06894                         
14E1   24E3           06895                         CALL MLIMPIEZA_PG0;
                      06896                         
                      06897 ;-------------------------------------------------------------------------------------------
                      06898 
14E2   2D25           06899                         GOTO REGRESO;
                      06900 ;--------------------------------------------------------------------------------------------
                      06901 
                      06902                         ;=======================
                      06903                         ;== Limpia displays ====
                      06904                         ;=======================
                      06905                         
14E3   1408           06906 MLIMPIEZA_PG0   BSF     PORTD,DIS0;
14E4   1488           06907                                 BSF     PORTD,DIS1;
14E5   1508           06908                                 BSF     PORTD,DIS2;
14E6   1588           06909                                 BSF     PORTD,DIS3;
14E7   1608           06910                                 BSF     PORTD,DIS4;
14E8   1688           06911                                 BSF     PORTD,DIS5;
14E9   1708           06912                                 BSF     PORTD,DIS6;
14EA   1788           06913                                 BSF     PORTD,DIS7;
                      06914                         
14EB   1006           06915                                 BCF PORTB,A_RB0;
14EC   1086           06916                                 BCF PORTB,B_RB1;
14ED   1106           06917                                 BCF PORTB,C_RB2;
14EE   1186           06918                                 BCF PORTB,D_RB3;
14EF   1206           06919                                 BCF PORTB,E_RB4;
14F0   1286           06920                                 BCF PORTB,F_RB5;
14F1   1306           06921                                 BCF PORTB,G_RB6;
14F2   1386           06922                                 BCF PORTB,DP_RB7;
                      06923                         
14F3   0008           06924                                 RETURN;
                      06925                         
                      06926 ;---------------------------------------------------------------------------------------------
                      06927                         ; ====================
                      06928                         ; === Retardo Menor ==
                      06929                         ; ====================
14F4   3003           06930 MRMN_PG0                MOVLW L;
14F5   00A2           06931                         MOVWF CONTADOR3;
14F6   307E           06932 MLOOPR1         MOVLW K;
14F7   00A3           06933                         MOVWF CONTADOR4;
                      06934                         
14F8   0BA3           06935 MLOOPRB0                DECFSZ CONTADOR4,F;
14F9   2CF8           06936                         GOTO MLOOPRB0;
14FA   0BA2           06937                         DECFSZ CONTADOR3,F;
14FB   2CF6           06938                         GOTO MLOOPR1;
                      06939 
14FC   0008           06940                         RETURN;
MPASM  5.30.01                         TDM 4.ASM   11-21-2023  23:07:44         PAGE 132


LOC  OBJECT CODE     LINE SOURCE TEXT
  VALUE

                      06941 ;---------------------------------------------------------------------------------------------
                      06942                         ;========================
                      06943                         ;=== Pulsos de cambio ===
                      06944                         ;========================
14FD   0086           06945 MP0_DIS0                MOVWF PORTB;
14FE   1008           06946                         BCF PORTD,DIS0;
14FF   24F4           06947                         CALL MRMN_PG0;
1500   1408           06948                         BSF PORTD,DIS0;
1501   0008           06949                         RETURN;
                      06950 
1502   0086           06951 MP0_DIS1                MOVWF PORTB;
1503   1088           06952                         BCF PORTD,DIS1;
1504   24F4           06953                         CALL MRMN_PG0;
1505   1488           06954                         BSF PORTD,DIS1;
1506   0008           06955                         RETURN;
                      06956 
1507   0086           06957 MP0_DIS2                MOVWF PORTB;
1508   1108           06958                         BCF PORTD,DIS2;
1509   24F4           06959                         CALL MRMN_PG0;
150A   1508           06960                         BSF PORTD,DIS2;
150B   0008           06961                         RETURN;
                      06962 
150C   0086           06963 MP0_DIS3                MOVWF PORTB;
150D   1188           06964                         BCF PORTD,DIS3;
150E   24F4           06965                         CALL MRMN_PG0;
150F   1588           06966                         BSF PORTD,DIS3;
1510   0008           06967                         RETURN;
                      06968 
1511   0086           06969 MP0_DIS4                MOVWF PORTB;
1512   1208           06970                         BCF PORTD,DIS4;
1513   24F4           06971                         CALL MRMN_PG0;
1514   1608           06972                         BSF PORTD,DIS4;
1515   0008           06973                         RETURN;
                      06974 
1516   0086           06975 MP0_DIS5                MOVWF PORTB;
1517   1288           06976                         BCF PORTD,DIS5;
1518   24F4           06977                         CALL MRMN_PG0;
1519   1688           06978                         BSF PORTD,DIS5;
151A   0008           06979                         RETURN;
                      06980 
151B   0086           06981 MP0_DIS6                MOVWF PORTB;
151C   1308           06982                         BCF PORTD,DIS6;
151D   24F4           06983                         CALL MRMN_PG0;
151E   1708           06984                         BSF PORTD,DIS6;
151F   0008           06985                         RETURN;
                      06986 
1520   0086           06987 MP0_DIS7                MOVWF PORTB;
1521   1388           06988                         BCF PORTD,DIS7;
1522   24F4           06989                         CALL MRMN_PG0;
1523   1788           06990                         BSF PORTD,DIS7;
1524   0008           06991                         RETURN;
                      06992 
                      06993 ;---------------------------------------------------------------------------------------------  
MPASM  5.30.01                         TDM 4.ASM   11-21-2023  23:07:44         PAGE 133


LOC  OBJECT CODE     LINE SOURCE TEXT
  VALUE

                      06994 
1525   120A           06995 REGRESO BCF PCLATH,.4;
1526   118A           06996                 BCF PCLATH,.3;
Message[306]: Crossing page boundary -- ensure page bits are set.
1527   28CB           06997                 GOTO FTGRM8;
                      06998                                 
                      06999 
                      07000                 END
MPASM  5.30.01                         TDM 4.ASM   11-21-2023  23:07:44         PAGE 134


SYMBOL TABLE
  LABEL                             VALUE 

ACKDT                             00000005
ACKEN                             00000004
ACKSTAT                           00000006
ADCON0                            0000001F
ADCON1                            0000009F
ADCS0                             00000006
ADCS1                             00000007
ADCS2                             00000006
ADDEN                             00000003
ADFM                              00000007
ADIE                              00000006
ADIF                              00000006
ADON                              00000000
ADRESH                            0000001E
ADRESL                            0000009E
A_RB0                             00000000
BCLIE                             00000003
BCLIF                             00000003
BF                                00000000
BRGH                              00000002
B_RB1                             00000001
C                                 00000000
C1INV                             00000004
C1OUT                             00000006
C2INV                             00000005
C2OUT                             00000007
CAR_A                             00000077
CAR_B                             0000007C
CAR_C                             00000039
CAR_CC                            00000058
CAR_D                             0000005E
CAR_E                             00000079
CAR_F                             00000071
CAR_H                             00000076
CAR_HH                            00000074
CAR_I                             00000010
CAR_J                             0000001E
CAR_L                             00000038
CAR_N                             00000037
CAR_NN                            00000054
CAR_O                             0000005C
CAR_P                             00000073
CAR_R                             00000050
CAR_T                             00000078
CAR_U                             0000003E
CAR_UU                            0000001C
CAR_Y                             0000006E
CAR_ń                             00000055
CCP1CON                           00000017
CCP1IE                            00000002
CCP1IF                            00000002
CCP1M0                            00000000
CCP1M1                            00000001
MPASM  5.30.01                         TDM 4.ASM   11-21-2023  23:07:44         PAGE 135


SYMBOL TABLE
  LABEL                             VALUE 

CCP1M2                            00000002
CCP1M3                            00000003
CCP1X                             00000005
CCP1Y                             00000004
CCP2CON                           0000001D
CCP2IE                            00000000
CCP2IF                            00000000
CCP2M0                            00000000
CCP2M1                            00000001
CCP2M2                            00000002
CCP2M3                            00000003
CCP2X                             00000005
CCP2Y                             00000004
CCPR1H                            00000016
CCPR1L                            00000015
CCPR2H                            0000001C
CCPR2L                            0000001B
CHS0                              00000003
CHS1                              00000004
CHS2                              00000005
CIS                               00000003
CKE                               00000006
CKP                               00000004
CM0                               00000000
CM1                               00000001
CM2                               00000002
CMCON                             0000009C
CMIE                              00000006
CMIF                              00000006
CONTADOR1                         00000020
CONTADOR2                         00000021
CONTADOR3                         00000022
CONTADOR4                         00000023
CREN                              00000004
CSRC                              00000007
CVR0                              00000000
CVR1                              00000001
CVR2                              00000002
CVR3                              00000003
CVRCON                            0000009D
CVREN                             00000007
CVROE                             00000006
CVRR                              00000005
C_RB2                             00000002
D                                 00000005
DATA_ADDRESS                      00000005
DC                                00000001
DIS0                              00000000
DIS1                              00000001
DIS2                              00000002
DIS3                              00000003
DIS4                              00000004
DIS5                              00000005
MPASM  5.30.01                         TDM 4.ASM   11-21-2023  23:07:44         PAGE 136


SYMBOL TABLE
  LABEL                             VALUE 

DIS6                              00000006
DIS7                              00000007
DP_RB7                            00000007
D_A                               00000005
D_RB3                             00000003
EEADR                             0000010D
EEADRH                            0000010F
EECON1                            0000018C
EECON2                            0000018D
EEDATA                            0000010C
EEDATH                            0000010E
EEIE                              00000004
EEIF                              00000004
EEPGD                             00000007
E_RB4                             00000004
F                                 00000001
FERR                              00000002
FSR                               00000004
FTGRM1                            0000001C
FTGRM10                           000000FD
FTGRM100                          00000D7A
FTGRM101                          00000D93
FTGRM102                          00000DAC
FTGRM103                          00000DC5
FTGRM104                          00000DDE
FTGRM105                          00000DF7
FTGRM106                          00000E10
FTGRM107                          00000E29
FTGRM108                          00000E42
FTGRM109                          00000E5B
FTGRM11                           00000116
FTGRM110                          00000E74
FTGRM111                          00000E8D
FTGRM112                          00000EA6
FTGRM113                          00000EBF
FTGRM114                          00000ED8
FTGRM115                          00000EF1
FTGRM116                          00000F0A
FTGRM117                          00000F23
FTGRM118                          00000F3C
FTGRM118.1                        00000F55
FTGRM119                          00000F6E
FTGRM12                           0000012F
FTGRM120                          00001002
FTGRM121                          0000101B
FTGRM122                          00001034
FTGRM123                          0000104D
FTGRM124                          00001066
FTGRM125                          0000107F
FTGRM126                          00001098
FTGRM127                          000010B1
FTGRM128                          000010CA
FTGRM129                          000010E3
MPASM  5.30.01                         TDM 4.ASM   11-21-2023  23:07:44         PAGE 137


SYMBOL TABLE
  LABEL                             VALUE 

FTGRM13                           00000148
FTGRM130                          000010FC
FTGRM131                          00001115
FTGRM132                          0000112E
FTGRM133                          00001147
FTGRM134                          00001160
FTGRM135                          00001179
FTGRM136                          00001192
FTGRM137                          000011AB
FTGRM138                          000011C4
FTGRM139                          000011DD
FTGRM14                           00000161
FTGRM140                          000011F6
FTGRM141                          0000120F
FTGRM142                          00001228
FTGRM143                          00001241
FTGRM144                          0000125A
FTGRM145                          00001273
FTGRM146                          0000128C
FTGRM147                          000012A5
FTGRM148                          000012BE
FTGRM149                          000012D7
FTGRM15                           0000017A
FTGRM150                          000012F0
FTGRM151                          00001309
FTGRM152                          00001322
FTGRM153                          0000133B
FTGRM154                          00001354
FTGRM155                          0000136D
FTGRM156                          00001386
FTGRM157                          0000139F
FTGRM158                          000013B8
FTGRM159                          000013D1
FTGRM16                           00000193
FTGRM160                          000013EA
FTGRM161                          00001403
FTGRM162                          0000141C
FTGRM163                          00001435
FTGRM164                          0000144E
FTGRM165                          00001467
FTGRM166                          00001480
FTGRM167                          00001499
FTGRM168                          000014B2
FTGRM169                          000014CB
FTGRM17                           000001AC
FTGRM18                           000001C5
FTGRM19                           000001DE
FTGRM2                            00000035
FTGRM20                           000001F7
FTGRM21                           00000210
FTGRM22                           00000229
FTGRM23                           00000242
FTGRM24                           0000025B
MPASM  5.30.01                         TDM 4.ASM   11-21-2023  23:07:44         PAGE 138


SYMBOL TABLE
  LABEL                             VALUE 

FTGRM25                           00000274
FTGRM26                           0000028D
FTGRM27                           000002A6
FTGRM28                           000002BF
FTGRM29                           000002D8
FTGRM3                            0000004E
FTGRM30                           000002F1
FTGRM31                           0000030A
FTGRM32                           00000323
FTGRM33                           0000033C
FTGRM34                           00000355
FTGRM35                           0000036E
FTGRM36                           00000387
FTGRM37                           000003A0
FTGRM38                           000003B9
FTGRM39                           000003D2
FTGRM4                            00000067
FTGRM40                           000003EB
FTGRM41                           00000404
FTGRM42                           0000041D
FTGRM43                           00000436
FTGRM44                           0000044F
FTGRM45                           00000802
FTGRM46                           0000081B
FTGRM47                           00000834
FTGRM48                           0000084D
FTGRM49                           00000866
FTGRM5                            00000080
FTGRM50                           0000087F
FTGRM51                           00000898
FTGRM52                           000008B1
FTGRM53                           000008CA
FTGRM54                           000008E3
FTGRM55                           000008FC
FTGRM56                           00000915
FTGRM57                           0000092E
FTGRM58                           00000947
FTGRM59                           00000960
FTGRM6                            00000099
FTGRM60                           00000979
FTGRM61                           00000992
FTGRM62                           000009AB
FTGRM63                           000009C4
FTGRM64                           000009DD
FTGRM65                           000009F6
FTGRM66                           00000A0F
FTGRM67                           00000A28
FTGRM68                           00000A41
FTGRM69                           00000A5A
FTGRM7                            000000B2
FTGRM70                           00000A73
FTGRM71                           00000A8C
FTGRM72                           00000AA5
MPASM  5.30.01                         TDM 4.ASM   11-21-2023  23:07:44         PAGE 139


SYMBOL TABLE
  LABEL                             VALUE 

FTGRM73                           00000ABE
FTGRM74                           00000AD7
FTGRM75                           00000AF0
FTGRM76                           00000B09
FTGRM77                           00000B22
FTGRM78                           00000B3B
FTGRM79                           00000B54
FTGRM8                            000000CB
FTGRM80                           00000B6D
FTGRM81                           00000B86
FTGRM82                           00000B9F
FTGRM82.1                         00000BB8
FTGRM83                           00000BD1
FTGRM84                           00000BEA
FTGRM85                           00000C03
FTGRM86                           00000C1C
FTGRM87                           00000C35
FTGRM88                           00000C4E
FTGRM89                           00000C67
FTGRM9                            000000E4
FTGRM90                           00000C80
FTGRM91                           00000C99
FTGRM92                           00000CB2
FTGRM93                           00000CCB
FTGRM94                           00000CE4
FTGRM95                           00000CFD
FTGRM96                           00000D16
FTGRM97                           00000D2F
FTGRM98                           00000D48
FTGRM99                           00000D61
F_RB5                             00000005
GCEN                              00000007
GIE                               00000007
GO                                00000002
GO_DONE                           00000002
G_RB6                             00000006
I2C_DATA                          00000005
I2C_READ                          00000002
I2C_START                         00000003
I2C_STOP                          00000004
IBF                               00000007
IBOV                              00000005
INDF                              00000000
INTCON                            0000000B
INTE                              00000004
INTEDG                            00000006
INTF                              00000001
IRP                               00000007
K                                 0000007E
L                                 00000003
LIMPIEZA_PG0                      00000F86
LLIMPIEZA_PG0                     00000467
LOOP1                             0000002E
MPASM  5.30.01                         TDM 4.ASM   11-21-2023  23:07:44         PAGE 140


SYMBOL TABLE
  LABEL                             VALUE 

LOOP10                            0000010F
LOOP100                           00000D8C
LOOP101                           00000DA5
LOOP102                           00000DBE
LOOP103                           00000DD7
LOOP104                           00000DF0
LOOP105                           00000E09
LOOP106                           00000E22
LOOP107                           00000E3B
LOOP108                           00000E54
LOOP109                           00000E6D
LOOP11                            00000128
LOOP110                           00000E86
LOOP111                           00000E9F
LOOP112                           00000EB8
LOOP113                           00000ED1
LOOP114                           00000EEA
LOOP115                           00000F03
LOOP116                           00000F1C
LOOP117                           00000F35
LOOP118                           00000F4E
LOOP118.1                         00000F67
LOOP119                           00000F80
LOOP12                            00000141
LOOP120                           00001014
LOOP121                           0000102D
LOOP122                           00001046
LOOP123                           0000105F
LOOP124                           00001078
LOOP125                           00001091
LOOP126                           000010AA
LOOP127                           000010C3
LOOP128                           000010DC
LOOP129                           000010F5
LOOP13                            0000015A
LOOP130                           0000110E
LOOP131                           00001127
LOOP132                           00001140
LOOP133                           00001159
LOOP134                           00001172
LOOP135                           0000118B
LOOP136                           000011A4
LOOP137                           000011BD
LOOP138                           000011D6
LOOP139                           000011EF
LOOP14                            00000173
LOOP140                           00001208
LOOP141                           00001221
LOOP142                           0000123A
LOOP143                           00001253
LOOP144                           0000126C
LOOP145                           00001285
LOOP146                           0000129E
MPASM  5.30.01                         TDM 4.ASM   11-21-2023  23:07:44         PAGE 141


SYMBOL TABLE
  LABEL                             VALUE 

LOOP147                           000012B7
LOOP148                           000012D0
LOOP149                           000012E9
LOOP15                            0000018C
LOOP150                           00001302
LOOP151                           0000131B
LOOP152                           00001334
LOOP153                           0000134D
LOOP154                           00001366
LOOP155                           0000137F
LOOP156                           00001398
LOOP157                           000013B1
LOOP158                           000013CA
LOOP159                           000013E3
LOOP16                            000001A5
LOOP160                           000013FC
LOOP161                           00001415
LOOP162                           0000142E
LOOP163                           00001447
LOOP164                           00001460
LOOP165                           00001479
LOOP166                           00001492
LOOP167                           000014AB
LOOP168                           000014C4
LOOP169                           000014DD
LOOP17                            000001BE
LOOP18                            000001D7
LOOP19                            000001F0
LOOP2                             00000047
LOOP20                            00000209
LOOP21                            00000222
LOOP22                            0000023B
LOOP23                            00000254
LOOP24                            0000026D
LOOP25                            00000286
LOOP26                            0000029F
LOOP27                            000002B8
LOOP28                            000002D1
LOOP29                            000002EA
LOOP3                             00000060
LOOP30                            00000303
LOOP31                            0000031C
LOOP32                            00000335
LOOP33                            0000034E
LOOP34                            00000367
LOOP35                            00000380
LOOP36                            00000399
LOOP37                            000003B2
LOOP38                            000003CB
LOOP39                            000003E4
LOOP4                             00000079
LOOP40                            000003FD
LOOP41                            00000416
MPASM  5.30.01                         TDM 4.ASM   11-21-2023  23:07:44         PAGE 142


SYMBOL TABLE
  LABEL                             VALUE 

LOOP42                            0000042F
LOOP43                            00000448
LOOP44                            00000461
LOOP45                            00000814
LOOP46                            0000082D
LOOP47                            00000846
LOOP48                            0000085F
LOOP49                            00000878
LOOP5                             00000092
LOOP50                            00000891
LOOP51                            000008AA
LOOP52                            000008C3
LOOP53                            000008DC
LOOP54                            000008F5
LOOP55                            0000090E
LOOP56                            00000927
LOOP57                            00000940
LOOP58                            00000959
LOOP59                            00000972
LOOP6                             000000AB
LOOP60                            0000098B
LOOP61                            000009A4
LOOP62                            000009BD
LOOP63                            000009D6
LOOP64                            000009EF
LOOP65                            00000A08
LOOP66                            00000A21
LOOP67                            00000A3A
LOOP68                            00000A53
LOOP69                            00000A6C
LOOP7                             000000C4
LOOP70                            00000A85
LOOP71                            00000A9E
LOOP72                            00000AB7
LOOP73                            00000AD0
LOOP74                            00000AE9
LOOP75                            00000B02
LOOP76                            00000B1B
LOOP77                            00000B34
LOOP78                            00000B4D
LOOP79                            00000B66
LOOP8                             000000DD
LOOP80                            00000B7F
LOOP81                            00000B98
LOOP82                            00000BB1
LOOP82.1                          00000BCA
LOOP83                            00000BE3
LOOP84                            00000BFC
LOOP85                            00000C15
LOOP86                            00000C2E
LOOP87                            00000C47
LOOP88                            00000C60
LOOP89                            00000C79
MPASM  5.30.01                         TDM 4.ASM   11-21-2023  23:07:44         PAGE 143


SYMBOL TABLE
  LABEL                             VALUE 

LOOP9                             000000F6
LOOP90                            00000C92
LOOP91                            00000CAB
LOOP92                            00000CC4
LOOP93                            00000CDD
LOOP94                            00000CF6
LOOP95                            00000D0F
LOOP96                            00000D28
LOOP97                            00000D41
LOOP98                            00000D5A
LOOP99                            00000D73
LOOPR1                            00000F99
LOOPR11                           0000047A
LOOPRB0                           00000F9B
LOOPRB01                          0000047C
LP0_DIS0                          00000481
LP0_DIS1                          00000486
LP0_DIS2                          0000048B
LP0_DIS3                          00000490
LP0_DIS4                          00000495
LP0_DIS5                          0000049A
LP0_DIS6                          0000049F
LP0_DIS7                          000004A4
LRMN_PG1                          00000478
M                                 0000002D
MLIMPIEZA_PG0                     000014E3
MLOOPR1                           000014F6
MLOOPRB0                          000014F8
MP0_DIS0                          000014FD
MP0_DIS1                          00001502
MP0_DIS2                          00001507
MP0_DIS3                          0000150C
MP0_DIS4                          00001511
MP0_DIS5                          00001516
MP0_DIS6                          0000151B
MP0_DIS7                          00001520
MRMN_PG0                          000014F4
N                                 000000FF
NOT_A                             00000005
NOT_ADDRESS                       00000005
NOT_BO                            00000000
NOT_BOR                           00000000
NOT_DONE                          00000002
NOT_PD                            00000003
NOT_POR                           00000001
NOT_RBPU                          00000007
NOT_RC8                           00000006
NOT_T1SYNC                        00000002
NOT_TO                            00000004
NOT_TX8                           00000006
NOT_W                             00000002
NOT_WRITE                         00000002
NULL                              00000000
MPASM  5.30.01                         TDM 4.ASM   11-21-2023  23:07:44         PAGE 144


SYMBOL TABLE
  LABEL                             VALUE 

NUM_0                             0000003F
NUM_1                             00000006
NUM_2                             0000005B
NUM_3                             0000004F
NUM_4                             00000066
NUM_5                             0000006D
NUM_6                             0000007D
NUM_7                             00000007
NUM_8                             0000007F
NUM_9                             0000006F
OBF                               00000006
OERR                              00000001
OPTION_REG                        00000081
P                                 00000004
P0_DIS0                           00000FA0
P0_DIS1                           00000FA5
P0_DIS2                           00000FAA
P0_DIS3                           00000FAF
P0_DIS4                           00000FB4
P0_DIS5                           00000FB9
P0_DIS6                           00000FBE
P0_DIS7                           00000FC3
PCFG0                             00000000
PCFG1                             00000001
PCFG2                             00000002
PCFG3                             00000003
PCL                               00000002
PCLATH                            0000000A
PCON                              0000008E
PEIE                              00000006
PEN                               00000002
PG1                               000004A9
PG2                               00000FC8
PIE1                              0000008C
PIE2                              0000008D
PIR1                              0000000C
PIR2                              0000000D
PORTA                             00000005
PORTB                             00000006
PORTC                             00000007
PORTD                             00000008
PORTE                             00000009
PR2                               00000092
PROGA                             0000003F
PROGB                             00000000
PROGC                             000000FF
PROGD                             00000000
PROGE                             00000007
PROG_INI                          00000006
PROG_PRIN                         00000018
PS0                               00000000
PS1                               00000001
PS2                               00000002
MPASM  5.30.01                         TDM 4.ASM   11-21-2023  23:07:44         PAGE 145


SYMBOL TABLE
  LABEL                             VALUE 

PSA                               00000003
PSPIE                             00000007
PSPIF                             00000007
PSPMODE                           00000004
R                                 00000002
RBIE                              00000003
RBIF                              00000000
RC8_9                             00000006
RC9                               00000006
RCD8                              00000000
RCEN                              00000003
RCIE                              00000005
RCIF                              00000005
RCREG                             0000001A
RCSTA                             00000018
RD                                00000000
READ_WRITE                        00000002
REGRESO                           00001525
RMN_PG0                           00000F97
RP0                               00000005
RP1                               00000006
RSEN                              00000001
RX9                               00000006
RX9D                              00000000
R_W                               00000002
S                                 00000003
SEN                               00000000
SIN_USORA0                        00000000
SIN_USORA1                        00000001
SIN_USORA2                        00000002
SIN_USORA3                        00000003
SIN_USORA4                        00000004
SIN_USORA5                        00000005
SIN_USORC0                        00000000
SIN_USORC1                        00000001
SIN_USORC2                        00000002
SIN_USORC3                        00000003
SIN_USORC4                        00000004
SIN_USORC5                        00000005
SIN_USORC6                        00000006
SIN_USORC7                        00000007
SIN_USORE0                        00000000
SIN_USORE1                        00000001
SIN_USORE2                        00000002
SMP                               00000007
SPBRG                             00000099
SPEN                              00000007
SREN                              00000005
SSPADD                            00000093
SSPBUF                            00000013
SSPCON                            00000014
SSPCON2                           00000091
SSPEN                             00000005
MPASM  5.30.01                         TDM 4.ASM   11-21-2023  23:07:44         PAGE 146


SYMBOL TABLE
  LABEL                             VALUE 

SSPIE                             00000003
SSPIF                             00000003
SSPM0                             00000000
SSPM1                             00000001
SSPM2                             00000002
SSPM3                             00000003
SSPOV                             00000006
SSPSTAT                           00000094
STATUS                            00000003
SYNC                              00000004
T0CS                              00000005
T0IE                              00000005
T0IF                              00000002
T0SE                              00000004
T1CKPS0                           00000004
T1CKPS1                           00000005
T1CON                             00000010
T1INSYNC                          00000002
T1OSCEN                           00000003
T1SYNC                            00000002
T2CKPS0                           00000000
T2CKPS1                           00000001
T2CON                             00000012
TMR0                              00000001
TMR0IE                            00000005
TMR0IF                            00000002
TMR1CS                            00000001
TMR1H                             0000000F
TMR1IE                            00000000
TMR1IF                            00000000
TMR1L                             0000000E
TMR1ON                            00000000
TMR2                              00000011
TMR2IE                            00000001
TMR2IF                            00000001
TMR2ON                            00000002
TOUTPS0                           00000003
TOUTPS1                           00000004
TOUTPS2                           00000005
TOUTPS3                           00000006
TRISA                             00000085
TRISB                             00000086
TRISC                             00000087
TRISD                             00000088
TRISE                             00000089
TRISE0                            00000000
TRISE1                            00000001
TRISE2                            00000002
TRMT                              00000001
TX8_9                             00000006
TX9                               00000006
TX9D                              00000000
TXD8                              00000000
MPASM  5.30.01                         TDM 4.ASM   11-21-2023  23:07:44         PAGE 147


SYMBOL TABLE
  LABEL                             VALUE 

TXEN                              00000005
TXIE                              00000004
TXIF                              00000004
TXREG                             00000019
TXSTA                             00000098
UA                                00000001
VEC_INT                           00000004
VEC_RESET                         00000000
W                                 00000000
WCOL                              00000007
WR                                00000001
WREN                              00000002
WRERR                             00000003
Z                                 00000002
_BODEN_OFF                        00003FBF
_BODEN_ON                         00003FFF
_CPD_OFF                          00003FFF
_CPD_ON                           00003EFF
_CP_ALL                           00001FFF
_CP_OFF                           00003FFF
_DEBUG_OFF                        00003FFF
_DEBUG_ON                         000037FF
_HS_OSC                           00003FFE
_LP_OSC                           00003FFC
_LVP_OFF                          00003F7F
_LVP_ON                           00003FFF
_PWRTE_OFF                        00003FFF
_PWRTE_ON                         00003FF7
_RC_OSC                           00003FFF
_WDT_OFF                          00003FFB
_WDT_ON                           00003FFF
_WRT_1FOURTH                      00003BFF
_WRT_256                          00003DFF
_WRT_HALF                         000039FF
_WRT_OFF                          00003FFF
_XT_OSC                           00003FFD
__16F877A                         00000001


MEMORY USAGE MAP ('X' = Used,  '-' = Unused)

0000 : XX--XXXXXXXXXXXX XXXXXXXXXXXXXXXX XXXXXXXXXXXXXXXX XXXXXXXXXXXXXXXX
0040 : XXXXXXXXXXXXXXXX XXXXXXXXXXXXXXXX XXXXXXXXXXXXXXXX XXXXXXXXXXXXXXXX
0080 : XXXXXXXXXXXXXXXX XXXXXXXXXXXXXXXX XXXXXXXXXXXXXXXX XXXXXXXXXXXXXXXX
00C0 : XXXXXXXXXXXXXXXX XXXXXXXXXXXXXXXX XXXXXXXXXXXXXXXX XXXXXXXXXXXXXXXX
0100 : XXXXXXXXXXXXXXXX XXXXXXXXXXXXXXXX XXXXXXXXXXXXXXXX XXXXXXXXXXXXXXXX
MPASM  5.30.01                         TDM 4.ASM   11-21-2023  23:07:44         PAGE 148


MEMORY USAGE MAP ('X' = Used,  '-' = Unused)


0140 : XXXXXXXXXXXXXXXX XXXXXXXXXXXXXXXX XXXXXXXXXXXXXXXX XXXXXXXXXXXXXXXX
0180 : XXXXXXXXXXXXXXXX XXXXXXXXXXXXXXXX XXXXXXXXXXXXXXXX XXXXXXXXXXXXXXXX
01C0 : XXXXXXXXXXXXXXXX XXXXXXXXXXXXXXXX XXXXXXXXXXXXXXXX XXXXXXXXXXXXXXXX
0200 : XXXXXXXXXXXXXXXX XXXXXXXXXXXXXXXX XXXXXXXXXXXXXXXX XXXXXXXXXXXXXXXX
0240 : XXXXXXXXXXXXXXXX XXXXXXXXXXXXXXXX XXXXXXXXXXXXXXXX XXXXXXXXXXXXXXXX
0280 : XXXXXXXXXXXXXXXX XXXXXXXXXXXXXXXX XXXXXXXXXXXXXXXX XXXXXXXXXXXXXXXX
02C0 : XXXXXXXXXXXXXXXX XXXXXXXXXXXXXXXX XXXXXXXXXXXXXXXX XXXXXXXXXXXXXXXX
0300 : XXXXXXXXXXXXXXXX XXXXXXXXXXXXXXXX XXXXXXXXXXXXXXXX XXXXXXXXXXXXXXXX
0340 : XXXXXXXXXXXXXXXX XXXXXXXXXXXXXXXX XXXXXXXXXXXXXXXX XXXXXXXXXXXXXXXX
0380 : XXXXXXXXXXXXXXXX XXXXXXXXXXXXXXXX XXXXXXXXXXXXXXXX XXXXXXXXXXXXXXXX
03C0 : XXXXXXXXXXXXXXXX XXXXXXXXXXXXXXXX XXXXXXXXXXXXXXXX XXXXXXXXXXXXXXXX
0400 : XXXXXXXXXXXXXXXX XXXXXXXXXXXXXXXX XXXXXXXXXXXXXXXX XXXXXXXXXXXXXXXX
0440 : XXXXXXXXXXXXXXXX XXXXXXXXXXXXXXXX XXXXXXXXXXXXXXXX XXXXXXXXXXXXXXXX
0480 : XXXXXXXXXXXXXXXX XXXXXXXXXXXXXXXX XXXXXXXXXXX----- ----------------
0800 : XXXXXXXXXXXXXXXX XXXXXXXXXXXXXXXX XXXXXXXXXXXXXXXX XXXXXXXXXXXXXXXX
0840 : XXXXXXXXXXXXXXXX XXXXXXXXXXXXXXXX XXXXXXXXXXXXXXXX XXXXXXXXXXXXXXXX
0880 : XXXXXXXXXXXXXXXX XXXXXXXXXXXXXXXX XXXXXXXXXXXXXXXX XXXXXXXXXXXXXXXX
08C0 : XXXXXXXXXXXXXXXX XXXXXXXXXXXXXXXX XXXXXXXXXXXXXXXX XXXXXXXXXXXXXXXX
0900 : XXXXXXXXXXXXXXXX XXXXXXXXXXXXXXXX XXXXXXXXXXXXXXXX XXXXXXXXXXXXXXXX
0940 : XXXXXXXXXXXXXXXX XXXXXXXXXXXXXXXX XXXXXXXXXXXXXXXX XXXXXXXXXXXXXXXX
0980 : XXXXXXXXXXXXXXXX XXXXXXXXXXXXXXXX XXXXXXXXXXXXXXXX XXXXXXXXXXXXXXXX
09C0 : XXXXXXXXXXXXXXXX XXXXXXXXXXXXXXXX XXXXXXXXXXXXXXXX XXXXXXXXXXXXXXXX
0A00 : XXXXXXXXXXXXXXXX XXXXXXXXXXXXXXXX XXXXXXXXXXXXXXXX XXXXXXXXXXXXXXXX
0A40 : XXXXXXXXXXXXXXXX XXXXXXXXXXXXXXXX XXXXXXXXXXXXXXXX XXXXXXXXXXXXXXXX
0A80 : XXXXXXXXXXXXXXXX XXXXXXXXXXXXXXXX XXXXXXXXXXXXXXXX XXXXXXXXXXXXXXXX
0AC0 : XXXXXXXXXXXXXXXX XXXXXXXXXXXXXXXX XXXXXXXXXXXXXXXX XXXXXXXXXXXXXXXX
0B00 : XXXXXXXXXXXXXXXX XXXXXXXXXXXXXXXX XXXXXXXXXXXXXXXX XXXXXXXXXXXXXXXX
0B40 : XXXXXXXXXXXXXXXX XXXXXXXXXXXXXXXX XXXXXXXXXXXXXXXX XXXXXXXXXXXXXXXX
0B80 : XXXXXXXXXXXXXXXX XXXXXXXXXXXXXXXX XXXXXXXXXXXXXXXX XXXXXXXXXXXXXXXX
0BC0 : XXXXXXXXXXXXXXXX XXXXXXXXXXXXXXXX XXXXXXXXXXXXXXXX XXXXXXXXXXXXXXXX
0C00 : XXXXXXXXXXXXXXXX XXXXXXXXXXXXXXXX XXXXXXXXXXXXXXXX XXXXXXXXXXXXXXXX
0C40 : XXXXXXXXXXXXXXXX XXXXXXXXXXXXXXXX XXXXXXXXXXXXXXXX XXXXXXXXXXXXXXXX
0C80 : XXXXXXXXXXXXXXXX XXXXXXXXXXXXXXXX XXXXXXXXXXXXXXXX XXXXXXXXXXXXXXXX
0CC0 : XXXXXXXXXXXXXXXX XXXXXXXXXXXXXXXX XXXXXXXXXXXXXXXX XXXXXXXXXXXXXXXX
0D00 : XXXXXXXXXXXXXXXX XXXXXXXXXXXXXXXX XXXXXXXXXXXXXXXX XXXXXXXXXXXXXXXX
0D40 : XXXXXXXXXXXXXXXX XXXXXXXXXXXXXXXX XXXXXXXXXXXXXXXX XXXXXXXXXXXXXXXX
0D80 : XXXXXXXXXXXXXXXX XXXXXXXXXXXXXXXX XXXXXXXXXXXXXXXX XXXXXXXXXXXXXXXX
0DC0 : XXXXXXXXXXXXXXXX XXXXXXXXXXXXXXXX XXXXXXXXXXXXXXXX XXXXXXXXXXXXXXXX
0E00 : XXXXXXXXXXXXXXXX XXXXXXXXXXXXXXXX XXXXXXXXXXXXXXXX XXXXXXXXXXXXXXXX
0E40 : XXXXXXXXXXXXXXXX XXXXXXXXXXXXXXXX XXXXXXXXXXXXXXXX XXXXXXXXXXXXXXXX
0E80 : XXXXXXXXXXXXXXXX XXXXXXXXXXXXXXXX XXXXXXXXXXXXXXXX XXXXXXXXXXXXXXXX
0EC0 : XXXXXXXXXXXXXXXX XXXXXXXXXXXXXXXX XXXXXXXXXXXXXXXX XXXXXXXXXXXXXXXX
0F00 : XXXXXXXXXXXXXXXX XXXXXXXXXXXXXXXX XXXXXXXXXXXXXXXX XXXXXXXXXXXXXXXX
0F40 : XXXXXXXXXXXXXXXX XXXXXXXXXXXXXXXX XXXXXXXXXXXXXXXX XXXXXXXXXXXXXXXX
0F80 : XXXXXXXXXXXXXXXX XXXXXXXXXXXXXXXX XXXXXXXXXXXXXXXX XXXXXXXXXXXXXXXX
0FC0 : XXXXXXXXXX------ ---------------- ---------------- ----------------
MPASM  5.30.01                         TDM 4.ASM   11-21-2023  23:07:44         PAGE 149


MEMORY USAGE MAP ('X' = Used,  '-' = Unused)


1000 : XXXXXXXXXXXXXXXX XXXXXXXXXXXXXXXX XXXXXXXXXXXXXXXX XXXXXXXXXXXXXXXX
1040 : XXXXXXXXXXXXXXXX XXXXXXXXXXXXXXXX XXXXXXXXXXXXXXXX XXXXXXXXXXXXXXXX
1080 : XXXXXXXXXXXXXXXX XXXXXXXXXXXXXXXX XXXXXXXXXXXXXXXX XXXXXXXXXXXXXXXX
10C0 : XXXXXXXXXXXXXXXX XXXXXXXXXXXXXXXX XXXXXXXXXXXXXXXX XXXXXXXXXXXXXXXX
1100 : XXXXXXXXXXXXXXXX XXXXXXXXXXXXXXXX XXXXXXXXXXXXXXXX XXXXXXXXXXXXXXXX
1140 : XXXXXXXXXXXXXXXX XXXXXXXXXXXXXXXX XXXXXXXXXXXXXXXX XXXXXXXXXXXXXXXX
1180 : XXXXXXXXXXXXXXXX XXXXXXXXXXXXXXXX XXXXXXXXXXXXXXXX XXXXXXXXXXXXXXXX
11C0 : XXXXXXXXXXXXXXXX XXXXXXXXXXXXXXXX XXXXXXXXXXXXXXXX XXXXXXXXXXXXXXXX
1200 : XXXXXXXXXXXXXXXX XXXXXXXXXXXXXXXX XXXXXXXXXXXXXXXX XXXXXXXXXXXXXXXX
1240 : XXXXXXXXXXXXXXXX XXXXXXXXXXXXXXXX XXXXXXXXXXXXXXXX XXXXXXXXXXXXXXXX
1280 : XXXXXXXXXXXXXXXX XXXXXXXXXXXXXXXX XXXXXXXXXXXXXXXX XXXXXXXXXXXXXXXX
12C0 : XXXXXXXXXXXXXXXX XXXXXXXXXXXXXXXX XXXXXXXXXXXXXXXX XXXXXXXXXXXXXXXX
1300 : XXXXXXXXXXXXXXXX XXXXXXXXXXXXXXXX XXXXXXXXXXXXXXXX XXXXXXXXXXXXXXXX
1340 : XXXXXXXXXXXXXXXX XXXXXXXXXXXXXXXX XXXXXXXXXXXXXXXX XXXXXXXXXXXXXXXX
1380 : XXXXXXXXXXXXXXXX XXXXXXXXXXXXXXXX XXXXXXXXXXXXXXXX XXXXXXXXXXXXXXXX
13C0 : XXXXXXXXXXXXXXXX XXXXXXXXXXXXXXXX XXXXXXXXXXXXXXXX XXXXXXXXXXXXXXXX
1400 : XXXXXXXXXXXXXXXX XXXXXXXXXXXXXXXX XXXXXXXXXXXXXXXX XXXXXXXXXXXXXXXX
1440 : XXXXXXXXXXXXXXXX XXXXXXXXXXXXXXXX XXXXXXXXXXXXXXXX XXXXXXXXXXXXXXXX
1480 : XXXXXXXXXXXXXXXX XXXXXXXXXXXXXXXX XXXXXXXXXXXXXXXX XXXXXXXXXXXXXXXX
14C0 : XXXXXXXXXXXXXXXX XXXXXXXXXXXXXXXX XXXXXXXXXXXXXXXX XXXXXXXXXXXXXXXX
1500 : XXXXXXXXXXXXXXXX XXXXXXXXXXXXXXXX XXXXXXXX-------- ----------------
2000 : -------X-------- ---------------- ---------------- ----------------

All other memory blocks unused.

Program Memory Words Used:  4507
Program Memory Words Free:  3685


Errors   :     0
Warnings :     0 reported,     0 suppressed
Messages :     1 reported,     0 suppressed

