MPASM  5.30.01                     TX SERIAL.ASM   7-1-2024  0:30:44         PAGE  1


LOC  OBJECT CODE     LINE SOURCE TEXT
  VALUE

                      00001 ; CECYT 9 JUAN DE DIOS BATIZ.
                      00002 ;
                      00003 ; PRACTICA 0';.
                      00004 ; MANEJO DE UN LED OSCILANDO A 1 Hz.
                      00005 ;
                      00006 ; EQUIPO: 4     GRUPO: 6IM1.
                      00007 ;
                      00008 ; INTEGRANTES:
                      00009 ; Garcia Romero Ariadna Elizabeth
                      00010 ; GutiÚrrez Miranda Perla Mayte
                      00011 ; Puente Castro Dilan Haziel
                      00012 ; Villa Terßn Usiel
                      00013 ; FECHA DE ENTREGA DEL REPORTE.
                      00014 ;
                      00015 ; ESTE PROGRAMA GENERA UN CONTADOR DE MINUTOS Y SEGUNDOS EN 4 DISPLAYS DE C┴TODO COM┌N MEDIANTE LA
                      00016 ; TRANSMISIËN DE DATOS DE FORMA SERIAL UTILIZANDO EL CIHC595.
                      00017 ;
                      00018 ;--------------------------------------------------------------------------------------------------
                      00019  LIST   P=16F877A;
                      00020  
                      00021  #INCLUDE "C:\Program Files (x86)\Microchip\MPASM Suite\P16F877A.INC"; Cambia la direccion
                      00001         LIST
                      00002 ; P16F877A.INC  Standard Header File, Version 1.00    Microchip Technology, Inc.
                      00400         LIST
                      00022  ;#include "C:\Program Files\Microchip\MPASM Suite\P16F877A.INC";
                      00023 
2007   3F39           00024  __CONFIG _CP_OFF & _WDT_OFF & _BODEN_OFF & _PWRTE_OFF & _XT_OSC & _WRT_OFF & _LVP_OFF & _CPD_OFF;
                      00025 ;--------------------------------------------------------------------------------------------------
                      00026 ;
                      00027 ; Fosc = 4 MHz.
                      00028 ; Ciclo de trabajo del PIC = (1/fosc)*4 = 1 ´┐Żs.
                      00029 ; T int =(256-tmr0)*(P)*((1/4000000)*4) = 1 ms. // Tiempo de interrupci´┐Żn.
                      00030 ; tmr0=131, P=8.
                      00031 ; frec int = 1/ t int = 1 KHz.
                      00032 ;----------------------------------------------------------------------------------------------------
                      00033 ;
                      00034 ;Def. de variables del programa en RAM.
                      00035 
  00000020            00036 RESP_W          EQU 0X20;
  00000021            00037 RESP_STATUS EQU 0X21;
  00000022            00038 RES_PCLATH      EQU 0X22;
  00000023            00039 RES_FSR         EQU 0X23;
  00000024            00040 PRESC_1         EQU 0X24; .001 100 5
  00000025            00041 PRESC_2         EQU 0X25; t int = t intb * presc_1 * presc_2
  00000029            00042 BANDERAS        EQU 0X29;
  0000002A            00043 SEG_UNID        EQU 0X2A;
  0000002B            00044 SEG_DECE        EQU 0X2B;
  0000002C            00045 MIN_UNID        EQU 0X2C;
  0000002D            00046 MIN_DECE        EQU 0X2D;
  0000002E            00047 REG_TX          EQU 0X2E; Este registro serß usado para mover el caracter el cual se quiere transmitir d
                            e
                      00048                                         ; manera serial.
  0000002F            00049 VAR_ROTA        EQU 0X2F; Esta variable serß usada para limitar el n˙mero de bits hasta el cual se reali
MPASM  5.30.01                     TX SERIAL.ASM   7-1-2024  0:30:44         PAGE  2


LOC  OBJECT CODE     LINE SOURCE TEXT
  VALUE

                            zarß
                      00050                                         ; la lectura y transmisiˇn del "reg_tx" (Registro de transmisiˇn
                            ).
                      00051 
                      00052 ;---------------------------------------------------------------------------------------------------
                      00053 ; Def. de constantes a utilizar.
  00000085            00054 TMB     EQU     .133;
                      00055                                                 ; Nota: Los siguientes caractÚres deberÝan estar codific
                            ados en hexadecimal,
                      00056                                                 ; asÝ los piden en el exßmen.
  0000003F            00057 NUM_0   EQU     B'00111111';
  00000006            00058 NUM_1   EQU     B'00000110';
  0000005B            00059 NUM_2   EQU     B'01011011';
  0000004F            00060 NUM_3   EQU     B'01001111';
  00000066            00061 NUM_4   EQU     B'01100110';
  0000006D            00062 NUM_5   EQU     B'01101101';
  0000007D            00063 NUM_6   EQU     B'01111101';
  00000007            00064 NUM_7   EQU     B'00000111';
  0000007F            00065 NUM_8   EQU     B'01111111';
  0000006F            00066 NUM_9   EQU     B'01101111';
                      00067 ;---------------------------------------------------------------------------------------------------
  00000000            00068 BAND_INT        EQU .0;
                      00069 ; Def. de Ptos. I/0.
                      00070 
                      00071 ; Puerto A.
  00000000            00072 SIN_USO_RA0 EQU .0;
  00000001            00073 SIN_USO_RA1     EQU .1;
  00000002            00074 SIN_USO_RA2 EQU .2;
  00000003            00075 SIN_USO_RA3 EQU .3;
  00000004            00076 SIN_USO_RA4 EQU .4;
  00000005            00077 SIN_USO_RA5 EQU .5;
                      00078 
  0000003F            00079 PROGA EQU B'111111';Def. la config. de los bits del pto. A.
                      00080 
                      00081 ;Puerto B.
  00000000            00082 SIN_USO_RB0 EQU .0;
  00000001            00083 SIN_USO_RB1 EQU .1;
  00000002            00084 SIN_USO_RB2 EQU .2;
  00000003            00085 SIN_USO_RB3 EQU .3;
  00000004            00086 SIN_USO_RB4 EQU .4;
  00000005            00087 SIN_USO_RB5 EQU .5;
  00000006            00088 SIN_USO_RB6 EQU .6;
  00000007            00089 SIN_USO_RB7 EQU .7;
                      00090 
  000000FF            00091 PROGB EQU B'11111111'; // Programacion inicial del puerto B.
                      00092 
                      00093 ;Puerto C.
  00000000            00094 SIN_USO_RC0 EQU .0;
  00000001            00095 SIN_USO_RC1 EQU .1;
  00000002            00096 SIN_USO_RC2 EQU .2;
  00000003            00097 SIN_USO_RC3 EQU .3;
  00000004            00098 SIN_USO_RC4 EQU .4;
  00000005            00099 SIN_USO_RC5 EQU .5;
MPASM  5.30.01                     TX SERIAL.ASM   7-1-2024  0:30:44         PAGE  3


LOC  OBJECT CODE     LINE SOURCE TEXT
  VALUE

  00000006            00100 SIN_USO_RC6 EQU .6;
  00000007            00101 SIN_USO_RC7 EQU .7;
                      00102 
  000000FF            00103 PROGC EQU B'11111111'; // Programacion inicial del puerto C.
                      00104 
                      00105 ;Puerto D.
  00000000            00106 DATA_TX         EQU .0;
  00000001            00107 SH_CP#          EQU .1;
  00000002            00108 ST_CP#          EQU .2;
  00000003            00109 OE#             EQU .3;
  00000004            00110 SIN_USO_RD4 EQU .4;
  00000005            00111 SIN_USO_RD5 EQU .5;
  00000006            00112 SIN_USO_RD6 EQU .6;
  00000007            00113 SIN_USO_RD7 EQU .7;
                      00114 
  000000F0            00115 PROGD EQU B'11110000'; // Programacion inicial del puerto D donde los bits RD0-RD3 serßn empleados
                      00116                                         ;         como salidas.
                      00117 ; Puerto E.
  00000000            00118 SIN_USO_RE0 EQU .0;
  00000001            00119 SIN_USO_RE1 EQU .1;
  00000002            00120 SIN_USO_RE2     EQU .2;
                      00121 
  00000007            00122 PROGE EQU B'111';
                      00123 ;-------------------------------------------------------------------------------------------------
                      00124                         ;=================
                      00125                         ;== Vector Reset ==
                      00126                         ;=================
0000                  00127                         ORG 0X0000;
0000   018A           00128 VEC_RESET       CLRF PCLATH;
0001   2854           00129                         GOTO PROG_PRIN;
                      00130 ;-------------------------------------------------------------------------------------------------
                      00131 
                      00132                         ;=============================
                      00133                         ;== Subrutina de Interrupciones ==
                      00134                         ;=============================
0004                  00135                         ORG 0X0004;
0004   00A0           00136 VEC_INT         MOVWF RESP_W;resp. esl estado del reg. w.
0005   0803           00137                         MOVF STATUS,W;
0006   00A1           00138                         MOVWF RESP_STATUS;resp. banderas de la alu.
0007   0183           00139                         CLRF STATUS;
0008   080A           00140                         MOVF PCLATH,W;
0009   00A2           00141                         MOVWF RES_PCLATH;
000A   018A           00142                         CLRF PCLATH;
000B   0804           00143                         MOVF FSR,W;
000C   00A3           00144                         MOVWF RES_FSR;
                      00145 
000D   190B           00146                         BTFSC INTCON,T0IF;
000E   2036           00147                         CALL RUTINA_INT;
                      00148 
000F   0823           00149 SAL_INT         MOVF RES_FSR,W;
0010   0084           00150                         MOVWF FSR;
0011   0822           00151                         MOVF RES_PCLATH,W;
0012   008A           00152                         MOVWF PCLATH;
MPASM  5.30.01                     TX SERIAL.ASM   7-1-2024  0:30:44         PAGE  4


LOC  OBJECT CODE     LINE SOURCE TEXT
  VALUE

0013   0821           00153                         MOVF RESP_STATUS,W;
0014   0083           00154                         MOVWF STATUS;
0015   0820           00155                         MOVF RESP_W,W;
0016   3085           00156                         MOVLW TMB;
0017   0081           00157                         MOVWF TMR0;
                      00158                         
0018   0009           00159                         RETFIE;
                      00160 ;--------------------------------------------------------------------------------------------------
                      00161                         ;================================
                      00162                         ;== Subrutina de Ini. de Reg. del Pic ==
                      00163                         ;================================
                      00164 
0019   1683           00165 PROG_INI        BSF STATUS,RP0; Ponte en el banco 1 de ram.
001A   3082           00166                         MOVLW 0X82;
001B   0081           00167                         MOVWF OPTION_REG ^0X80;
001C   303F           00168                         MOVLW PROGA;
001D   0085           00169                         MOVWF TRISA ^0X80;
001E   30FF           00170                         MOVLW PROGB;
001F   0086           00171                         MOVWF TRISB ^0X80;
0020   30FF           00172                         MOVLW PROGC;
0021   0087           00173                         MOVWF TRISC ^0X80;
0022   30F0           00174                         MOVLW PROGD;
0023   0088           00175                         MOVWF TRISD ^0X80;
0024   3007           00176                         MOVLW PROGE;
0025   0089           00177                         MOVWF TRISE ^0X80;
0026   3006           00178                         MOVLW 0X06;
0027   009F           00179                         MOVWF ADCON1 ^0X80;
                      00180                         
0028   1283           00181                         BCF STATUS,RP0; Ponte en el banco 0 de ram.
0029   1303           00182                         BCF STATUS,RP1; Ponte en el banco 0 de ram.     
                      00183                         
002A   30A0           00184                         MOVLW 0XA0;
002B   008B           00185                         MOVWF INTCON;
002C   3085           00186                         MOVLW TMB;
002D   0081           00187                         MOVWF TMR0;
                      00188                         
002E   0187           00189                         CLRF PORTC;
002F   0188           00190                         CLRF PORTD;
0030   0189           00191                         CLRF PORTE;
0031   0186           00192                         CLRF PORTB;
                      00193                         ;                                       Estado inicial de las se˝ales de control
                             del hardware, recordar que
0032   1488           00194                         BSF PORTD,SH_CP#;       son de activo bajo.
0033   1508           00195                         BSF PORTD,ST_CP#;
0034   1188           00196                         BCF PORTD,OE#;
                      00197                         
0035   0008           00198                         RETURN;
                      00199 ;--------------------------------------------------------------------------------------------------
                      00200                         ;=================================
                      00201                         ;== Subrutina de Interrupciones ==
                      00202                         ;=================================
                      00203                         
0036   0AA4           00204 RUTINA_INT      INCF PRESC_1,F;
MPASM  5.30.01                     TX SERIAL.ASM   7-1-2024  0:30:44         PAGE  5


LOC  OBJECT CODE     LINE SOURCE TEXT
  VALUE

                      00205 
0037   3064           00206                         MOVLW .100;
0038   0624           00207                         XORWF PRESC_1,W;
0039   1D03           00208                         BTFSS STATUS,Z;
003A   2845           00209                         GOTO SAL_RUTINT;
003B   283C           00210                         GOTO SIG_INT;
                      00211 
003C   01A4           00212 SIG_INT         CLRF PRESC_1;
003D   0AA5           00213                         INCF PRESC_2,F;
003E   300A           00214                         MOVLW .10;
003F   0625           00215                         XORWF PRESC_2,W;
0040   1D03           00216                         BTFSS STATUS,Z;
0041   2845           00217                         GOTO SAL_RUTINT;
0042   01A4           00218                         CLRF PRESC_1;
0043   01A5           00219                         CLRF PRESC_2;
                      00220 
0044   1429           00221                         BSF BANDERAS,BAND_INT;
                      00222 
0045   110B           00223 SAL_RUTINT      BCF INTCON,T0IF;
                      00224                         
0046   0008           00225                         RETURN;
                      00226 ;--------------------------------------------------------------------------------------------------
0047   0782           00227 CONV_7SEG       ADDWF PCL,F;    Se a˝ade al pcl el contenido de w, para que salte las siguientes columna
                            s
                      00228                                            ;    hasta donde se seleccione.
0048   343F           00229                         RETLW NUM_0;    Regresa de la subrutina actual cargando a w con el elemento 1 de
                             la lista.
0049   3406           00230                         RETLW NUM_1;    .
004A   345B           00231                         RETLW NUM_2;    .
004B   344F           00232                         RETLW NUM_3;    .       
004C   3466           00233                         RETLW NUM_4;    .
004D   346D           00234                         RETLW NUM_5;    .       
004E   347D           00235                         RETLW NUM_6;    .
004F   3407           00236                         RETLW NUM_7;    .
0050   347F           00237                         RETLW NUM_8;    .
0051   346F           00238                         RETLW NUM_9;    Regresa de la subrutina actual cargando a w con el elemento 10 d
                            e la lista.
0052   0000           00239                         NOP;
                      00240                         
0053   0008           00241                         RETURN;
                      00242 ;-------------------------------------------------------------------------------------------------
                      00243                         ;=====================
                      00244                         ;== Programa principal ==
                      00245                         ;=====================
                      00246 
0054   2019           00247 PROG_PRIN       CALL PROG_INI;
0100                  00248                         ORG 0X0100;                             Direcciˇn empleada para no entrar en con
                            flicto con la operaciˇn
                      00249                                                                 ;       del pcl en el empleo de las list
                            as.
0100   210A           00250 LOOP_PRIN       CALL CONTADOR;
0101   2129           00251                         CALL PRINT_7SEG;
0102   2104           00252                         CALL ESP_1S;
MPASM  5.30.01                     TX SERIAL.ASM   7-1-2024  0:30:44         PAGE  6


LOC  OBJECT CODE     LINE SOURCE TEXT
  VALUE

0103   2900           00253                         GOTO LOOP_PRIN;
                      00254 ;-------------------------------------------------------------------------------------------------
0104   1029           00255 ESP_1S          BCF BANDERAS,BAND_INT;  Limpia la bandera que espera a la interrupciˇn de 1s.
0105   0000           00256 LOOP_INT        NOP;
0106   1C29           00257                         BTFSS BANDERAS,BAND_INT;Testea que la bandera de interrupciˇn se halla encendido
                            , si no,
0107   2905           00258                         GOTO LOOP_INT;                  salta al "loop_int"; sÝ si, limpia la bandera y 
                            regresa al punto
0108   1029           00259                         BCF BANDERAS,BAND_INT;  donde fuÚ llamada la subrutina.
0109   0008           00260                         RETURN;
                      00261 ;-------------------------------------------------------------------------------------------------
010A   0AAA           00262 CONTADOR        INCF SEG_UNID,F;
010B   300A           00263                         MOVLW .10;
010C   062A           00264                         XORWF SEG_UNID,W;
010D   1D03           00265                         BTFSS STATUS,Z;
010E   0008           00266                         RETURN;
010F   01AA           00267                         CLRF SEG_UNID;
                      00268                         
0110   0AAB           00269                         INCF SEG_DECE,F;
0111   3006           00270                         MOVLW .6;
0112   062B           00271                         XORWF SEG_DECE,W;
0113   1D03           00272                         BTFSS STATUS,Z;
0114   0008           00273                         RETURN;
0115   01AA           00274                         CLRF SEG_UNID;
0116   01AB           00275                         CLRF SEG_DECE;
                      00276                         
0117   0AAC           00277                         INCF MIN_UNID,F;
0118   300A           00278                         MOVLW .10;
0119   062C           00279                         XORWF MIN_UNID,W;
011A   1D03           00280                         BTFSS STATUS,Z;
011B   0008           00281                         RETURN;
011C   01AA           00282                         CLRF SEG_UNID;
011D   01AB           00283                         CLRF SEG_DECE;
011E   01AC           00284                         CLRF MIN_UNID;
                      00285                         
011F   0AAD           00286                         INCF MIN_DECE,F;
0120   3006           00287                         MOVLW .6;
0121   062D           00288                         XORWF MIN_DECE,W;
0122   1D03           00289                         BTFSS STATUS,Z;
0123   0008           00290                         RETURN;
0124   01AA           00291                         CLRF SEG_UNID;
0125   01AB           00292                         CLRF SEG_DECE;
0126   01AC           00293                         CLRF MIN_UNID;
0127   01AD           00294                         CLRF MIN_DECE;
0128   0008           00295                         RETURN;
                      00296 ;-------------------------------------------------------------------------------------------------
0129   082A           00297 PRINT_7SEG      MOVF SEG_UNID,W;        Se mueve el contenido del registro seg_unid a w.
012A   2047           00298                         CALL CONV_7SEG;         Se llama a la subrutina Conv_7seg.
012B   00AE           00299                         MOVWF REG_TX;           Mueve el resultado de la anterior subrutina, contenido e
                            n w, al
                      00300                                                 ;               registro de transmisiˇn (reg_tx).
012C   213B           00301                         CALL TRANSMISION;       
                      00302                         
MPASM  5.30.01                     TX SERIAL.ASM   7-1-2024  0:30:44         PAGE  7


LOC  OBJECT CODE     LINE SOURCE TEXT
  VALUE

012D   082B           00303                         MOVF SEG_DECE,W;
012E   2047           00304                         CALL CONV_7SEG;
012F   00AE           00305                         MOVWF REG_TX;
0130   213B           00306                         CALL TRANSMISION;
                      00307                         
0131   082C           00308                         MOVF MIN_UNID,W;
0132   2047           00309                         CALL CONV_7SEG;
0133   00AE           00310                         MOVWF REG_TX;
0134   213B           00311                         CALL TRANSMISION;
                      00312                         
0135   082D           00313                         MOVF MIN_DECE,W;
0136   2047           00314                         CALL CONV_7SEG;
0137   00AE           00315                         MOVWF REG_TX;
0138   213B           00316                         CALL TRANSMISION;
0139   0000           00317                         NOP;
013A   0008           00318                         RETURN;
                      00319 ;-------------------------------------------------------------------------------------------------
013B   01AF           00320 TRANSMISION CLRF VAR_ROTA;              Inicializa en 0 la variable de rotciˇn o lectura.
                      00321                         
013C   3008           00322 LOOP_TX         MOVLW .8;                       Testea si la variable de rotaciˇn ha incrementado hasta 
                            8, si es asÝ,
013D   062F           00323                         XORWF VAR_ROTA,W;       va a la etiqueta end_tx, si no, hace un salto de linea.
013E   1903           00324                         BTFSC STATUS,Z;
013F   2950           00325                         GOTO END_TX;
                      00326                         
0140   0DAE           00327                         RLF REG_TX,F;           Hace una rotaciˇn hacia la izquierda en el reg_tx.
0141   1C03           00328                         BTFSS STATUS,C;         Testea el bit que halla saltado al carry para determinar
                             si envÝa un 0 o 1
0142   2944           00329                         GOTO SEND_0;            a la transmisiˇn.
0143   2946           00330                         GOTO SEND_1;
                      00331                         
0144   1008           00332 SEND_0          BCF PORTD,DATA_TX;
0145   2948           00333                         GOTO CARGA;
                      00334 
0146   1408           00335 SEND_1          BSF PORTD,DATA_TX;
0147   2948           00336                         GOTO CARGA;
                      00337                                                 
0148   1088           00338 CARGA           BCF PORTD,SH_CP#;
0149   0000           00339                         NOP;
014A   1488           00340                         BSF PORTD,SH_CP#;
                      00341                         
014B   1108           00342                         BCF PORTD,ST_CP#;
014C   0000           00343                         NOP;
014D   1508           00344                         BSF PORTD,ST_CP#;
                      00345 
014E   0AAF           00346                         INCF VAR_ROTA,F;
014F   293C           00347                         GOTO LOOP_TX;
0150   01AF           00348 END_TX          CLRF VAR_ROTA;
0151   0008           00349                         RETURN;
                      00350 ;-------------------------------------------------------------------------------------------------
                      00351                         END
MPASM  5.30.01                     TX SERIAL.ASM   7-1-2024  0:30:44         PAGE  8


SYMBOL TABLE
  LABEL                             VALUE 

ACKDT                             00000005
ACKEN                             00000004
ACKSTAT                           00000006
ADCON0                            0000001F
ADCON1                            0000009F
ADCS0                             00000006
ADCS1                             00000007
ADCS2                             00000006
ADDEN                             00000003
ADFM                              00000007
ADIE                              00000006
ADIF                              00000006
ADON                              00000000
ADRESH                            0000001E
ADRESL                            0000009E
BANDERAS                          00000029
BAND_INT                          00000000
BCLIE                             00000003
BCLIF                             00000003
BF                                00000000
BRGH                              00000002
C                                 00000000
C1INV                             00000004
C1OUT                             00000006
C2INV                             00000005
C2OUT                             00000007
CARGA                             00000148
CCP1CON                           00000017
CCP1IE                            00000002
CCP1IF                            00000002
CCP1M0                            00000000
CCP1M1                            00000001
CCP1M2                            00000002
CCP1M3                            00000003
CCP1X                             00000005
CCP1Y                             00000004
CCP2CON                           0000001D
CCP2IE                            00000000
CCP2IF                            00000000
CCP2M0                            00000000
CCP2M1                            00000001
CCP2M2                            00000002
CCP2M3                            00000003
CCP2X                             00000005
CCP2Y                             00000004
CCPR1H                            00000016
CCPR1L                            00000015
CCPR2H                            0000001C
CCPR2L                            0000001B
CHS0                              00000003
CHS1                              00000004
CHS2                              00000005
CIS                               00000003
MPASM  5.30.01                     TX SERIAL.ASM   7-1-2024  0:30:44         PAGE  9


SYMBOL TABLE
  LABEL                             VALUE 

CKE                               00000006
CKP                               00000004
CM0                               00000000
CM1                               00000001
CM2                               00000002
CMCON                             0000009C
CMIE                              00000006
CMIF                              00000006
CONTADOR                          0000010A
CONV_7SEG                         00000047
CREN                              00000004
CSRC                              00000007
CVR0                              00000000
CVR1                              00000001
CVR2                              00000002
CVR3                              00000003
CVRCON                            0000009D
CVREN                             00000007
CVROE                             00000006
CVRR                              00000005
D                                 00000005
DATA_ADDRESS                      00000005
DATA_TX                           00000000
DC                                00000001
D_A                               00000005
EEADR                             0000010D
EEADRH                            0000010F
EECON1                            0000018C
EECON2                            0000018D
EEDATA                            0000010C
EEDATH                            0000010E
EEIE                              00000004
EEIF                              00000004
EEPGD                             00000007
END_TX                            00000150
ESP_1S                            00000104
F                                 00000001
FERR                              00000002
FSR                               00000004
GCEN                              00000007
GIE                               00000007
GO                                00000002
GO_DONE                           00000002
I2C_DATA                          00000005
I2C_READ                          00000002
I2C_START                         00000003
I2C_STOP                          00000004
IBF                               00000007
IBOV                              00000005
INDF                              00000000
INTCON                            0000000B
INTE                              00000004
INTEDG                            00000006
MPASM  5.30.01                     TX SERIAL.ASM   7-1-2024  0:30:44         PAGE 10


SYMBOL TABLE
  LABEL                             VALUE 

INTF                              00000001
IRP                               00000007
LOOP_INT                          00000105
LOOP_PRIN                         00000100
LOOP_TX                           0000013C
MIN_DECE                          0000002D
MIN_UNID                          0000002C
NOT_A                             00000005
NOT_ADDRESS                       00000005
NOT_BO                            00000000
NOT_BOR                           00000000
NOT_DONE                          00000002
NOT_PD                            00000003
NOT_POR                           00000001
NOT_RBPU                          00000007
NOT_RC8                           00000006
NOT_T1SYNC                        00000002
NOT_TO                            00000004
NOT_TX8                           00000006
NOT_W                             00000002
NOT_WRITE                         00000002
NUM_0                             0000003F
NUM_1                             00000006
NUM_2                             0000005B
NUM_3                             0000004F
NUM_4                             00000066
NUM_5                             0000006D
NUM_6                             0000007D
NUM_7                             00000007
NUM_8                             0000007F
NUM_9                             0000006F
OBF                               00000006
OE#                               00000003
OERR                              00000001
OPTION_REG                        00000081
P                                 00000004
PCFG0                             00000000
PCFG1                             00000001
PCFG2                             00000002
PCFG3                             00000003
PCL                               00000002
PCLATH                            0000000A
PCON                              0000008E
PEIE                              00000006
PEN                               00000002
PIE1                              0000008C
PIE2                              0000008D
PIR1                              0000000C
PIR2                              0000000D
PORTA                             00000005
PORTB                             00000006
PORTC                             00000007
PORTD                             00000008
MPASM  5.30.01                     TX SERIAL.ASM   7-1-2024  0:30:44         PAGE 11


SYMBOL TABLE
  LABEL                             VALUE 

PORTE                             00000009
PR2                               00000092
PRESC_1                           00000024
PRESC_2                           00000025
PRINT_7SEG                        00000129
PROGA                             0000003F
PROGB                             000000FF
PROGC                             000000FF
PROGD                             000000F0
PROGE                             00000007
PROG_INI                          00000019
PROG_PRIN                         00000054
PS0                               00000000
PS1                               00000001
PS2                               00000002
PSA                               00000003
PSPIE                             00000007
PSPIF                             00000007
PSPMODE                           00000004
R                                 00000002
RBIE                              00000003
RBIF                              00000000
RC8_9                             00000006
RC9                               00000006
RCD8                              00000000
RCEN                              00000003
RCIE                              00000005
RCIF                              00000005
RCREG                             0000001A
RCSTA                             00000018
RD                                00000000
READ_WRITE                        00000002
REG_TX                            0000002E
RESP_STATUS                       00000021
RESP_W                            00000020
RES_FSR                           00000023
RES_PCLATH                        00000022
RP0                               00000005
RP1                               00000006
RSEN                              00000001
RUTINA_INT                        00000036
RX9                               00000006
RX9D                              00000000
R_W                               00000002
S                                 00000003
SAL_INT                           0000000F
SAL_RUTINT                        00000045
SEG_DECE                          0000002B
SEG_UNID                          0000002A
SEN                               00000000
SEND_0                            00000144
SEND_1                            00000146
SH_CP#                            00000001
MPASM  5.30.01                     TX SERIAL.ASM   7-1-2024  0:30:44         PAGE 12


SYMBOL TABLE
  LABEL                             VALUE 

SIG_INT                           0000003C
SIN_USO_RA0                       00000000
SIN_USO_RA1                       00000001
SIN_USO_RA2                       00000002
SIN_USO_RA3                       00000003
SIN_USO_RA4                       00000004
SIN_USO_RA5                       00000005
SIN_USO_RB0                       00000000
SIN_USO_RB1                       00000001
SIN_USO_RB2                       00000002
SIN_USO_RB3                       00000003
SIN_USO_RB4                       00000004
SIN_USO_RB5                       00000005
SIN_USO_RB6                       00000006
SIN_USO_RB7                       00000007
SIN_USO_RC0                       00000000
SIN_USO_RC1                       00000001
SIN_USO_RC2                       00000002
SIN_USO_RC3                       00000003
SIN_USO_RC4                       00000004
SIN_USO_RC5                       00000005
SIN_USO_RC6                       00000006
SIN_USO_RC7                       00000007
SIN_USO_RD4                       00000004
SIN_USO_RD5                       00000005
SIN_USO_RD6                       00000006
SIN_USO_RD7                       00000007
SIN_USO_RE0                       00000000
SIN_USO_RE1                       00000001
SIN_USO_RE2                       00000002
SMP                               00000007
SPBRG                             00000099
SPEN                              00000007
SREN                              00000005
SSPADD                            00000093
SSPBUF                            00000013
SSPCON                            00000014
SSPCON2                           00000091
SSPEN                             00000005
SSPIE                             00000003
SSPIF                             00000003
SSPM0                             00000000
SSPM1                             00000001
SSPM2                             00000002
SSPM3                             00000003
SSPOV                             00000006
SSPSTAT                           00000094
STATUS                            00000003
ST_CP#                            00000002
SYNC                              00000004
T0CS                              00000005
T0IE                              00000005
T0IF                              00000002
MPASM  5.30.01                     TX SERIAL.ASM   7-1-2024  0:30:44         PAGE 13


SYMBOL TABLE
  LABEL                             VALUE 

T0SE                              00000004
T1CKPS0                           00000004
T1CKPS1                           00000005
T1CON                             00000010
T1INSYNC                          00000002
T1OSCEN                           00000003
T1SYNC                            00000002
T2CKPS0                           00000000
T2CKPS1                           00000001
T2CON                             00000012
TMB                               00000085
TMR0                              00000001
TMR0IE                            00000005
TMR0IF                            00000002
TMR1CS                            00000001
TMR1H                             0000000F
TMR1IE                            00000000
TMR1IF                            00000000
TMR1L                             0000000E
TMR1ON                            00000000
TMR2                              00000011
TMR2IE                            00000001
TMR2IF                            00000001
TMR2ON                            00000002
TOUTPS0                           00000003
TOUTPS1                           00000004
TOUTPS2                           00000005
TOUTPS3                           00000006
TRANSMISION                       0000013B
TRISA                             00000085
TRISB                             00000086
TRISC                             00000087
TRISD                             00000088
TRISE                             00000089
TRISE0                            00000000
TRISE1                            00000001
TRISE2                            00000002
TRMT                              00000001
TX8_9                             00000006
TX9                               00000006
TX9D                              00000000
TXD8                              00000000
TXEN                              00000005
TXIE                              00000004
TXIF                              00000004
TXREG                             00000019
TXSTA                             00000098
UA                                00000001
VAR_ROTA                          0000002F
VEC_INT                           00000004
VEC_RESET                         00000000
W                                 00000000
WCOL                              00000007
MPASM  5.30.01                     TX SERIAL.ASM   7-1-2024  0:30:44         PAGE 14


SYMBOL TABLE
  LABEL                             VALUE 

WR                                00000001
WREN                              00000002
WRERR                             00000003
Z                                 00000002
_BODEN_OFF                        00003FBF
_BODEN_ON                         00003FFF
_CPD_OFF                          00003FFF
_CPD_ON                           00003EFF
_CP_ALL                           00001FFF
_CP_OFF                           00003FFF
_DEBUG_OFF                        00003FFF
_DEBUG_ON                         000037FF
_HS_OSC                           00003FFE
_LP_OSC                           00003FFC
_LVP_OFF                          00003F7F
_LVP_ON                           00003FFF
_PWRTE_OFF                        00003FFF
_PWRTE_ON                         00003FF7
_RC_OSC                           00003FFF
_WDT_OFF                          00003FFB
_WDT_ON                           00003FFF
_WRT_1FOURTH                      00003BFF
_WRT_256                          00003DFF
_WRT_HALF                         000039FF
_WRT_OFF                          00003FFF
_XT_OSC                           00003FFD
__16F877A                         00000001
__DEBUG                           1


MEMORY USAGE MAP ('X' = Used,  '-' = Unused)

0000 : XX--XXXXXXXXXXXX XXXXXXXXXXXXXXXX XXXXXXXXXXXXXXXX XXXXXXXXXXXXXXXX
0040 : XXXXXXXXXXXXXXXX XXXXX----------- ---------------- ----------------
0100 : XXXXXXXXXXXXXXXX XXXXXXXXXXXXXXXX XXXXXXXXXXXXXXXX XXXXXXXXXXXXXXXX
0140 : XXXXXXXXXXXXXXXX XX-------------- ---------------- ----------------
2000 : -------X-------- ---------------- ---------------- ----------------

All other memory blocks unused.

Program Memory Words Used:   165
Program Memory Words Free:  8027


Errors   :     0
Warnings :     0 reported,     0 suppressed
Messages :     0 reported,     0 suppressed

