MPASM  5.30.01                     DISPLAYS2.ASM   10-27-2023  14:28:06         PAGE  1


LOC  OBJECT CODE     LINE SOURCE TEXT
  VALUE

                      00001                         ;INSTITUTO POLITECNICO NACIONAL.
                      00002                         ;CECYT 9 JUAN DE DIOS BATIZ.
                      00003 ;
                      00004         ;PRACTICA: 3
                      00005         ;Control de displays por micro controlador.
                      00006 ;
                      00007         ;GRUPO: 5IM1.                           EQUIPO: 2
                      00008 ;
                      00009                                 ;INTEGRANTES:
                      00010                 ;1.- MARTINEZ OSORIO MIGUEL ANGEL
                      00011                 ;2.- LOPEZ LOPEZ DAVID ISAI
                      00012                 ;3.- PUENTE CASTRO DILAN HAZIEL
                      00013                 ;4.- RAMIREZ VALENCIA ENRIQUE
                      00014 ;
                      00015 ; COMENTARIO DE LO QUE EL PROGRAMA EJECUTARA: ESTE PROGRAMA PRESENTARÁ LA PORTADA DE LA PRÁCTICA
                      00016 ; MEDIANTE EL USO DE DISPLAYS DE 7 SEGMENTOS Y LA PROGRAMACIÓN DEL PIC16F877A
                      00017 ;---------------------------------------------------------------------------------------------
                      00018 
                      00019  LIST P=16F877A;
                      00020  #INCLUDE "C:\Archivos de Programa\Microchip\MPASM Suite\P16F877A.INC"
                      00001         LIST
                      00002 ; P16F877A.INC  Standard Header File, Version 1.00    Microchip Technology, Inc.
                      00400         LIST
                      00021  
                      00022 
                      00023 ;Bits de configuración.
2007   3F31           00024  __CONFIG _XT_OSC & _WDT_OFF & _PWRTE_ON & _BODEN_OFF & _LVP_OFF & _CP_OFF;ALL
                      00025 ;---------------------------------------------------------------------------------------------
                      00026 ;
                      00027 ; fosc = 4 MHz.
                      00028 ; Ciclo de trabajo del PIC = (1/fosc)*4 = 1 µs.
                      00029 ;---------------------------------------------------------------------------------------------
                      00030 ;
                      00031                         ; Registros de propósito general Banco 0 de memoria RAM.
                      00032 ;
                      00033                         ; Registros propios de estructura del programa.
                      00034 ; Variables.
  00000020            00035 CONTADOR1 EQU 0X20; //
  00000021            00036 CONTADOR2 EQU 0X21; //
  00000022            00037 CONTADOR3 EQU 0X22; //
                      00038 ;---------------------------------------------------------------------------------------------
                      00039 ;
                      00040 ;Constantes de tiempo.
  00000008            00041 M EQU .8;
  000000FF            00042 N EQU .255;
  000000FF            00043 L EQU .255;
                      00044 ;---------------------------------------------------------------------------------------------
                      00045 ;
                      00046 ;Constantes Alpha-numéricas
                      00047 ;
  00000000            00048 NULL    EQU B'00000000';
  00000077            00049 A       EQU     B'01110111';
  0000007C            00050 BB      EQU     B'01111100';
MPASM  5.30.01                     DISPLAYS2.ASM   10-27-2023  14:28:06         PAGE  2


LOC  OBJECT CODE     LINE SOURCE TEXT
  VALUE

  00000039            00051 C_1     EQU     B'00111001';
  00000058            00052 C_0     EQU     B'01011000';
  0000005E            00053 DD      EQU     B'01011110';
  00000079            00054 E       EQU     B'01111001';
  00000071            00055 FF      EQU     B'01110001';
  00000076            00056 H       EQU     B'01110110';
  00000074            00057 HH      EQU     B'01110100';
  00000010            00058 I       EQU     B'00010000';
  0000001E            00059 J       EQU     B'00011110';
  00000038            00060 LL      EQU     B'00111000';
  00000037            00061 NNN     EQU     B'00110111';
  00000054            00062 NN      EQU     B'01010100';
  00000055            00063 ń       EQU     B'01010101';
  0000005C            00064 O       EQU     B'01011100';
  00000073            00065 PP      EQU     B'01110011';
  00000050            00066 RR      EQU     B'01010000';
  00000078            00067 T       EQU     B'01111000';
  0000003E            00068 U       EQU     B'00111110';
  0000001C            00069 UU      EQU     B'00011100';
  0000006E            00070 Y       EQU     B'01101110';
  0000003F            00071 CERO_0          EQU     B'00111111';
  00000006            00072 UNO_1           EQU     B'00000110';
  0000005B            00073 DOS_2           EQU     B'01011011';
  0000004F            00074 TRES_3          EQU     B'01001111';
  00000066            00075 CUATRO_4        EQU     B'01100110';
  0000006D            00076 CINCO_5         EQU     B'01101101';
  0000007D            00077 SEIS_6          EQU     B'01111101';
  00000007            00078 SIETE_7         EQU     B'00000111';
  0000007F            00079 OCHO_8          EQU     B'01111111';
  0000006F            00080 NUEVE_9         EQU     B'01101111';
                      00081 ;---------------------------------------------------------------------------------------------
                      00082 ;
                      00083                         ;Asignación de los bits de los puertos de I/O.
                      00084 
                      00085 ;Puerto A.      porta
  00000000            00086 SIN_USORA0 EQU .0; // Sin Uso RA0.
  00000001            00087 SIN_USORA1 EQU .1; // Sin Uso RA1.
  00000002            00088 SIN_USORA2 EQU .2; // Sin Uso RA2.
  00000003            00089 SIN_USORA3 EQU .3; // Sin Uso RA3.
  00000004            00090 SIN_USORA4 EQU .4; // Sin Uso RA4.
  00000005            00091 SIN_USORA5 EQU .5; // Sin Uso RA5..
                      00092 
  0000003F            00093 PROGA EQU B'111111'; // Programación inicial del puerto A como entradas.
                      00094 
                      00095 ;Puerto B.      portb
  00000000            00096 A_RB0   EQU .0; // Segmento a proveniente de RB0.
  00000001            00097 B_RB1   EQU .1; // Segmento b proveniente de RB1.
  00000002            00098 C_RB2   EQU .2; // Segmento c proveniente de RB2.
  00000003            00099 D_RB3   EQU .3; // Segmento d proveniente de RB3.
  00000004            00100 E_RB4   EQU .4; // Segmento e proveniente de RB4.
  00000005            00101 F_RB5   EQU .5; // Segmento f proveniente de RB5.
  00000006            00102 G_RB6   EQU .6; // Segmento g proveniente de RB6.
  00000007            00103 DP_RB7  EQU .7; // Segmento dp proveniente de RB7.
MPASM  5.30.01                     DISPLAYS2.ASM   10-27-2023  14:28:06         PAGE  3


LOC  OBJECT CODE     LINE SOURCE TEXT
  VALUE

                      00104 
  00000000            00105 PROGB EQU B'00000000'; // Programación inicial del puerto B como BUS de segmentos. Salidas.
                      00106 
                      00107 ;Puerto C.      portc
  00000000            00108 CLK_RE0_RC0 EQU .0; // Salida CLK del Registro Externo 0 proveniente de RC0.
  00000001            00109 CLK_RE1_RC1 EQU .1; // Salida CLK del Registro Externo 1 proveniente de RC1.
  00000002            00110 CLK_RE2_RC2 EQU .2; // Salida CLK del Registro Externo 2 proveniente de RC2.
  00000003            00111 CLK_RE3_RC3 EQU .3; // Salida CLK del Registro Externo 3 proveniente de RC3.
  00000004            00112 CLK_RE4_RC4 EQU .4; // Salida CLK del Registro Externo 4 proveniente de RC4.
  00000005            00113 CLK_RE5_RC5 EQU .5; // Salida CLK del Registro Externo 5 proveniente de RC5.
  00000006            00114 CLK_RE6_RC6 EQU .6; // Salida CLK del Registro Externo 6 proveniente de RC6.
  00000007            00115 CLK_RE7_RC7 EQU .7; // Salida CLK del Registro Externo 7 proveniente de RC7.
                      00116 
  00000000            00117 PROGC EQU B'00000000'; // Programación inicial del puerto C como BUS de control. Salidas.
                      00118 
                      00119 ;Puerto D.      portd
  00000000            00120 SIN_USORD0 EQU .0; // Sin Uso RD0.
  00000001            00121 SIN_USORD1 EQU .1; // Sin Uso RD1.
  00000002            00122 SIN_USORD2 EQU .2; // Sin Uso RD2.
  00000003            00123 SIN_USORD3 EQU .3; // Sin Uso RD3.
  00000004            00124 SIN_USORD4 EQU .4; // Sin Uso RD4.
  00000005            00125 SIN_USORD5 EQU .5; // Sin Uso RD5.
  00000006            00126 SIN_USORD6 EQU .6; // Sin Uso RD6.
  00000007            00127 SIN_USORD7 EQU .7; // Sin Uso RD7.
                      00128 
  000000FF            00129 PROGD EQU B'11111111'; // Programación inicial del puerto D como entradas.
                      00130 
                      00131 ;Puerto E.      porte
  00000000            00132 SIN_USORE0      EQU .0; // Sin Uso RE0.
  00000001            00133 SIN_USORE1      EQU .1; // Sin Uso RE1.
  00000000            00134 SIN_USORE2      EQU .0; // Sin Uso RA0.
                      00135 
  00000007            00136 PROGE EQU B'111'; // Programación inicial del puerto E.
                      00137 ;---------------------------------------------------------------------------------------------
                      00138                         ; ================
                      00139                         ; == Vector Reset ==
                      00140                         ; ================
0000                  00141                         ORG 0X0000;
0000   018A           00142 VEC_RESET       CLRF PCLATH; Asegura la página cero de la memoria de prog.
0001   2817           00143                         GOTO PROG_PRIN;
                      00144 ;---------------------------------------------------------------------------------------------
                      00145 
                      00146                         ; ============================
                      00147                         ; == Vector de interrupción ==
                      00148                         ; ============================
0004                  00149                         ORG 0X0004;
0004   0000           00150 VEC_INT         NOP;
                      00151 
0005   0009           00152                         RETFIE;
                      00153 ;----------------------------------------------------------------------------------------------
                      00154                         ; ===========================
                      00155                         ; == Subrutina de inicio ==
                      00156                         ; ===========================
MPASM  5.30.01                     DISPLAYS2.ASM   10-27-2023  14:28:06         PAGE  4


LOC  OBJECT CODE     LINE SOURCE TEXT
  VALUE

0006   1683           00157 PROG_INI        BSF STATUS,RP0; selec. el bco. 1 de ram
0007   3081           00158                         MOVLW 0X81;
0008   0081           00159                         MOVWF OPTION_REG ^0X80;
0009   303F           00160                         MOVLW PROGA; w <-- b'111111'
000A   0085           00161                         MOVWF TRISA ^0X80;
000B   3000           00162                         MOVLW PROGB;
000C   0086           00163                         MOVWF TRISB ^0X80;
000D   3000           00164                         MOVLW PROGC;
000E   0087           00165                         MOVWF TRISC ^0X80;
000F   30FF           00166                         MOVLW PROGD;
0010   0088           00167                         MOVWF TRISD ^0X80;
0011   3007           00168                         MOVLW PROGE;
0012   0089           00169                         MOVWF TRISE ^0X80;
0013   3006           00170                         MOVLW 0X06;
0014   009F           00171                         MOVWF ADCON1 ^0X80;conf. el pto. a como salidas i/o.
0015   1283           00172                         BCF STATUS,RP0;
                      00173 
                      00174             
0016   0008           00175                         RETURN;
                      00176 
                      00177 ;---------------------------------------------------------------------------------------------
                      00178 
                      00179                         ; ===========================
                      00180                         ; == Programa principal =====
                      00181                         ; ===========================
                      00182 
0017   2006           00183 PROG_PRIN       CALL PROG_INI;
                      00184 
0018   1407           00185 LOOP_PRIN       BSF PORTC,CLK_RE0_RC0;-|
0019   1487           00186                         BSF PORTC,CLK_RE1_RC1;-|
001A   1507           00187                         BSF PORTC,CLK_RE2_RC2;-|
001B   1587           00188                         BSF PORTC,CLK_RE3_RC3;-|--->Pone en 1 la salida de los bits del puerto c.
001C   1607           00189                         BSF PORTC,CLK_RE4_RC4;-|
001D   1687           00190                         BSF PORTC,CLK_RE5_RC5;-|
001E   1707           00191                         BSF PORTC,CLK_RE6_RC6;-|
001F   1787           00192                         BSF PORTC,CLK_RE7_RC7;-|
                      00193 
                      00194 
                      00195 ;Primera Palabra                                                1N5t1tUt
                      00196 
0020   3006           00197                         MOVLW UNO_1;                            Genera la constante uno_1 y la carga al 
                            registro de trabajo (w).
0021   0086           00198                         MOVWF PORTB;                            Carga el dato del registro w al puerto b
                            .
0022   1007           00199                         BCF PORTC,CLK_RE0_RC0;          Pone en 0 la salida del bit 0 del puerto c (CLK_
                            RE0_RC0).-|
                      00200                                                                                                         
                                                                                                                    ;--}--> 
0023   1407           00201                         BSF PORTC,CLK_RE0_RC0;          Pone en 1 la salida del bit 0 del puerto c (CLK_
                            RE0_RC0).-|
                      00202                         ;1
                      00203 
0024   3037           00204                         MOVLW NNN;                                      Genera la constante N y la carga
MPASM  5.30.01                     DISPLAYS2.ASM   10-27-2023  14:28:06         PAGE  5


LOC  OBJECT CODE     LINE SOURCE TEXT
  VALUE

                             al registro de trabajo (w).
0025   0086           00205                         MOVWF PORTB;                            Carga el dato del registro w al puerto b
                            .
0026   1087           00206                         BCF PORTC,CLK_RE1_RC1;          Pone en 0 la salida del bit 1 del puerto c (CLK_
                            RE1_RC1).-|
                      00207                                                                                                         
                                                                                                                    ;--}--> 
0027   1487           00208                         BSF PORTC,CLK_RE1_RC1;          Pone en 1 la salida del bit 1 del puerto c (CLK_
                            RE1_RC1).-|
                      00209                         ;N
                      00210 
0028   306D           00211                         MOVLW CINCO_5;                          Genera la constante cinco_5 y la carga a
                            l registro de trabajo (w).
0029   0086           00212                         MOVWF PORTB;                            Carga el dato del registro w al puerto b
                            .
002A   1107           00213                         BCF PORTC,CLK_RE2_RC2;          Pone en 0 la salida del bit 2 del puerto c (CLK_
                            RE2_RC2).-|
                      00214                                                                                                         
                                                                                                                    ;--}--> 
002B   1507           00215                         BSF PORTC,CLK_RE2_RC2;          Pone en 1 la salida del bit 2 del puerto c (CLK_
                            RE2_RC2).-|
                      00216                         ;5
                      00217 
002C   3078           00218                         MOVLW T;                                        Genera la constante t y la carga
                             al registro de trabajo (w).
002D   0086           00219                         MOVWF PORTB;                            Carga el dato del registro w al puerto b
                            .
002E   1187           00220                         BCF PORTC,CLK_RE3_RC3;          Pone en 0 la salida del bit 3 del puerto c (CLK_
                            RE3_RC3).-|
                      00221                                                                                                         
                                                                                                                    ;--}--> 
002F   1587           00222                         BSF PORTC,CLK_RE3_RC3;          Pone en 1 la salida del bit 3 del puerto c (CLK_
                            RE3_RC3).-|
                      00223                         ;t
                      00224 
0030   3006           00225                         MOVLW UNO_1;                            Genera la constante uno_1 y la carga al 
                            registro de trabajo (w).
0031   0086           00226                         MOVWF PORTB;                            Carga el dato del registro w al puerto b
                            .
0032   1207           00227                         BCF PORTC,CLK_RE4_RC4;          Pone en 0 la salida del bit 4 del puerto c (CLK_
                            RE4_RC4).-|
                      00228                                                                                                         
                                                                                                                    ;--}--> 
0033   1607           00229                         BSF PORTC,CLK_RE4_RC4;          Pone en 1 la salida del bit 4 del puerto c (CLK_
                            RE4_RC4).-|
                      00230                         ;1
                      00231 
0034   3078           00232                         MOVLW T;                                        Genera la constante t y la carga
                             al registro de trabajo (w).
0035   0086           00233                         MOVWF PORTB;                            Carga el dato del registro w al puerto b
                            .
0036   1287           00234                         BCF PORTC,CLK_RE5_RC5;          Pone en 0 la salida del bit 5 del puerto c (CLK_
                            RE5_RC5).-|
MPASM  5.30.01                     DISPLAYS2.ASM   10-27-2023  14:28:06         PAGE  6


LOC  OBJECT CODE     LINE SOURCE TEXT
  VALUE

                      00235                                                                                                         
                                                                                                                    ;--}--> 
0037   1687           00236                         BSF PORTC,CLK_RE5_RC5;          Pone en 1 la salida del bit 5 del puerto c (CLK_
                            RE5_RC5).-|
                      00237                         ;t
                      00238 
0038   303E           00239                         MOVLW U;                                        Genera la constante U y la carga
                             al registro de trabajo (w).
0039   0086           00240                         MOVWF PORTB;                            Carga el dato del registro w al puerto b
                            .
003A   1307           00241                         BCF PORTC,CLK_RE6_RC6;          Pone en 0 la salida del bit 6 del puerto c (CLK_
                            RE6_RC6).-|
                      00242                                                                                                         
                                                                                                                    ;--}--> 
003B   1707           00243                         BSF PORTC,CLK_RE6_RC6;          Pone en 1 la salida del bit 6 del puerto c (CLK_
                            RE6_RC6).-|
                      00244                         ;U
                      00245 
003C   3078           00246                         MOVLW T;                                        Genera la constante t y la carga
                             al registro de trabajo (w).
003D   0086           00247                         MOVWF PORTB;                            Carga el dato del registro w al puerto b
                            .
003E   1387           00248                         BCF PORTC,CLK_RE7_RC7;          Pone en 0 la salida del bit 7 del puerto c (CLK_
                            RE7_RC7).-|
                      00249                                                                                                         
                                                                                                                    ;--}--> 
003F   1787           00250                         BSF PORTC,CLK_RE7_RC7;          Pone en 1 la salida del bit 7 del puerto c (CLK_
                            RE7_RC7).-|
                      00251                         ;t
                      00252                         
0040   2420           00253                         CALL RETARDO;
                      00254                         
                      00255 ;Segunda Palabra                                                P0L1tECN
                      00256 
0041   3073           00257                         MOVLW PP;                                       Genera la constante P y la carga
                             al registro de trabajo (w).
0042   0086           00258                         MOVWF PORTB;                            Carga el dato del registro w al puerto b
                            .
0043   1007           00259                         BCF PORTC,CLK_RE0_RC0;          Pone en 0 la salida del bit 0 del puerto c (CLK_
                            RE0_RC0).-|
                      00260                                                                                                         
                                                                                                                    ;--}--> 
0044   1407           00261                         BSF PORTC,CLK_RE0_RC0;          Pone en 1 la salida del bit 0 del puerto c (CLK_
                            RE0_RC0).-|
                      00262                         ;P
                      00263 
0045   303F           00264                         MOVLW CERO_0;                           Genera la constante cero_0 y la carga al
                             registro de trabajo (w).
0046   0086           00265                         MOVWF PORTB;                            Carga el dato del registro w al puerto b
                            .
0047   1087           00266                         BCF PORTC,CLK_RE1_RC1;          Pone en 0 la salida del bit 1 del puerto c (CLK_
                            RE1_RC1).-|
                      00267                                                                                                         
MPASM  5.30.01                     DISPLAYS2.ASM   10-27-2023  14:28:06         PAGE  7


LOC  OBJECT CODE     LINE SOURCE TEXT
  VALUE

                                                                                                                    ;--}--> 
0048   1487           00268                         BSF PORTC,CLK_RE1_RC1;          Pone en 1 la salida del bit 1 del puerto c (CLK_
                            RE1_RC1).-|
                      00269                         ;0
                      00270 
0049   3038           00271                         MOVLW LL;                                       Genera la constante L y la carga
                             al registro de trabajo (w).
004A   0086           00272                         MOVWF PORTB;                            Carga el dato del registro w al puerto b
                            .
004B   1107           00273                         BCF PORTC,CLK_RE2_RC2;          Pone en 0 la salida del bit 2 del puerto c (CLK_
                            RE2_RC2).-|
                      00274                                                                                                         
                                                                                                                    ;--}--> 
004C   1507           00275                         BSF PORTC,CLK_RE2_RC2;          Pone en 1 la salida del bit 2 del puerto c (CLK_
                            RE2_RC2).-|
                      00276                         ;L
                      00277 
004D   3006           00278                         MOVLW UNO_1;                            Genera la constante uno_1 y la carga al 
                            registro de trabajo (w).
004E   0086           00279                         MOVWF PORTB;                            Carga el dato del registro w al puerto b
                            .
004F   1187           00280                         BCF PORTC,CLK_RE3_RC3;          Pone en 0 la salida del bit 3 del puerto c (CLK_
                            RE3_RC3).-|
                      00281                                                                                                         
                                                                                                                    ;--}--> 
0050   1587           00282                         BSF PORTC,CLK_RE3_RC3;          Pone en 1 la salida del bit 3 del puerto c (CLK_
                            RE3_RC3).-|
                      00283                         ;1
                      00284 
0051   3078           00285                         MOVLW T;                                        Genera la constante t y la carga
                             al registro de trabajo (w).
0052   0086           00286                         MOVWF PORTB;                            Carga el dato del registro w al puerto b
                            .
0053   1207           00287                         BCF PORTC,CLK_RE4_RC4;          Pone en 0 la salida del bit 4 del puerto c (CLK_
                            RE4_RC4).-|
                      00288                                                                                                         
                                                                                                                    ;--}--> 
0054   1607           00289                         BSF PORTC,CLK_RE4_RC4;          Pone en 1 la salida del bit 4 del puerto c (CLK_
                            RE4_RC4).-|
                      00290                         ;t
                      00291 
0055   3079           00292                         MOVLW E;                                        Genera la constante E y la carga
                             al registro de trabajo (w).
0056   0086           00293                         MOVWF PORTB;                            Carga el dato del registro w al puerto b
                            .
0057   1287           00294                         BCF PORTC,CLK_RE5_RC5;          Pone en 0 la salida del bit 5 del puerto c (CLK_
                            RE5_RC5).-|
                      00295                                                                                                         
                                                                                                                    ;--}--> 
0058   1687           00296                         BSF PORTC,CLK_RE5_RC5;          Pone en 1 la salida del bit 5 del puerto c (CLK_
                            RE5_RC5).-|
                      00297                         ;E
                      00298 
MPASM  5.30.01                     DISPLAYS2.ASM   10-27-2023  14:28:06         PAGE  8


LOC  OBJECT CODE     LINE SOURCE TEXT
  VALUE

0059   3039           00299                         MOVLW C_1;                                      Genera la constante C y la carga
                             al registro de trabajo (w).
005A   0086           00300                         MOVWF PORTB;                            Carga el dato del registro w al puerto b
                            .
005B   1307           00301                         BCF PORTC,CLK_RE6_RC6;          Pone en 0 la salida del bit 6 del puerto c (CLK_
                            RE6_RC6).-|
                      00302                                                                                                         
                                                                                                                    ;--}--> 
005C   1707           00303                         BSF PORTC,CLK_RE6_RC6;          Pone en 1 la salida del bit 6 del puerto c (CLK_
                            RE6_RC6).-|
                      00304                         ;C
                      00305                         
005D   3037           00306                         MOVLW NNN;                                      Genera la constante N y la carga
                             al registro de trabajo (w).
005E   0086           00307                         MOVWF PORTB;                            Carga el dato del registro w al puerto b
                            .
005F   1387           00308                         BCF PORTC,CLK_RE7_RC7;          Pone en 0 la salida del bit 7 del puerto c (CLK_
                            RE7_RC7).-|
                      00309                                                                                                         
                                                                                                                    ;--}--> 
0060   1787           00310                         BSF PORTC,CLK_RE7_RC7;          Pone en 1 la salida del bit 7 del puerto c (CLK_
                            RE7_RC7).-|
                      00311                         ;N                      
                      00312 
0061   2420           00313                         CALL RETARDO;
                      00314 
                      00315 ;Tercera Palabra                                                NAC10NAL
                      00316 
0062   3037           00317                         MOVLW NNN;                                      Genera la constante N y la carga
                             al registro de trabajo (w).
0063   0086           00318                         MOVWF PORTB;                            Carga el dato del registro w al puerto b
                            .
0064   1007           00319                         BCF PORTC,CLK_RE0_RC0;          Pone en 0 la salida del bit 0 del puerto c (CLK_
                            RE0_RC0).-|
                      00320                                                                                                         
                                                                                                                    ;--}--> 
0065   1407           00321                         BSF PORTC,CLK_RE0_RC0;          Pone en 1 la salida del bit 0 del puerto c (CLK_
                            RE0_RC0).-|
                      00322                         ;N
                      00323 
0066   3077           00324                         MOVLW A;                                        Genera la constante A y la carga
                             al registro de trabajo (w).
0067   0086           00325                         MOVWF PORTB;                            Carga el dato del registro w al puerto b
                            .
0068   1087           00326                         BCF PORTC,CLK_RE1_RC1;          Pone en 0 la salida del bit 1 del puerto c (CLK_
                            RE1_RC1).-|
                      00327                                                                                                         
                                                                                                                    ;--}--> 
0069   1487           00328                         BSF PORTC,CLK_RE1_RC1;          Pone en 1 la salida del bit 1 del puerto c (CLK_
                            RE1_RC1).-|
                      00329                         ;A
                      00330 
006A   3039           00331                         MOVLW C_1;                                      Genera la constante C y la carga
MPASM  5.30.01                     DISPLAYS2.ASM   10-27-2023  14:28:06         PAGE  9


LOC  OBJECT CODE     LINE SOURCE TEXT
  VALUE

                             al registro de trabajo (w).
006B   0086           00332                         MOVWF PORTB;                            Carga el dato del registro w al puerto b
                            .
006C   1107           00333                         BCF PORTC,CLK_RE2_RC2;          Pone en 0 la salida del bit 2 del puerto c (CLK_
                            RE2_RC2).-|
                      00334                                                                                                         
                                                                                                                    ;--}--> 
006D   1507           00335                         BSF PORTC,CLK_RE2_RC2;          Pone en 1 la salida del bit 2 del puerto c (CLK_
                            RE2_RC2).-|
                      00336                         ;C
                      00337 
006E   3006           00338                         MOVLW UNO_1;                            Genera la constante uno_1 y la carga al 
                            registro de trabajo (w).
006F   0086           00339                         MOVWF PORTB;                            Carga el dato del registro w al puerto b
                            .
0070   1187           00340                         BCF PORTC,CLK_RE3_RC3;          Pone en 0 la salida del bit 3 del puerto c (CLK_
                            RE3_RC3).-|
                      00341                                                                                                         
                                                                                                                    ;--}--> 
0071   1587           00342                         BSF PORTC,CLK_RE3_RC3;          Pone en 1 la salida del bit 3 del puerto c (CLK_
                            RE3_RC3).-|
                      00343                         ;1
                      00344 
0072   303F           00345                         MOVLW CERO_0;                           Genera la constante cero_0 y la carga al
                             registro de trabajo (w).
0073   0086           00346                         MOVWF PORTB;                            Carga el dato del registro w al puerto b
                            .
0074   1207           00347                         BCF PORTC,CLK_RE4_RC4;          Pone en 0 la salida del bit 4 del puerto c (CLK_
                            RE4_RC4).-|
                      00348                                                                                                         
                                                                                                                    ;--}--> 
0075   1607           00349                         BSF PORTC,CLK_RE4_RC4;          Pone en 1 la salida del bit 4 del puerto c (CLK_
                            RE4_RC4).-|
                      00350                         ;0
                      00351 
0076   3037           00352                         MOVLW NNN;                                      Genera la constante N y la carga
                             al registro de trabajo (w).
0077   0086           00353                         MOVWF PORTB;                            Carga el dato del registro w al puerto b
                            .
0078   1287           00354                         BCF PORTC,CLK_RE5_RC5;          Pone en 0 la salida del bit 5 del puerto c (CLK_
                            RE5_RC5).-|
                      00355                                                                                                         
                                                                                                                    ;--}--> 
0079   1687           00356                         BSF PORTC,CLK_RE5_RC5;          Pone en 1 la salida del bit 5 del puerto c (CLK_
                            RE5_RC5).-|
                      00357                         ;N
                      00358 
007A   3077           00359                         MOVLW A;                                        Genera la constante A y la carga
                             al registro de trabajo (w).
007B   0086           00360                         MOVWF PORTB;                            Carga el dato del registro w al puerto b
                            .
007C   1307           00361                         BCF PORTC,CLK_RE6_RC6;          Pone en 0 la salida del bit 6 del puerto c (CLK_
                            RE6_RC6).-|
MPASM  5.30.01                     DISPLAYS2.ASM   10-27-2023  14:28:06         PAGE 10


LOC  OBJECT CODE     LINE SOURCE TEXT
  VALUE

                      00362                                                                                                         
                                                                                                                    ;--}--> 
007D   1707           00363                         BSF PORTC,CLK_RE6_RC6;          Pone en 1 la salida del bit 6 del puerto c (CLK_
                            RE6_RC6).-|
                      00364                         ;A
                      00365                         
007E   3038           00366                         MOVLW LL;                                       Genera la constante L y la carga
                             al registro de trabajo (w).
007F   0086           00367                         MOVWF PORTB;                            Carga el dato del registro w al puerto b
                            .
0080   1387           00368                         BCF PORTC,CLK_RE7_RC7;          Pone en 0 la salida del bit 7 del puerto c (CLK_
                            RE7_RC7).-|
                      00369                                                                                                         
                                                                                                                    ;--}--> 
0081   1787           00370                         BSF PORTC,CLK_RE7_RC7;          Pone en 1 la salida del bit 7 del puerto c (CLK_
                            RE7_RC7).-|
                      00371                         ;L                      
                      00372 
0082   2420           00373                         CALL RETARDO;
                      00374                         
                      00375 ;Cuarta Palabra                                                 CECyt_9_
                      00376 
0083   3039           00377                         MOVLW C_1;                                      Genera la constante C y la carga
                             al registro de trabajo (w).
0084   0086           00378                         MOVWF PORTB;                            Carga el dato del registro w al puerto b
                            .
0085   1007           00379                         BCF PORTC,CLK_RE0_RC0;          Pone en 0 la salida del bit 0 del puerto c (CLK_
                            RE0_RC0).-|
                      00380                                                                                                         
                                                                                                                    ;--}--> 
0086   1407           00381                         BSF PORTC,CLK_RE0_RC0;          Pone en 1 la salida del bit 0 del puerto c (CLK_
                            RE0_RC0).-|
                      00382                         ;C
                      00383 
0087   3079           00384                         MOVLW E;                                        Genera la constante E y la carga
                             al registro de trabajo (w).
0088   0086           00385                         MOVWF PORTB;                            Carga el dato del registro w al puerto b
                            .
0089   1087           00386                         BCF PORTC,CLK_RE1_RC1;          Pone en 0 la salida del bit 1 del puerto c (CLK_
                            RE1_RC1).-|
                      00387                                                                                                         
                                                                                                                    ;--}--> 
008A   1487           00388                         BSF PORTC,CLK_RE1_RC1;          Pone en 1 la salida del bit 1 del puerto c (CLK_
                            RE1_RC1).-|
                      00389                         ;E
                      00390 
008B   3039           00391                         MOVLW C_1;                                      Genera la constante C y la carga
                             al registro de trabajo (w).
008C   0086           00392                         MOVWF PORTB;                            Carga el dato del registro w al puerto b
                            .
008D   1107           00393                         BCF PORTC,CLK_RE2_RC2;          Pone en 0 la salida del bit 2 del puerto c (CLK_
                            RE2_RC2).-|
                      00394                                                                                                         
MPASM  5.30.01                     DISPLAYS2.ASM   10-27-2023  14:28:06         PAGE 11


LOC  OBJECT CODE     LINE SOURCE TEXT
  VALUE

                                                                                                                    ;--}--> 
008E   1507           00395                         BSF PORTC,CLK_RE2_RC2;          Pone en 1 la salida del bit 2 del puerto c (CLK_
                            RE2_RC2).-|
                      00396                         ;C
                      00397 
008F   306E           00398                         MOVLW Y;                                        Genera la constante y y la carga
                             al registro de trabajo (w).
0090   0086           00399                         MOVWF PORTB;                            Carga el dato del registro w al puerto b
                            .
0091   1187           00400                         BCF PORTC,CLK_RE3_RC3;          Pone en 0 la salida del bit 3 del puerto c (CLK_
                            RE3_RC3).-|
                      00401                                                                                                         
                                                                                                                    ;--}--> 
0092   1587           00402                         BSF PORTC,CLK_RE3_RC3;          Pone en 1 la salida del bit 3 del puerto c (CLK_
                            RE3_RC3).-|
                      00403                         ;y
                      00404 
0093   3078           00405                         MOVLW T;                                        Genera la constante t y la carga
                             al registro de trabajo (w).
0094   0086           00406                         MOVWF PORTB;                            Carga el dato del registro w al puerto b
                            .
0095   1207           00407                         BCF PORTC,CLK_RE4_RC4;          Pone en 0 la salida del bit 4 del puerto c (CLK_
                            RE4_RC4).-|
                      00408                                                                                                         
                                                                                                                    ;--}--> 
0096   1607           00409                         BSF PORTC,CLK_RE4_RC4;          Pone en 1 la salida del bit 4 del puerto c (CLK_
                            RE4_RC4).-|
                      00410                         ;t
                      00411 
0097   3000           00412                         MOVLW NULL;                                     Genera la constante NULL y la ca
                            rga al registro de trabajo (w).
0098   0086           00413                         MOVWF PORTB;                            Carga el dato del registro w al puerto b
                            .
0099   1287           00414                         BCF PORTC,CLK_RE5_RC5;          Pone en 0 la salida del bit 5 del puerto c (CLK_
                            RE5_RC5).-|
                      00415                                                                                                         
                                                                                                                    ;--}--> 
009A   1687           00416                         BSF PORTC,CLK_RE5_RC5;          Pone en 1 la salida del bit 5 del puerto c (CLK_
                            RE5_RC5).-|
                      00417                         ;NULL
                      00418 
009B   306F           00419                         MOVLW NUEVE_9;                          Genera la constante 9 y la carga al regi
                            stro de trabajo (w).
009C   0086           00420                         MOVWF PORTB;                            Carga el dato del registro w al puerto b
                            .
009D   1307           00421                         BCF PORTC,CLK_RE6_RC6;          Pone en 0 la salida del bit 6 del puerto c (CLK_
                            RE6_RC6).-|
                      00422                                                                                                         
                                                                                                                    ;--}--> 
009E   1707           00423                         BSF PORTC,CLK_RE6_RC6;          Pone en 1 la salida del bit 6 del puerto c (CLK_
                            RE6_RC6).-|
                      00424                         ;9
                      00425                         
MPASM  5.30.01                     DISPLAYS2.ASM   10-27-2023  14:28:06         PAGE 12


LOC  OBJECT CODE     LINE SOURCE TEXT
  VALUE

009F   3000           00426                         MOVLW NULL;                                     Genera la constante NULL y la ca
                            rga al registro de trabajo (w).
00A0   0086           00427                         MOVWF PORTB;                            Carga el dato del registro w al puerto b
                            .
00A1   1387           00428                         BCF PORTC,CLK_RE7_RC7;          Pone en 0 la salida del bit 7 del puerto c (CLK_
                            RE7_RC7).-|
                      00429                                                                                                         
                                                                                                                    ;--}--> 
00A2   1787           00430                         BSF PORTC,CLK_RE7_RC7;          Pone en 1 la salida del bit 7 del puerto c (CLK_
                            RE7_RC7).-|
                      00431                         ;NULL                   
                      00432 
00A3   2420           00433                         CALL RETARDO;
                      00434 
                      00435 
                      00436 ;Cinco Palabra                                                  JUAN_dE_
                      00437 
00A4   301E           00438                         MOVLW J;                                        Genera la constante J y la carga
                             al registro de trabajo (w).
00A5   0086           00439                         MOVWF PORTB;                            Carga el dato del registro w al puerto b
                            .
00A6   1007           00440                         BCF PORTC,CLK_RE0_RC0;          Pone en 0 la salida del bit 0 del puerto c (CLK_
                            RE0_RC0).-|
                      00441                                                                                                         
                                                                                                                    ;--}--> 
00A7   1407           00442                         BSF PORTC,CLK_RE0_RC0;          Pone en 1 la salida del bit 0 del puerto c (CLK_
                            RE0_RC0).-|
                      00443                         ;J
                      00444 
00A8   303E           00445                         MOVLW U;                                        Genera la constante U y la carga
                             al registro de trabajo (w).
00A9   0086           00446                         MOVWF PORTB;                            Carga el dato del registro w al puerto b
                            .
00AA   1087           00447                         BCF PORTC,CLK_RE1_RC1;          Pone en 0 la salida del bit 1 del puerto c (CLK_
                            RE1_RC1).-|
                      00448                                                                                                         
                                                                                                                    ;--}--> 
00AB   1487           00449                         BSF PORTC,CLK_RE1_RC1;          Pone en 1 la salida del bit 1 del puerto c (CLK_
                            RE1_RC1).-|
                      00450                         ;U
                      00451 
00AC   3077           00452                         MOVLW A;                                        Genera la constante A y la carga
                             al registro de trabajo (w).
00AD   0086           00453                         MOVWF PORTB;                            Carga el dato del registro w al puerto b
                            .
00AE   1107           00454                         BCF PORTC,CLK_RE2_RC2;          Pone en 0 la salida del bit 2 del puerto c (CLK_
                            RE2_RC2).-|
                      00455                                                                                                         
                                                                                                                    ;--}--> 
00AF   1507           00456                         BSF PORTC,CLK_RE2_RC2;          Pone en 1 la salida del bit 2 del puerto c (CLK_
                            RE2_RC2).-|
                      00457                         ;A
                      00458 
MPASM  5.30.01                     DISPLAYS2.ASM   10-27-2023  14:28:06         PAGE 13


LOC  OBJECT CODE     LINE SOURCE TEXT
  VALUE

00B0   3037           00459                         MOVLW NNN;                                      Genera la constante N y la carga
                             al registro de trabajo (w).
00B1   0086           00460                         MOVWF PORTB;                            Carga el dato del registro w al puerto b
                            .
00B2   1187           00461                         BCF PORTC,CLK_RE3_RC3;          Pone en 0 la salida del bit 3 del puerto c (CLK_
                            RE3_RC3).-|
                      00462                                                                                                         
                                                                                                                    ;--}--> 
00B3   1587           00463                         BSF PORTC,CLK_RE3_RC3;          Pone en 1 la salida del bit 3 del puerto c (CLK_
                            RE3_RC3).-|
                      00464                         ;N
                      00465 
00B4   3000           00466                         MOVLW NULL;                                     Genera la constante NULL y la ca
                            rga al registro de trabajo (w).
00B5   0086           00467                         MOVWF PORTB;                            Carga el dato del registro w al puerto b
                            .
00B6   1207           00468                         BCF PORTC,CLK_RE4_RC4;          Pone en 0 la salida del bit 4 del puerto c (CLK_
                            RE4_RC4).-|
                      00469                                                                                                         
                                                                                                                    ;--}--> 
00B7   1607           00470                         BSF PORTC,CLK_RE4_RC4;          Pone en 1 la salida del bit 4 del puerto c (CLK_
                            RE4_RC4).-|
                      00471                         ;NULL
                      00472 
00B8   305E           00473                         MOVLW DD;                                       Genera la constante d y la carga
                             al registro de trabajo (w).
00B9   0086           00474                         MOVWF PORTB;                            Carga el dato del registro w al puerto b
                            .
00BA   1287           00475                         BCF PORTC,CLK_RE5_RC5;          Pone en 0 la salida del bit 5 del puerto c (CLK_
                            RE5_RC5).-|
                      00476                                                                                                         
                                                                                                                    ;--}--> 
00BB   1687           00477                         BSF PORTC,CLK_RE5_RC5;          Pone en 1 la salida del bit 5 del puerto c (CLK_
                            RE5_RC5).-|
                      00478                         ;d
                      00479 
00BC   3079           00480                         MOVLW E;                                        Genera la constante E y la carga
                             al registro de trabajo (w).
00BD   0086           00481                         MOVWF PORTB;                            Carga el dato del registro w al puerto b
                            .
00BE   1307           00482                         BCF PORTC,CLK_RE6_RC6;          Pone en 0 la salida del bit 6 del puerto c (CLK_
                            RE6_RC6).-|
                      00483                                                                                                         
                                                                                                                    ;--}--> 
00BF   1707           00484                         BSF PORTC,CLK_RE6_RC6;          Pone en 1 la salida del bit 6 del puerto c (CLK_
                            RE6_RC6).-|
                      00485                         ;E
                      00486                         
00C0   3000           00487                         MOVLW NULL;                                     Genera la constante NULL y la ca
                            rga al registro de trabajo (w).
00C1   0086           00488                         MOVWF PORTB;                            Carga el dato del registro w al puerto b
                            .
00C2   1387           00489                         BCF PORTC,CLK_RE7_RC7;          Pone en 0 la salida del bit 7 del puerto c (CLK_
MPASM  5.30.01                     DISPLAYS2.ASM   10-27-2023  14:28:06         PAGE 14


LOC  OBJECT CODE     LINE SOURCE TEXT
  VALUE

                            RE7_RC7).-|
                      00490                                                                                                         
                                                                                                                    ;--}--> 
00C3   1787           00491                         BSF PORTC,CLK_RE7_RC7;          Pone en 1 la salida del bit 7 del puerto c (CLK_
                            RE7_RC7).-|
                      00492                         ;NULL                   
                      00493 
00C4   2420           00494                         CALL RETARDO;
                      00495 
                      00496 ;Sexta Palabra                                                  d105_bAt
                      00497 
00C5   305E           00498                         MOVLW DD;                                       Genera la constante d y la carga
                             al registro de trabajo (w).
00C6   0086           00499                         MOVWF PORTB;                            Carga el dato del registro w al puerto b
                            .
00C7   1007           00500                         BCF PORTC,CLK_RE0_RC0;          Pone en 0 la salida del bit 0 del puerto c (CLK_
                            RE0_RC0).-|
                      00501                                                                                                         
                                                                                                                    ;--}--> 
00C8   1407           00502                         BSF PORTC,CLK_RE0_RC0;          Pone en 1 la salida del bit 0 del puerto c (CLK_
                            RE0_RC0).-|
                      00503                         ;d
                      00504 
00C9   3006           00505                         MOVLW UNO_1;                            Genera la constante uno_1 y la carga al 
                            registro de trabajo (w).
00CA   0086           00506                         MOVWF PORTB;                            Carga el dato del registro w al puerto b
                            .
00CB   1087           00507                         BCF PORTC,CLK_RE1_RC1;          Pone en 0 la salida del bit 1 del puerto c (CLK_
                            RE1_RC1).-|
                      00508                                                                                                         
                                                                                                                    ;--}--> 
00CC   1487           00509                         BSF PORTC,CLK_RE1_RC1;          Pone en 1 la salida del bit 1 del puerto c (CLK_
                            RE1_RC1).-|
                      00510                         ;1
                      00511 
00CD   305C           00512                         MOVLW O;                                        Genera la constante o y la carga
                             al registro de trabajo (w).
00CE   0086           00513                         MOVWF PORTB;                            Carga el dato del registro w al puerto b
                            .
00CF   1107           00514                         BCF PORTC,CLK_RE2_RC2;          Pone en 0 la salida del bit 2 del puerto c (CLK_
                            RE2_RC2).-|
                      00515                                                                                                         
                                                                                                                    ;--}--> 
00D0   1507           00516                         BSF PORTC,CLK_RE2_RC2;          Pone en 1 la salida del bit 2 del puerto c (CLK_
                            RE2_RC2).-|
                      00517                         ;o
                      00518 
00D1   306D           00519                         MOVLW CINCO_5;                          Genera la constante cinco_5 y la carga a
                            l registro de trabajo (w).
00D2   0086           00520                         MOVWF PORTB;                            Carga el dato del registro w al puerto b
                            .
00D3   1187           00521                         BCF PORTC,CLK_RE3_RC3;          Pone en 0 la salida del bit 3 del puerto c (CLK_
                            RE3_RC3).-|
MPASM  5.30.01                     DISPLAYS2.ASM   10-27-2023  14:28:06         PAGE 15


LOC  OBJECT CODE     LINE SOURCE TEXT
  VALUE

                      00522                                                                                                         
                                                                                                                    ;--}--> 
00D4   1587           00523                         BSF PORTC,CLK_RE3_RC3;          Pone en 1 la salida del bit 3 del puerto c (CLK_
                            RE3_RC3).-|
                      00524                         ;5
                      00525 
00D5   3000           00526                         MOVLW NULL;                                     Genera la constante NULL y la ca
                            rga al registro de trabajo (w).
00D6   0086           00527                         MOVWF PORTB;                            Carga el dato del registro w al puerto b
                            .
00D7   1207           00528                         BCF PORTC,CLK_RE4_RC4;          Pone en 0 la salida del bit 4 del puerto c (CLK_
                            RE4_RC4).-|
                      00529                                                                                                         
                                                                                                                    ;--}--> 
00D8   1607           00530                         BSF PORTC,CLK_RE4_RC4;          Pone en 1 la salida del bit 4 del puerto c (CLK_
                            RE4_RC4).-|
                      00531                         ;NULL
                      00532 
00D9   307C           00533                         MOVLW BB;                                       Genera la constante b y la carga
                             al registro de trabajo (w).
00DA   0086           00534                         MOVWF PORTB;                            Carga el dato del registro w al puerto b
                            .
00DB   1287           00535                         BCF PORTC,CLK_RE5_RC5;          Pone en 0 la salida del bit 5 del puerto c (CLK_
                            RE5_RC5).-|
                      00536                                                                                                         
                                                                                                                    ;--}--> 
00DC   1687           00537                         BSF PORTC,CLK_RE5_RC5;          Pone en 1 la salida del bit 5 del puerto c (CLK_
                            RE5_RC5).-|
                      00538                         ;b
                      00539 
00DD   3077           00540                         MOVLW A;                                        Genera la constante A y la carga
                             al registro de trabajo (w).
00DE   0086           00541                         MOVWF PORTB;                            Carga el dato del registro w al puerto b
                            .
00DF   1307           00542                         BCF PORTC,CLK_RE6_RC6;          Pone en 0 la salida del bit 6 del puerto c (CLK_
                            RE6_RC6).-|
                      00543                                                                                                         
                                                                                                                    ;--}--> 
00E0   1707           00544                         BSF PORTC,CLK_RE6_RC6;          Pone en 1 la salida del bit 6 del puerto c (CLK_
                            RE6_RC6).-|
                      00545                         ;A
                      00546                         
00E1   3078           00547                         MOVLW T;                                        Genera la constante t y la carga
                             al registro de trabajo (w).
00E2   0086           00548                         MOVWF PORTB;                            Carga el dato del registro w al puerto b
                            .
00E3   1387           00549                         BCF PORTC,CLK_RE7_RC7;          Pone en 0 la salida del bit 7 del puerto c (CLK_
                            RE7_RC7).-|
                      00550                                                                                                         
                                                                                                                    ;--}--> 
00E4   1787           00551                         BSF PORTC,CLK_RE7_RC7;          Pone en 1 la salida del bit 7 del puerto c (CLK_
                            RE7_RC7).-|
                      00552                         ;t                      
MPASM  5.30.01                     DISPLAYS2.ASM   10-27-2023  14:28:06         PAGE 16


LOC  OBJECT CODE     LINE SOURCE TEXT
  VALUE

                      00553 
00E5   2420           00554                         CALL RETARDO;
                      00555 
                      00556 
                      00557 ;Septima Palabra                                                PrActicA
                      00558 
00E6   3073           00559                         MOVLW PP;                                       Genera la constante P y la carga
                             al registro de trabajo (w).
00E7   0086           00560                         MOVWF PORTB;                            Carga el dato del registro w al puerto b
                            .
00E8   1007           00561                         BCF PORTC,CLK_RE0_RC0;          Pone en 0 la salida del bit 0 del puerto c (CLK_
                            RE0_RC0).-|
                      00562                                                                                                         
                                                                                                                    ;--}--> 
00E9   1407           00563                         BSF PORTC,CLK_RE0_RC0;          Pone en 1 la salida del bit 0 del puerto c (CLK_
                            RE0_RC0).-|
                      00564                         ;P
                      00565 
00EA   3050           00566                         MOVLW RR;                                       Genera la constante r y la carga
                             al registro de trabajo (w).
00EB   0086           00567                         MOVWF PORTB;                            Carga el dato del registro w al puerto b
                            .
00EC   1087           00568                         BCF PORTC,CLK_RE1_RC1;          Pone en 0 la salida del bit 1 del puerto c (CLK_
                            RE1_RC1).-|
                      00569                                                                                                         
                                                                                                                    ;--}--> 
00ED   1487           00570                         BSF PORTC,CLK_RE1_RC1;          Pone en 1 la salida del bit 1 del puerto c (CLK_
                            RE1_RC1).-|
                      00571                         ;r
                      00572 
00EE   3077           00573                         MOVLW A;                                        Genera la constante A y la carga
                             al registro de trabajo (w).
00EF   0086           00574                         MOVWF PORTB;                            Carga el dato del registro w al puerto b
                            .
00F0   1107           00575                         BCF PORTC,CLK_RE2_RC2;          Pone en 0 la salida del bit 2 del puerto c (CLK_
                            RE2_RC2).-|
                      00576                                                                                                         
                                                                                                                    ;--}--> 
00F1   1507           00577                         BSF PORTC,CLK_RE2_RC2;          Pone en 1 la salida del bit 2 del puerto c (CLK_
                            RE2_RC2).-|
                      00578                         ;A
                      00579 
00F2   3058           00580                         MOVLW C_0;                                      Genera la constante c y la carga
                             al registro de trabajo (w).
00F3   0086           00581                         MOVWF PORTB;                            Carga el dato del registro w al puerto b
                            .
00F4   1187           00582                         BCF PORTC,CLK_RE3_RC3;          Pone en 0 la salida del bit 3 del puerto c (CLK_
                            RE3_RC3).-|
                      00583                                                                                                         
                                                                                                                    ;--}--> 
00F5   1587           00584                         BSF PORTC,CLK_RE3_RC3;          Pone en 1 la salida del bit 3 del puerto c (CLK_
                            RE3_RC3).-|
                      00585                         ;c
MPASM  5.30.01                     DISPLAYS2.ASM   10-27-2023  14:28:06         PAGE 17


LOC  OBJECT CODE     LINE SOURCE TEXT
  VALUE

                      00586 
00F6   3078           00587                         MOVLW T;                                        Genera la constante t y la carga
                             al registro de trabajo (w).
00F7   0086           00588                         MOVWF PORTB;                            Carga el dato del registro w al puerto b
                            .
00F8   1207           00589                         BCF PORTC,CLK_RE4_RC4;          Pone en 0 la salida del bit 4 del puerto c (CLK_
                            RE4_RC4).-|
                      00590                                                                                                         
                                                                                                                    ;--}--> 
00F9   1607           00591                         BSF PORTC,CLK_RE4_RC4;          Pone en 1 la salida del bit 4 del puerto c (CLK_
                            RE4_RC4).-|
                      00592                         ;t
                      00593 
00FA   3010           00594                         MOVLW I;                                        Genera la constante i y la carga
                             al registro de trabajo (w).
00FB   0086           00595                         MOVWF PORTB;                            Carga el dato del registro w al puerto b
                            .
00FC   1287           00596                         BCF PORTC,CLK_RE5_RC5;          Pone en 0 la salida del bit 5 del puerto c (CLK_
                            RE5_RC5).-|
                      00597                                                                                                         
                                                                                                                    ;--}--> 
00FD   1687           00598                         BSF PORTC,CLK_RE5_RC5;          Pone en 1 la salida del bit 5 del puerto c (CLK_
                            RE5_RC5).-|
                      00599                         ;i
                      00600 
00FE   3058           00601                         MOVLW C_0;                                      Genera la constante c y la carga
                             al registro de trabajo (w).
00FF   0086           00602                         MOVWF PORTB;                            Carga el dato del registro w al puerto b
                            .
0100   1307           00603                         BCF PORTC,CLK_RE6_RC6;          Pone en 0 la salida del bit 6 del puerto c (CLK_
                            RE6_RC6).-|
                      00604                                                                                                         
                                                                                                                    ;--}--> 
0101   1707           00605                         BSF PORTC,CLK_RE6_RC6;          Pone en 1 la salida del bit 6 del puerto c (CLK_
                            RE6_RC6).-|
                      00606                         ;c
                      00607                         
0102   3077           00608                         MOVLW A;                                        Genera la constante A y la carga
                             al registro de trabajo (w).
0103   0086           00609                         MOVWF PORTB;                            Carga el dato del registro w al puerto b
                            .
0104   1387           00610                         BCF PORTC,CLK_RE7_RC7;          Pone en 0 la salida del bit 7 del puerto c (CLK_
                            RE7_RC7).-|
                      00611                                                                                                         
                                                                                                                    ;--}--> 
0105   1787           00612                         BSF PORTC,CLK_RE7_RC7;          Pone en 1 la salida del bit 7 del puerto c (CLK_
                            RE7_RC7).-|
                      00613                         ;A                      
                      00614 
0106   2420           00615                         CALL RETARDO;
                      00616 
                      00617 
                      00618 ;Octava Palabra                                                 3_NNAniP
MPASM  5.30.01                     DISPLAYS2.ASM   10-27-2023  14:28:06         PAGE 18


LOC  OBJECT CODE     LINE SOURCE TEXT
  VALUE

                      00619 
0107   304F           00620                         MOVLW TRES_3;                           Genera la constante 3 y la carga al regi
                            stro de trabajo (w).
0108   0086           00621                         MOVWF PORTB;                            Carga el dato del registro w al puerto b
                            .
0109   1007           00622                         BCF PORTC,CLK_RE0_RC0;          Pone en 0 la salida del bit 0 del puerto c (CLK_
                            RE0_RC0).-|
                      00623                                                                                                         
                                                                                                                    ;--}--> 
010A   1407           00624                         BSF PORTC,CLK_RE0_RC0;          Pone en 1 la salida del bit 0 del puerto c (CLK_
                            RE0_RC0).-|
                      00625                         ;3
                      00626 
010B   3000           00627                         MOVLW NULL;                                     Genera la constante NULL y la ca
                            rga al registro de trabajo (w).
010C   0086           00628                         MOVWF PORTB;                            Carga el dato del registro w al puerto b
                            .
010D   1087           00629                         BCF PORTC,CLK_RE1_RC1;          Pone en 0 la salida del bit 1 del puerto c (CLK_
                            RE1_RC1).-|
                      00630                                                                                                         
                                                                                                                    ;--}--> 
010E   1487           00631                         BSF PORTC,CLK_RE1_RC1;          Pone en 1 la salida del bit 1 del puerto c (CLK_
                            RE1_RC1).-|
                      00632                         ;NULL
                      00633 
010F   3037           00634                         MOVLW NNN;                                      Genera la constante N y la carga
                             al registro de trabajo (w).
0110   0086           00635                         MOVWF PORTB;                            Carga el dato del registro w al puerto b
                            .
0111   1107           00636                         BCF PORTC,CLK_RE2_RC2;          Pone en 0 la salida del bit 2 del puerto c (CLK_
                            RE2_RC2).-|
                      00637                                                                                                         
                                                                                                                    ;--}--> 
0112   1507           00638                         BSF PORTC,CLK_RE2_RC2;          Pone en 1 la salida del bit 2 del puerto c (CLK_
                            RE2_RC2).-|
                      00639                         ;N
                      00640 
0113   3037           00641                         MOVLW NNN;                                      Genera la constante N y la carga
                             al registro de trabajo (w).
0114   0086           00642                         MOVWF PORTB;                            Carga el dato del registro w al puerto b
                            .
0115   1187           00643                         BCF PORTC,CLK_RE3_RC3;          Pone en 0 la salida del bit 3 del puerto c (CLK_
                            RE3_RC3).-|
                      00644                                                                                                         
                                                                                                                    ;--}--> 
0116   1587           00645                         BSF PORTC,CLK_RE3_RC3;          Pone en 1 la salida del bit 3 del puerto c (CLK_
                            RE3_RC3).-|
                      00646                         ;N
                      00647 
0117   3077           00648                         MOVLW A;                                        Genera la constante A y la carga
                             al registro de trabajo (w).
0118   0086           00649                         MOVWF PORTB;                            Carga el dato del registro w al puerto b
                            .
MPASM  5.30.01                     DISPLAYS2.ASM   10-27-2023  14:28:06         PAGE 19


LOC  OBJECT CODE     LINE SOURCE TEXT
  VALUE

0119   1207           00650                         BCF PORTC,CLK_RE4_RC4;          Pone en 0 la salida del bit 4 del puerto c (CLK_
                            RE4_RC4).-|
                      00651                                                                                                         
                                                                                                                    ;--}--> 
011A   1607           00652                         BSF PORTC,CLK_RE4_RC4;          Pone en 1 la salida del bit 4 del puerto c (CLK_
                            RE4_RC4).-|
                      00653                         ;A
                      00654 
011B   3037           00655                         MOVLW NNN;                                      Genera la constante N y la carga
                             al registro de trabajo (w).
011C   0086           00656                         MOVWF PORTB;                            Carga el dato del registro w al puerto b
                            .
011D   1287           00657                         BCF PORTC,CLK_RE5_RC5;          Pone en 0 la salida del bit 5 del puerto c (CLK_
                            RE5_RC5).-|
                      00658                                                                                                         
                                                                                                                    ;--}--> 
011E   1687           00659                         BSF PORTC,CLK_RE5_RC5;          Pone en 1 la salida del bit 5 del puerto c (CLK_
                            RE5_RC5).-|
                      00660                         ;N
                      00661 
011F   3010           00662                         MOVLW I;                                        Genera la constante i y la carga
                             al registro de trabajo (w).
0120   0086           00663                         MOVWF PORTB;                            Carga el dato del registro w al puerto b
                            .
0121   1307           00664                         BCF PORTC,CLK_RE6_RC6;          Pone en 0 la salida del bit 6 del puerto c (CLK_
                            RE6_RC6).-|
                      00665                                                                                                         
                                                                                                                    ;--}--> 
0122   1707           00666                         BSF PORTC,CLK_RE6_RC6;          Pone en 1 la salida del bit 6 del puerto c (CLK_
                            RE6_RC6).-|
                      00667                         ;i
                      00668                         
0123   3073           00669                         MOVLW PP;                                       Genera la constante P y la carga
                             al registro de trabajo (w).
0124   0086           00670                         MOVWF PORTB;                            Carga el dato del registro w al puerto b
                            .
0125   1387           00671                         BCF PORTC,CLK_RE7_RC7;          Pone en 0 la salida del bit 7 del puerto c (CLK_
                            RE7_RC7).-|
                      00672                                                                                                         
                                                                                                                    ;--}--> 
0126   1787           00673                         BSF PORTC,CLK_RE7_RC7;          Pone en 1 la salida del bit 7 del puerto c (CLK_
                            RE7_RC7).-|
                      00674                         ;P                      
0127   2420           00675                         CALL RETARDO;
                      00676 
                      00677 ;Novena Palabra                                                 dE_di5P1
                      00678 
0128   305E           00679                         MOVLW DD;                                       Genera la constante d y la carga
                             al registro de trabajo (w).
0129   0086           00680                         MOVWF PORTB;                            Carga el dato del registro w al puerto b
                            .
012A   1007           00681                         BCF PORTC,CLK_RE0_RC0;          Pone en 0 la salida del bit 0 del puerto c (CLK_
                            RE0_RC0).-|
MPASM  5.30.01                     DISPLAYS2.ASM   10-27-2023  14:28:06         PAGE 20


LOC  OBJECT CODE     LINE SOURCE TEXT
  VALUE

                      00682                                                                                                         
                                                                                                                    ;--}--> 
012B   1407           00683                         BSF PORTC,CLK_RE0_RC0;          Pone en 1 la salida del bit 0 del puerto c (CLK_
                            RE0_RC0).-|
                      00684                         ;d
                      00685 
012C   3079           00686                         MOVLW E;                                        Genera la constante E y la carga
                             al registro de trabajo (w).
012D   0086           00687                         MOVWF PORTB;                            Carga el dato del registro w al puerto b
                            .
012E   1087           00688                         BCF PORTC,CLK_RE1_RC1;          Pone en 0 la salida del bit 1 del puerto c (CLK_
                            RE1_RC1).-|
                      00689                                                                                                         
                                                                                                                    ;--}--> 
012F   1487           00690                         BSF PORTC,CLK_RE1_RC1;          Pone en 1 la salida del bit 1 del puerto c (CLK_
                            RE1_RC1).-|
                      00691                         ;E
                      00692 
0130   3000           00693                         MOVLW NULL;                                     Genera la constante N y la carga
                             al registro de trabajo (w).
0131   0086           00694                         MOVWF PORTB;                            Carga el dato del registro w al puerto b
                            .
0132   1107           00695                         BCF PORTC,CLK_RE2_RC2;          Pone en 0 la salida del bit 2 del puerto c (CLK_
                            RE2_RC2).-|
                      00696                                                                                                         
                                                                                                                    ;--}--> 
0133   1507           00697                         BSF PORTC,CLK_RE2_RC2;          Pone en 1 la salida del bit 2 del puerto c (CLK_
                            RE2_RC2).-|
                      00698                         ;NULL
                      00699 
0134   305E           00700                         MOVLW DD;                                       Genera la constante N y la carga
                             al registro de trabajo (w).
0135   0086           00701                         MOVWF PORTB;                            Carga el dato del registro w al puerto b
                            .
0136   1187           00702                         BCF PORTC,CLK_RE3_RC3;          Pone en 0 la salida del bit 3 del puerto c (CLK_
                            RE3_RC3).-|
                      00703                                                                                                         
                                                                                                                    ;--}--> 
0137   1587           00704                         BSF PORTC,CLK_RE3_RC3;          Pone en 1 la salida del bit 3 del puerto c (CLK_
                            RE3_RC3).-|
                      00705                         ;d
                      00706 
0138   3010           00707                         MOVLW I;                                        Genera la constante A y la carga
                             al registro de trabajo (w).
0139   0086           00708                         MOVWF PORTB;                            Carga el dato del registro w al puerto b
                            .
013A   1207           00709                         BCF PORTC,CLK_RE4_RC4;          Pone en 0 la salida del bit 4 del puerto c (CLK_
                            RE4_RC4).-|
                      00710                                                                                                         
                                                                                                                    ;--}--> 
013B   1607           00711                         BSF PORTC,CLK_RE4_RC4;          Pone en 1 la salida del bit 4 del puerto c (CLK_
                            RE4_RC4).-|
                      00712                         ;i
MPASM  5.30.01                     DISPLAYS2.ASM   10-27-2023  14:28:06         PAGE 21


LOC  OBJECT CODE     LINE SOURCE TEXT
  VALUE

                      00713 
013C   306D           00714                         MOVLW CINCO_5;                                  Genera la constante N y la carga
                             al registro de trabajo (w).
013D   0086           00715                         MOVWF PORTB;                            Carga el dato del registro w al puerto b
                            .
013E   1287           00716                         BCF PORTC,CLK_RE5_RC5;          Pone en 0 la salida del bit 5 del puerto c (CLK_
                            RE5_RC5).-|
                      00717                                                                                                         
                                                                                                                    ;--}--> 
013F   1687           00718                         BSF PORTC,CLK_RE5_RC5;          Pone en 1 la salida del bit 5 del puerto c (CLK_
                            RE5_RC5).-|
                      00719                         ;5
                      00720 
0140   3073           00721                         MOVLW PP;                                       Genera la constante i y la carga
                             al registro de trabajo (w).
0141   0086           00722                         MOVWF PORTB;                            Carga el dato del registro w al puerto b
                            .
0142   1307           00723                         BCF PORTC,CLK_RE6_RC6;          Pone en 0 la salida del bit 6 del puerto c (CLK_
                            RE6_RC6).-|
                      00724                                                                                                         
                                                                                                                    ;--}--> 
0143   1707           00725                         BSF PORTC,CLK_RE6_RC6;          Pone en 1 la salida del bit 6 del puerto c (CLK_
                            RE6_RC6).-|
                      00726                         ;P
                      00727                         
0144   3006           00728                         MOVLW UNO_1;                            Genera la constante P y la carga al regi
                            stro de trabajo (w).
0145   0086           00729                         MOVWF PORTB;                            Carga el dato del registro w al puerto b
                            .
0146   1387           00730                         BCF PORTC,CLK_RE7_RC7;          Pone en 0 la salida del bit 7 del puerto c (CLK_
                            RE7_RC7).-|
                      00731                                                                                                         
                                                                                                                    ;--}--> 
0147   1787           00732                         BSF PORTC,CLK_RE7_RC7;          Pone en 1 la salida del bit 7 del puerto c (CLK_
                            RE7_RC7).-|
                      00733                         ;1                      
                      00734 
0148   2420           00735                         CALL RETARDO;
                      00736 
                      00737 
                      00738 ;Decima Palabra                                                 Por_nnic
                      00739 
0149   3073           00740                         MOVLW PP;                                       Genera la constante d y la carga
                             al registro de trabajo (w).
014A   0086           00741                         MOVWF PORTB;                            Carga el dato del registro w al puerto b
                            .
014B   1007           00742                         BCF PORTC,CLK_RE0_RC0;          Pone en 0 la salida del bit 0 del puerto c (CLK_
                            RE0_RC0).-|
                      00743                                                                                                         
                                                                                                                    ;--}--> 
014C   1407           00744                         BSF PORTC,CLK_RE0_RC0;          Pone en 1 la salida del bit 0 del puerto c (CLK_
                            RE0_RC0).-|
                      00745                         ;p
MPASM  5.30.01                     DISPLAYS2.ASM   10-27-2023  14:28:06         PAGE 22


LOC  OBJECT CODE     LINE SOURCE TEXT
  VALUE

                      00746 
014D   305C           00747                         MOVLW O;                                        Genera la constante E y la carga
                             al registro de trabajo (w).
014E   0086           00748                         MOVWF PORTB;                            Carga el dato del registro w al puerto b
                            .
014F   1087           00749                         BCF PORTC,CLK_RE1_RC1;          Pone en 0 la salida del bit 1 del puerto c (CLK_
                            RE1_RC1).-|
                      00750                                                                                                         
                                                                                                                    ;--}--> 
0150   1487           00751                         BSF PORTC,CLK_RE1_RC1;          Pone en 1 la salida del bit 1 del puerto c (CLK_
                            RE1_RC1).-|
                      00752                         ;o
                      00753 
0151   3050           00754                         MOVLW RR;                                       Genera la constante N y la carga
                             al registro de trabajo (w).
0152   0086           00755                         MOVWF PORTB;                            Carga el dato del registro w al puerto b
                            .
0153   1107           00756                         BCF PORTC,CLK_RE2_RC2;          Pone en 0 la salida del bit 2 del puerto c (CLK_
                            RE2_RC2).-|
                      00757                                                                                                         
                                                                                                                    ;--}--> 
0154   1507           00758                         BSF PORTC,CLK_RE2_RC2;          Pone en 1 la salida del bit 2 del puerto c (CLK_
                            RE2_RC2).-|
                      00759                         ;r
                      00760 
0155   3000           00761                         MOVLW NULL;                                     Genera la constante N y la carga
                             al registro de trabajo (w).
0156   0086           00762                         MOVWF PORTB;                            Carga el dato del registro w al puerto b
                            .
0157   1187           00763                         BCF PORTC,CLK_RE3_RC3;          Pone en 0 la salida del bit 3 del puerto c (CLK_
                            RE3_RC3).-|
                      00764                                                                                                         
                                                                                                                    ;--}--> 
0158   1587           00765                         BSF PORTC,CLK_RE3_RC3;          Pone en 1 la salida del bit 3 del puerto c (CLK_
                            RE3_RC3).-|
                      00766                         ;_
                      00767 
0159   3054           00768                         MOVLW NN;                                       Genera la constante A y la carga
                             al registro de trabajo (w).
015A   0086           00769                         MOVWF PORTB;                            Carga el dato del registro w al puerto b
                            .
015B   1207           00770                         BCF PORTC,CLK_RE4_RC4;          Pone en 0 la salida del bit 4 del puerto c (CLK_
                            RE4_RC4).-|
                      00771                                                                                                         
                                                                                                                    ;--}--> 
015C   1607           00772                         BSF PORTC,CLK_RE4_RC4;          Pone en 1 la salida del bit 4 del puerto c (CLK_
                            RE4_RC4).-|
                      00773                         ;n
                      00774 
015D   3054           00775                         MOVLW NN;                                       Genera la constante N y la carga
                             al registro de trabajo (w).
015E   0086           00776                         MOVWF PORTB;                            Carga el dato del registro w al puerto b
                            .
MPASM  5.30.01                     DISPLAYS2.ASM   10-27-2023  14:28:06         PAGE 23


LOC  OBJECT CODE     LINE SOURCE TEXT
  VALUE

015F   1287           00777                         BCF PORTC,CLK_RE5_RC5;          Pone en 0 la salida del bit 5 del puerto c (CLK_
                            RE5_RC5).-|
                      00778                                                                                                         
                                                                                                                    ;--}--> 
0160   1687           00779                         BSF PORTC,CLK_RE5_RC5;          Pone en 1 la salida del bit 5 del puerto c (CLK_
                            RE5_RC5).-|
                      00780                         ;n
                      00781 
0161   3010           00782                         MOVLW I;                                        Genera la constante i y la carga
                             al registro de trabajo (w).
0162   0086           00783                         MOVWF PORTB;                            Carga el dato del registro w al puerto b
                            .
0163   1307           00784                         BCF PORTC,CLK_RE6_RC6;          Pone en 0 la salida del bit 6 del puerto c (CLK_
                            RE6_RC6).-|
                      00785                                                                                                         
                                                                                                                    ;--}--> 
0164   1707           00786                         BSF PORTC,CLK_RE6_RC6;          Pone en 1 la salida del bit 6 del puerto c (CLK_
                            RE6_RC6).-|
                      00787                         ;i
                      00788                         
0165   3058           00789                         MOVLW C_0;                              Genera la constante P y la carga al regi
                            stro de trabajo (w).
0166   0086           00790                         MOVWF PORTB;                            Carga el dato del registro w al puerto b
                            .
0167   1387           00791                         BCF PORTC,CLK_RE7_RC7;          Pone en 0 la salida del bit 7 del puerto c (CLK_
                            RE7_RC7).-|
                      00792                                                                                                         
                                                                                                                    ;--}--> 
0168   1787           00793                         BSF PORTC,CLK_RE7_RC7;          Pone en 1 la salida del bit 7 del puerto c (CLK_
                            RE7_RC7).-|
                      00794                         ;c                      
                      00795 
0169   2420           00796                         CALL RETARDO;
                      00797 
                      00798                         ;Onceava Palabra                        controla                                
                      00799 
016A   3058           00800                         MOVLW C_0;                                      Genera la constante d y la carga
                             al registro de trabajo (w).
016B   0086           00801                         MOVWF PORTB;                            Carga el dato del registro w al puerto b
                            .
016C   1007           00802                         BCF PORTC,CLK_RE0_RC0;          Pone en 0 la salida del bit 0 del puerto c (CLK_
                            RE0_RC0).-|
                      00803                                                                                                         
                                                                                                                    ;--}--> 
016D   1407           00804                         BSF PORTC,CLK_RE0_RC0;          Pone en 1 la salida del bit 0 del puerto c (CLK_
                            RE0_RC0).-|
                      00805                         ;c
                      00806 
016E   305C           00807                         MOVLW O;                                        Genera la constante E y la carga
                             al registro de trabajo (w).
016F   0086           00808                         MOVWF PORTB;                            Carga el dato del registro w al puerto b
                            .
0170   1087           00809                         BCF PORTC,CLK_RE1_RC1;          Pone en 0 la salida del bit 1 del puerto c (CLK_
MPASM  5.30.01                     DISPLAYS2.ASM   10-27-2023  14:28:06         PAGE 24


LOC  OBJECT CODE     LINE SOURCE TEXT
  VALUE

                            RE1_RC1).-|
                      00810                                                                                                         
                                                                                                                    ;--}--> 
0171   1487           00811                         BSF PORTC,CLK_RE1_RC1;          Pone en 1 la salida del bit 1 del puerto c (CLK_
                            RE1_RC1).-|
                      00812                         ;o
                      00813 
0172   3054           00814                         MOVLW NN;                                       Genera la constante N y la carga
                             al registro de trabajo (w).
0173   0086           00815                         MOVWF PORTB;                            Carga el dato del registro w al puerto b
                            .
0174   1107           00816                         BCF PORTC,CLK_RE2_RC2;          Pone en 0 la salida del bit 2 del puerto c (CLK_
                            RE2_RC2).-|
                      00817                                                                                                         
                                                                                                                    ;--}--> 
0175   1507           00818                         BSF PORTC,CLK_RE2_RC2;          Pone en 1 la salida del bit 2 del puerto c (CLK_
                            RE2_RC2).-|
                      00819                         ;n
                      00820 
0176   3078           00821                         MOVLW T;                                        Genera la constante N y la carga
                             al registro de trabajo (w).
0177   0086           00822                         MOVWF PORTB;                            Carga el dato del registro w al puerto b
                            .
0178   1187           00823                         BCF PORTC,CLK_RE3_RC3;          Pone en 0 la salida del bit 3 del puerto c (CLK_
                            RE3_RC3).-|
                      00824                                                                                                         
                                                                                                                    ;--}--> 
0179   1587           00825                         BSF PORTC,CLK_RE3_RC3;          Pone en 1 la salida del bit 3 del puerto c (CLK_
                            RE3_RC3).-|
                      00826                         ;t
                      00827 
017A   3050           00828                         MOVLW RR;                                       Genera la constante A y la carga
                             al registro de trabajo (w).
017B   0086           00829                         MOVWF PORTB;                            Carga el dato del registro w al puerto b
                            .
017C   1207           00830                         BCF PORTC,CLK_RE4_RC4;          Pone en 0 la salida del bit 4 del puerto c (CLK_
                            RE4_RC4).-|
                      00831                                                                                                         
                                                                                                                    ;--}--> 
017D   1607           00832                         BSF PORTC,CLK_RE4_RC4;          Pone en 1 la salida del bit 4 del puerto c (CLK_
                            RE4_RC4).-|
                      00833                         ;r
                      00834 
017E   305C           00835                         MOVLW O;                                        Genera la constante N y la carga
                             al registro de trabajo (w).
017F   0086           00836                         MOVWF PORTB;                            Carga el dato del registro w al puerto b
                            .
0180   1287           00837                         BCF PORTC,CLK_RE5_RC5;          Pone en 0 la salida del bit 5 del puerto c (CLK_
                            RE5_RC5).-|
                      00838                                                                                                         
                                                                                                                    ;--}--> 
0181   1687           00839                         BSF PORTC,CLK_RE5_RC5;          Pone en 1 la salida del bit 5 del puerto c (CLK_
                            RE5_RC5).-|
MPASM  5.30.01                     DISPLAYS2.ASM   10-27-2023  14:28:06         PAGE 25


LOC  OBJECT CODE     LINE SOURCE TEXT
  VALUE

                      00840                         ;o
                      00841 
0182   3001           00842                         MOVLW 1;                                        Genera la constante i y la carga
                             al registro de trabajo (w).
0183   0086           00843                         MOVWF PORTB;                            Carga el dato del registro w al puerto b
                            .
0184   1307           00844                         BCF PORTC,CLK_RE6_RC6;          Pone en 0 la salida del bit 6 del puerto c (CLK_
                            RE6_RC6).-|
                      00845                                                                                                         
                                                                                                                    ;--}--> 
0185   1707           00846                         BSF PORTC,CLK_RE6_RC6;          Pone en 1 la salida del bit 6 del puerto c (CLK_
                            RE6_RC6).-|
                      00847                         ;1
                      00848                         
0186   3077           00849                         MOVLW A;                                Genera la constante P y la carga al regi
                            stro de trabajo (w).
0187   0086           00850                         MOVWF PORTB;                            Carga el dato del registro w al puerto b
                            .
0188   1387           00851                         BCF PORTC,CLK_RE7_RC7;          Pone en 0 la salida del bit 7 del puerto c (CLK_
                            RE7_RC7).-|
                      00852                                                                                                         
                                                                                                                    ;--}--> 
0189   1787           00853                         BSF PORTC,CLK_RE7_RC7;          Pone en 1 la salida del bit 7 del puerto c (CLK_
                            RE7_RC7).-|
                      00854                         ;c                      
                      00855 
018A   2420           00856                         CALL RETARDO;
                      00857 
                      00858                         ;Doceava Palabra                        contro1a                                
                      00859 
018B   3058           00860                         MOVLW C_0;                                      Genera la constante d y la carga
                             al registro de trabajo (w).
018C   0086           00861                         MOVWF PORTB;                            Carga el dato del registro w al puerto b
                            .
018D   1007           00862                         BCF PORTC,CLK_RE0_RC0;          Pone en 0 la salida del bit 0 del puerto c (CLK_
                            RE0_RC0).-|
                      00863                                                                                                         
                                                                                                                    ;--}--> 
018E   1407           00864                         BSF PORTC,CLK_RE0_RC0;          Pone en 1 la salida del bit 0 del puerto c (CLK_
                            RE0_RC0).-|
                      00865                         ;c
                      00866 
018F   305C           00867                         MOVLW O;                                        Genera la constante E y la carga
                             al registro de trabajo (w).
0190   0086           00868                         MOVWF PORTB;                            Carga el dato del registro w al puerto b
                            .
0191   1087           00869                         BCF PORTC,CLK_RE1_RC1;          Pone en 0 la salida del bit 1 del puerto c (CLK_
                            RE1_RC1).-|
                      00870                                                                                                         
                                                                                                                    ;--}--> 
0192   1487           00871                         BSF PORTC,CLK_RE1_RC1;          Pone en 1 la salida del bit 1 del puerto c (CLK_
                            RE1_RC1).-|
                      00872                         ;o
MPASM  5.30.01                     DISPLAYS2.ASM   10-27-2023  14:28:06         PAGE 26


LOC  OBJECT CODE     LINE SOURCE TEXT
  VALUE

                      00873 
0193   3054           00874                         MOVLW NN;                                       Genera la constante N y la carga
                             al registro de trabajo (w).
0194   0086           00875                         MOVWF PORTB;                            Carga el dato del registro w al puerto b
                            .
0195   1107           00876                         BCF PORTC,CLK_RE2_RC2;          Pone en 0 la salida del bit 2 del puerto c (CLK_
                            RE2_RC2).-|
                      00877                                                                                                         
                                                                                                                    ;--}--> 
0196   1507           00878                         BSF PORTC,CLK_RE2_RC2;          Pone en 1 la salida del bit 2 del puerto c (CLK_
                            RE2_RC2).-|
                      00879                         ;n
                      00880 
0197   3078           00881                         MOVLW T;                                        Genera la constante N y la carga
                             al registro de trabajo (w).
0198   0086           00882                         MOVWF PORTB;                            Carga el dato del registro w al puerto b
                            .
0199   1187           00883                         BCF PORTC,CLK_RE3_RC3;          Pone en 0 la salida del bit 3 del puerto c (CLK_
                            RE3_RC3).-|
                      00884                                                                                                         
                                                                                                                    ;--}--> 
019A   1587           00885                         BSF PORTC,CLK_RE3_RC3;          Pone en 1 la salida del bit 3 del puerto c (CLK_
                            RE3_RC3).-|
                      00886                         ;t
                      00887 
019B   3050           00888                         MOVLW RR;                                       Genera la constante A y la carga
                             al registro de trabajo (w).
019C   0086           00889                         MOVWF PORTB;                            Carga el dato del registro w al puerto b
                            .
019D   1207           00890                         BCF PORTC,CLK_RE4_RC4;          Pone en 0 la salida del bit 4 del puerto c (CLK_
                            RE4_RC4).-|
                      00891                                                                                                         
                                                                                                                    ;--}--> 
019E   1607           00892                         BSF PORTC,CLK_RE4_RC4;          Pone en 1 la salida del bit 4 del puerto c (CLK_
                            RE4_RC4).-|
                      00893                         ;r
                      00894 
019F   305C           00895                         MOVLW O;                                        Genera la constante N y la carga
                             al registro de trabajo (w).
01A0   0086           00896                         MOVWF PORTB;                            Carga el dato del registro w al puerto b
                            .
01A1   1287           00897                         BCF PORTC,CLK_RE5_RC5;          Pone en 0 la salida del bit 5 del puerto c (CLK_
                            RE5_RC5).-|
                      00898                                                                                                         
                                                                                                                    ;--}--> 
01A2   1687           00899                         BSF PORTC,CLK_RE5_RC5;          Pone en 1 la salida del bit 5 del puerto c (CLK_
                            RE5_RC5).-|
                      00900                         ;o
                      00901 
01A3   3006           00902                         MOVLW UNO_1;                                    Genera la constante i y la carga
                             al registro de trabajo (w).
01A4   0086           00903                         MOVWF PORTB;                            Carga el dato del registro w al puerto b
                            .
MPASM  5.30.01                     DISPLAYS2.ASM   10-27-2023  14:28:06         PAGE 27


LOC  OBJECT CODE     LINE SOURCE TEXT
  VALUE

01A5   1307           00904                         BCF PORTC,CLK_RE6_RC6;          Pone en 0 la salida del bit 6 del puerto c (CLK_
                            RE6_RC6).-|
                      00905                                                                                                         
                                                                                                                    ;--}--> 
01A6   1707           00906                         BSF PORTC,CLK_RE6_RC6;          Pone en 1 la salida del bit 6 del puerto c (CLK_
                            RE6_RC6).-|
                      00907                         ;1
                      00908                         
01A7   3077           00909                         MOVLW A;                                Genera la constante P y la carga al regi
                            stro de trabajo (w).
01A8   0086           00910                         MOVWF PORTB;                            Carga el dato del registro w al puerto b
                            .
01A9   1387           00911                         BCF PORTC,CLK_RE7_RC7;          Pone en 0 la salida del bit 7 del puerto c (CLK_
                            RE7_RC7).-|
                      00912                                                                                                         
                                                                                                                    ;--}--> 
01AA   1787           00913                         BSF PORTC,CLK_RE7_RC7;          Pone en 1 la salida del bit 7 del puerto c (CLK_
                            RE7_RC7).-|
                      00914                         ;c                      
                      00915 
01AB   2420           00916                         CALL RETARDO;
                      00917 
                      00918                         ;Treceava Palabra                       6rupo                           
                      00919 
01AC   307D           00920                         MOVLW SEIS_6;                                   Genera la constante d y la carga
                             al registro de trabajo (w).
01AD   0086           00921                         MOVWF PORTB;                            Carga el dato del registro w al puerto b
                            .
01AE   1007           00922                         BCF PORTC,CLK_RE0_RC0;          Pone en 0 la salida del bit 0 del puerto c (CLK_
                            RE0_RC0).-|
                      00923                                                                                                         
                                                                                                                    ;--}--> 
01AF   1407           00924                         BSF PORTC,CLK_RE0_RC0;          Pone en 1 la salida del bit 0 del puerto c (CLK_
                            RE0_RC0).-|
                      00925                         ;6
                      00926 
01B0   3050           00927                         MOVLW RR;                                       Genera la constante E y la carga
                             al registro de trabajo (w).
01B1   0086           00928                         MOVWF PORTB;                            Carga el dato del registro w al puerto b
                            .
01B2   1087           00929                         BCF PORTC,CLK_RE1_RC1;          Pone en 0 la salida del bit 1 del puerto c (CLK_
                            RE1_RC1).-|
                      00930                                                                                                         
                                                                                                                    ;--}--> 
01B3   1487           00931                         BSF PORTC,CLK_RE1_RC1;          Pone en 1 la salida del bit 1 del puerto c (CLK_
                            RE1_RC1).-|
                      00932                         ;r
                      00933 
01B4   301C           00934                         MOVLW UU;                                       Genera la constante N y la carga
                             al registro de trabajo (w).
01B5   0086           00935                         MOVWF PORTB;                            Carga el dato del registro w al puerto b
                            .
01B6   1107           00936                         BCF PORTC,CLK_RE2_RC2;          Pone en 0 la salida del bit 2 del puerto c (CLK_
MPASM  5.30.01                     DISPLAYS2.ASM   10-27-2023  14:28:06         PAGE 28


LOC  OBJECT CODE     LINE SOURCE TEXT
  VALUE

                            RE2_RC2).-|
                      00937                                                                                                         
                                                                                                                    ;--}--> 
01B7   1507           00938                         BSF PORTC,CLK_RE2_RC2;          Pone en 1 la salida del bit 2 del puerto c (CLK_
                            RE2_RC2).-|
                      00939                         ;u
                      00940 
01B8   3073           00941                         MOVLW PP;                                       Genera la constante N y la carga
                             al registro de trabajo (w).
01B9   0086           00942                         MOVWF PORTB;                            Carga el dato del registro w al puerto b
                            .
01BA   1187           00943                         BCF PORTC,CLK_RE3_RC3;          Pone en 0 la salida del bit 3 del puerto c (CLK_
                            RE3_RC3).-|
                      00944                                                                                                         
                                                                                                                    ;--}--> 
01BB   1587           00945                         BSF PORTC,CLK_RE3_RC3;          Pone en 1 la salida del bit 3 del puerto c (CLK_
                            RE3_RC3).-|
                      00946                         ;p
                      00947 
01BC   305C           00948                         MOVLW O;                                        Genera la constante A y la carga
                             al registro de trabajo (w).
01BD   0086           00949                         MOVWF PORTB;                            Carga el dato del registro w al puerto b
                            .
01BE   1207           00950                         BCF PORTC,CLK_RE4_RC4;          Pone en 0 la salida del bit 4 del puerto c (CLK_
                            RE4_RC4).-|
                      00951                                                                                                         
                                                                                                                    ;--}--> 
01BF   1607           00952                         BSF PORTC,CLK_RE4_RC4;          Pone en 1 la salida del bit 4 del puerto c (CLK_
                            RE4_RC4).-|
                      00953                         ;o
                      00954 
01C0   3000           00955                         MOVLW NULL;                                     Genera la constante N y la carga
                             al registro de trabajo (w).
01C1   0086           00956                         MOVWF PORTB;                            Carga el dato del registro w al puerto b
                            .
01C2   1287           00957                         BCF PORTC,CLK_RE5_RC5;          Pone en 0 la salida del bit 5 del puerto c (CLK_
                            RE5_RC5).-|
                      00958                                                                                                         
                                                                                                                    ;--}--> 
01C3   1687           00959                         BSF PORTC,CLK_RE5_RC5;          Pone en 1 la salida del bit 5 del puerto c (CLK_
                            RE5_RC5).-|
                      00960                         ;_
                      00961 
01C4   3000           00962                         MOVLW NULL;                                     Genera la constante i y la carga
                             al registro de trabajo (w).
01C5   0086           00963                         MOVWF PORTB;                            Carga el dato del registro w al puerto b
                            .
01C6   1307           00964                         BCF PORTC,CLK_RE6_RC6;          Pone en 0 la salida del bit 6 del puerto c (CLK_
                            RE6_RC6).-|
                      00965                                                                                                         
                                                                                                                    ;--}--> 
01C7   1707           00966                         BSF PORTC,CLK_RE6_RC6;          Pone en 1 la salida del bit 6 del puerto c (CLK_
                            RE6_RC6).-|
MPASM  5.30.01                     DISPLAYS2.ASM   10-27-2023  14:28:06         PAGE 29


LOC  OBJECT CODE     LINE SOURCE TEXT
  VALUE

                      00967                         ;_
                      00968                         
01C8   3000           00969                         MOVLW NULL;                             Genera la constante P y la carga al regi
                            stro de trabajo (w).
01C9   0086           00970                         MOVWF PORTB;                            Carga el dato del registro w al puerto b
                            .
01CA   1387           00971                         BCF PORTC,CLK_RE7_RC7;          Pone en 0 la salida del bit 7 del puerto c (CLK_
                            RE7_RC7).-|
                      00972                                                                                                         
                                                                                                                    ;--}--> 
01CB   1787           00973                         BSF PORTC,CLK_RE7_RC7;          Pone en 1 la salida del bit 7 del puerto c (CLK_
                            RE7_RC7).-|
                      00974                         ;_                      
                      00975 
01CC   2420           00976                         CALL RETARDO;
                      00977 
                      00978 
                      00979                         ;Catorceava Palabra                     5inn1                           
                      00980 
01CD   306D           00981                         MOVLW CINCO_5;                                  Genera la constante d y la carga
                             al registro de trabajo (w).
01CE   0086           00982                         MOVWF PORTB;                            Carga el dato del registro w al puerto b
                            .
01CF   1007           00983                         BCF PORTC,CLK_RE0_RC0;          Pone en 0 la salida del bit 0 del puerto c (CLK_
                            RE0_RC0).-|
                      00984                                                                                                         
                                                                                                                    ;--}--> 
01D0   1407           00985                         BSF PORTC,CLK_RE0_RC0;          Pone en 1 la salida del bit 0 del puerto c (CLK_
                            RE0_RC0).-|
                      00986                         ;5
                      00987 
01D1   3010           00988                         MOVLW I;                                        Genera la constante E y la carga
                             al registro de trabajo (w).
01D2   0086           00989                         MOVWF PORTB;                            Carga el dato del registro w al puerto b
                            .
01D3   1087           00990                         BCF PORTC,CLK_RE1_RC1;          Pone en 0 la salida del bit 1 del puerto c (CLK_
                            RE1_RC1).-|
                      00991                                                                                                         
                                                                                                                    ;--}--> 
01D4   1487           00992                         BSF PORTC,CLK_RE1_RC1;          Pone en 1 la salida del bit 1 del puerto c (CLK_
                            RE1_RC1).-|
                      00993                         ;i
                      00994 
01D5   3054           00995                         MOVLW NN;                                       Genera la constante N y la carga
                             al registro de trabajo (w).
01D6   0086           00996                         MOVWF PORTB;                            Carga el dato del registro w al puerto b
                            .
01D7   1107           00997                         BCF PORTC,CLK_RE2_RC2;          Pone en 0 la salida del bit 2 del puerto c (CLK_
                            RE2_RC2).-|
                      00998                                                                                                         
                                                                                                                    ;--}--> 
01D8   1507           00999                         BSF PORTC,CLK_RE2_RC2;          Pone en 1 la salida del bit 2 del puerto c (CLK_
                            RE2_RC2).-|
MPASM  5.30.01                     DISPLAYS2.ASM   10-27-2023  14:28:06         PAGE 30


LOC  OBJECT CODE     LINE SOURCE TEXT
  VALUE

                      01000                         ;n
                      01001 
01D9   3054           01002                         MOVLW NN;                                       Genera la constante N y la carga
                             al registro de trabajo (w).
01DA   0086           01003                         MOVWF PORTB;                            Carga el dato del registro w al puerto b
                            .
01DB   1187           01004                         BCF PORTC,CLK_RE3_RC3;          Pone en 0 la salida del bit 3 del puerto c (CLK_
                            RE3_RC3).-|
                      01005                                                                                                         
                                                                                                                    ;--}--> 
01DC   1587           01006                         BSF PORTC,CLK_RE3_RC3;          Pone en 1 la salida del bit 3 del puerto c (CLK_
                            RE3_RC3).-|
                      01007                         ;n
                      01008 
01DD   3006           01009                         MOVLW UNO_1;                                    Genera la constante A y la carga
                             al registro de trabajo (w).
01DE   0086           01010                         MOVWF PORTB;                            Carga el dato del registro w al puerto b
                            .
01DF   1207           01011                         BCF PORTC,CLK_RE4_RC4;          Pone en 0 la salida del bit 4 del puerto c (CLK_
                            RE4_RC4).-|
                      01012                                                                                                         
                                                                                                                    ;--}--> 
01E0   1607           01013                         BSF PORTC,CLK_RE4_RC4;          Pone en 1 la salida del bit 4 del puerto c (CLK_
                            RE4_RC4).-|
                      01014                         ;1
                      01015 
01E1   3000           01016                         MOVLW NULL;                                     Genera la constante N y la carga
                             al registro de trabajo (w).
01E2   0086           01017                         MOVWF PORTB;                            Carga el dato del registro w al puerto b
                            .
01E3   1287           01018                         BCF PORTC,CLK_RE5_RC5;          Pone en 0 la salida del bit 5 del puerto c (CLK_
                            RE5_RC5).-|
                      01019                                                                                                         
                                                                                                                    ;--}--> 
01E4   1687           01020                         BSF PORTC,CLK_RE5_RC5;          Pone en 1 la salida del bit 5 del puerto c (CLK_
                            RE5_RC5).-|
                      01021                         ;_
                      01022 
01E5   3000           01023                         MOVLW NULL;                                     Genera la constante i y la carga
                             al registro de trabajo (w).
01E6   0086           01024                         MOVWF PORTB;                            Carga el dato del registro w al puerto b
                            .
01E7   1307           01025                         BCF PORTC,CLK_RE6_RC6;          Pone en 0 la salida del bit 6 del puerto c (CLK_
                            RE6_RC6).-|
                      01026                                                                                                         
                                                                                                                    ;--}--> 
01E8   1707           01027                         BSF PORTC,CLK_RE6_RC6;          Pone en 1 la salida del bit 6 del puerto c (CLK_
                            RE6_RC6).-|
                      01028                         ;_
                      01029                         
01E9   3000           01030                         MOVLW NULL;                             Genera la constante P y la carga al regi
                            stro de trabajo (w).
01EA   0086           01031                         MOVWF PORTB;                            Carga el dato del registro w al puerto b
MPASM  5.30.01                     DISPLAYS2.ASM   10-27-2023  14:28:06         PAGE 31


LOC  OBJECT CODE     LINE SOURCE TEXT
  VALUE

                            .
01EB   1387           01032                         BCF PORTC,CLK_RE7_RC7;          Pone en 0 la salida del bit 7 del puerto c (CLK_
                            RE7_RC7).-|
                      01033                                                                                                         
                                                                                                                    ;--}--> 
01EC   1787           01034                         BSF PORTC,CLK_RE7_RC7;          Pone en 1 la salida del bit 7 del puerto c (CLK_
                            RE7_RC7).-|
                      01035                         ;_                      
                      01036 
01ED   2420           01037                         CALL RETARDO;
                      01038 
                      01039 
                      01040                         ;Quinceava Palabra                      Equipo_2                                
                      01041 
01EE   3079           01042                         MOVLW E;                                        Genera la constante d y la carga
                             al registro de trabajo (w).
01EF   0086           01043                         MOVWF PORTB;                            Carga el dato del registro w al puerto b
                            .
01F0   1007           01044                         BCF PORTC,CLK_RE0_RC0;          Pone en 0 la salida del bit 0 del puerto c (CLK_
                            RE0_RC0).-|
                      01045                                                                                                         
                                                                                                                    ;--}--> 
01F1   1407           01046                         BSF PORTC,CLK_RE0_RC0;          Pone en 1 la salida del bit 0 del puerto c (CLK_
                            RE0_RC0).-|
                      01047                         ;E
                      01048 
01F2   306F           01049                         MOVLW NUEVE_9;                                  Genera la constante E y la carga
                             al registro de trabajo (w).
01F3   0086           01050                         MOVWF PORTB;                            Carga el dato del registro w al puerto b
                            .
01F4   1087           01051                         BCF PORTC,CLK_RE1_RC1;          Pone en 0 la salida del bit 1 del puerto c (CLK_
                            RE1_RC1).-|
                      01052                                                                                                         
                                                                                                                    ;--}--> 
01F5   1487           01053                         BSF PORTC,CLK_RE1_RC1;          Pone en 1 la salida del bit 1 del puerto c (CLK_
                            RE1_RC1).-|
                      01054                         ;9
                      01055 
01F6   301C           01056                         MOVLW UU;                                       Genera la constante N y la carga
                             al registro de trabajo (w).
01F7   0086           01057                         MOVWF PORTB;                            Carga el dato del registro w al puerto b
                            .
01F8   1107           01058                         BCF PORTC,CLK_RE2_RC2;          Pone en 0 la salida del bit 2 del puerto c (CLK_
                            RE2_RC2).-|
                      01059                                                                                                         
                                                                                                                    ;--}--> 
01F9   1507           01060                         BSF PORTC,CLK_RE2_RC2;          Pone en 1 la salida del bit 2 del puerto c (CLK_
                            RE2_RC2).-|
                      01061                         ;u
                      01062 
01FA   3010           01063                         MOVLW I;                                        Genera la constante N y la carga
                             al registro de trabajo (w).
01FB   0086           01064                         MOVWF PORTB;                            Carga el dato del registro w al puerto b
MPASM  5.30.01                     DISPLAYS2.ASM   10-27-2023  14:28:06         PAGE 32


LOC  OBJECT CODE     LINE SOURCE TEXT
  VALUE

                            .
01FC   1187           01065                         BCF PORTC,CLK_RE3_RC3;          Pone en 0 la salida del bit 3 del puerto c (CLK_
                            RE3_RC3).-|
                      01066                                                                                                         
                                                                                                                    ;--}--> 
01FD   1587           01067                         BSF PORTC,CLK_RE3_RC3;          Pone en 1 la salida del bit 3 del puerto c (CLK_
                            RE3_RC3).-|
                      01068                         ;i
                      01069 
01FE   3073           01070                         MOVLW PP;                                       Genera la constante A y la carga
                             al registro de trabajo (w).
01FF   0086           01071                         MOVWF PORTB;                            Carga el dato del registro w al puerto b
                            .
0200   1207           01072                         BCF PORTC,CLK_RE4_RC4;          Pone en 0 la salida del bit 4 del puerto c (CLK_
                            RE4_RC4).-|
                      01073                                                                                                         
                                                                                                                    ;--}--> 
0201   1607           01074                         BSF PORTC,CLK_RE4_RC4;          Pone en 1 la salida del bit 4 del puerto c (CLK_
                            RE4_RC4).-|
                      01075                         ;p
                      01076 
0202   305C           01077                         MOVLW O;                                        Genera la constante N y la carga
                             al registro de trabajo (w).
0203   0086           01078                         MOVWF PORTB;                            Carga el dato del registro w al puerto b
                            .
0204   1287           01079                         BCF PORTC,CLK_RE5_RC5;          Pone en 0 la salida del bit 5 del puerto c (CLK_
                            RE5_RC5).-|
                      01080                                                                                                         
                                                                                                                    ;--}--> 
0205   1687           01081                         BSF PORTC,CLK_RE5_RC5;          Pone en 1 la salida del bit 5 del puerto c (CLK_
                            RE5_RC5).-|
                      01082                         ;o
                      01083 
0206   3000           01084                         MOVLW NULL;                                     Genera la constante i y la carga
                             al registro de trabajo (w).
0207   0086           01085                         MOVWF PORTB;                            Carga el dato del registro w al puerto b
                            .
0208   1307           01086                         BCF PORTC,CLK_RE6_RC6;          Pone en 0 la salida del bit 6 del puerto c (CLK_
                            RE6_RC6).-|
                      01087                                                                                                         
                                                                                                                    ;--}--> 
0209   1707           01088                         BSF PORTC,CLK_RE6_RC6;          Pone en 1 la salida del bit 6 del puerto c (CLK_
                            RE6_RC6).-|
                      01089                         ;_
                      01090                         
020A   305B           01091                         MOVLW DOS_2;                            Genera la constante P y la carga al regi
                            stro de trabajo (w).
020B   0086           01092                         MOVWF PORTB;                            Carga el dato del registro w al puerto b
                            .
020C   1387           01093                         BCF PORTC,CLK_RE7_RC7;          Pone en 0 la salida del bit 7 del puerto c (CLK_
                            RE7_RC7).-|
                      01094                                                                                                         
                                                                                                                    ;--}--> 
MPASM  5.30.01                     DISPLAYS2.ASM   10-27-2023  14:28:06         PAGE 33


LOC  OBJECT CODE     LINE SOURCE TEXT
  VALUE

020D   1787           01095                         BSF PORTC,CLK_RE7_RC7;          Pone en 1 la salida del bit 7 del puerto c (CLK_
                            RE7_RC7).-|
                      01096                         ;2                      
                      01097 
020E   2420           01098                         CALL RETARDO;
                      01099 
                      01100 
                      01101                         ;Dieciseisava Palabra           1ntegran                                
                      01102 
020F   3006           01103                         MOVLW UNO_1;                                    Genera la constante d y la carga
                             al registro de trabajo (w).
0210   0086           01104                         MOVWF PORTB;                            Carga el dato del registro w al puerto b
                            .
0211   1007           01105                         BCF PORTC,CLK_RE0_RC0;          Pone en 0 la salida del bit 0 del puerto c (CLK_
                            RE0_RC0).-|
                      01106                                                                                                         
                                                                                                                    ;--}--> 
0212   1407           01107                         BSF PORTC,CLK_RE0_RC0;          Pone en 1 la salida del bit 0 del puerto c (CLK_
                            RE0_RC0).-|
                      01108                         ;1
                      01109 
0213   3054           01110                         MOVLW NN;                                       Genera la constante E y la carga
                             al registro de trabajo (w).
0214   0086           01111                         MOVWF PORTB;                            Carga el dato del registro w al puerto b
                            .
0215   1087           01112                         BCF PORTC,CLK_RE1_RC1;          Pone en 0 la salida del bit 1 del puerto c (CLK_
                            RE1_RC1).-|
                      01113                                                                                                         
                                                                                                                    ;--}--> 
0216   1487           01114                         BSF PORTC,CLK_RE1_RC1;          Pone en 1 la salida del bit 1 del puerto c (CLK_
                            RE1_RC1).-|
                      01115                         ;n
                      01116 
0217   3078           01117                         MOVLW T;                                        Genera la constante N y la carga
                             al registro de trabajo (w).
0218   0086           01118                         MOVWF PORTB;                            Carga el dato del registro w al puerto b
                            .
0219   1107           01119                         BCF PORTC,CLK_RE2_RC2;          Pone en 0 la salida del bit 2 del puerto c (CLK_
                            RE2_RC2).-|
                      01120                                                                                                         
                                                                                                                    ;--}--> 
021A   1507           01121                         BSF PORTC,CLK_RE2_RC2;          Pone en 1 la salida del bit 2 del puerto c (CLK_
                            RE2_RC2).-|
                      01122                         ;t
                      01123 
021B   3079           01124                         MOVLW E;                                        Genera la constante N y la carga
                             al registro de trabajo (w).
021C   0086           01125                         MOVWF PORTB;                            Carga el dato del registro w al puerto b
                            .
021D   1187           01126                         BCF PORTC,CLK_RE3_RC3;          Pone en 0 la salida del bit 3 del puerto c (CLK_
                            RE3_RC3).-|
                      01127                                                                                                         
                                                                                                                    ;--}--> 
MPASM  5.30.01                     DISPLAYS2.ASM   10-27-2023  14:28:06         PAGE 34


LOC  OBJECT CODE     LINE SOURCE TEXT
  VALUE

021E   1587           01128                         BSF PORTC,CLK_RE3_RC3;          Pone en 1 la salida del bit 3 del puerto c (CLK_
                            RE3_RC3).-|
                      01129                         ;e
                      01130 
021F   307D           01131                         MOVLW SEIS_6;                                   Genera la constante A y la carga
                             al registro de trabajo (w).
0220   0086           01132                         MOVWF PORTB;                            Carga el dato del registro w al puerto b
                            .
0221   1207           01133                         BCF PORTC,CLK_RE4_RC4;          Pone en 0 la salida del bit 4 del puerto c (CLK_
                            RE4_RC4).-|
                      01134                                                                                                         
                                                                                                                    ;--}--> 
0222   1607           01135                         BSF PORTC,CLK_RE4_RC4;          Pone en 1 la salida del bit 4 del puerto c (CLK_
                            RE4_RC4).-|
                      01136                         ;6
                      01137 
0223   3050           01138                         MOVLW RR;                                       Genera la constante N y la carga
                             al registro de trabajo (w).
0224   0086           01139                         MOVWF PORTB;                            Carga el dato del registro w al puerto b
                            .
0225   1287           01140                         BCF PORTC,CLK_RE5_RC5;          Pone en 0 la salida del bit 5 del puerto c (CLK_
                            RE5_RC5).-|
                      01141                                                                                                         
                                                                                                                    ;--}--> 
0226   1687           01142                         BSF PORTC,CLK_RE5_RC5;          Pone en 1 la salida del bit 5 del puerto c (CLK_
                            RE5_RC5).-|
                      01143                         ;r
                      01144 
0227   3077           01145                         MOVLW A;                                        Genera la constante i y la carga
                             al registro de trabajo (w).
0228   0086           01146                         MOVWF PORTB;                            Carga el dato del registro w al puerto b
                            .
0229   1307           01147                         BCF PORTC,CLK_RE6_RC6;          Pone en 0 la salida del bit 6 del puerto c (CLK_
                            RE6_RC6).-|
                      01148                                                                                                         
                                                                                                                    ;--}--> 
022A   1707           01149                         BSF PORTC,CLK_RE6_RC6;          Pone en 1 la salida del bit 6 del puerto c (CLK_
                            RE6_RC6).-|
                      01150                         ;a
                      01151                         
022B   3054           01152                         MOVLW NN;                               Genera la constante P y la carga al regi
                            stro de trabajo (w).
022C   0086           01153                         MOVWF PORTB;                            Carga el dato del registro w al puerto b
                            .
022D   1387           01154                         BCF PORTC,CLK_RE7_RC7;          Pone en 0 la salida del bit 7 del puerto c (CLK_
                            RE7_RC7).-|
                      01155                                                                                                         
                                                                                                                    ;--}--> 
022E   1787           01156                         BSF PORTC,CLK_RE7_RC7;          Pone en 1 la salida del bit 7 del puerto c (CLK_
                            RE7_RC7).-|
                      01157                         ;n                      
                      01158 
022F   2420           01159                         CALL RETARDO;
MPASM  5.30.01                     DISPLAYS2.ASM   10-27-2023  14:28:06         PAGE 35


LOC  OBJECT CODE     LINE SOURCE TEXT
  VALUE

                      01160 
                      01161 
                      01162                         ;Diecisieteava Palabra          nnaRtinE                                
                      01163 
0230   3054           01164                         MOVLW NN;                                       Genera la constante d y la carga
                             al registro de trabajo (w).
0231   0086           01165                         MOVWF PORTB;                            Carga el dato del registro w al puerto b
                            .
0232   1007           01166                         BCF PORTC,CLK_RE0_RC0;          Pone en 0 la salida del bit 0 del puerto c (CLK_
                            RE0_RC0).-|
                      01167                                                                                                         
                                                                                                                    ;--}--> 
0233   1407           01168                         BSF PORTC,CLK_RE0_RC0;          Pone en 1 la salida del bit 0 del puerto c (CLK_
                            RE0_RC0).-|
                      01169                         ;n
                      01170 
0234   3054           01171                         MOVLW NN;                                       Genera la constante E y la carga
                             al registro de trabajo (w).
0235   0086           01172                         MOVWF PORTB;                            Carga el dato del registro w al puerto b
                            .
0236   1087           01173                         BCF PORTC,CLK_RE1_RC1;          Pone en 0 la salida del bit 1 del puerto c (CLK_
                            RE1_RC1).-|
                      01174                                                                                                         
                                                                                                                    ;--}--> 
0237   1487           01175                         BSF PORTC,CLK_RE1_RC1;          Pone en 1 la salida del bit 1 del puerto c (CLK_
                            RE1_RC1).-|
                      01176                         ;n
                      01177 
0238   3077           01178                         MOVLW A;                                        Genera la constante N y la carga
                             al registro de trabajo (w).
0239   0086           01179                         MOVWF PORTB;                            Carga el dato del registro w al puerto b
                            .
023A   1107           01180                         BCF PORTC,CLK_RE2_RC2;          Pone en 0 la salida del bit 2 del puerto c (CLK_
                            RE2_RC2).-|
                      01181                                                                                                         
                                                                                                                    ;--}--> 
023B   1507           01182                         BSF PORTC,CLK_RE2_RC2;          Pone en 1 la salida del bit 2 del puerto c (CLK_
                            RE2_RC2).-|
                      01183                         ;a
                      01184 
023C   3050           01185                         MOVLW RR;                                       Genera la constante N y la carga
                             al registro de trabajo (w).
023D   0086           01186                         MOVWF PORTB;                            Carga el dato del registro w al puerto b
                            .
023E   1187           01187                         BCF PORTC,CLK_RE3_RC3;          Pone en 0 la salida del bit 3 del puerto c (CLK_
                            RE3_RC3).-|
                      01188                                                                                                         
                                                                                                                    ;--}--> 
023F   1587           01189                         BSF PORTC,CLK_RE3_RC3;          Pone en 1 la salida del bit 3 del puerto c (CLK_
                            RE3_RC3).-|
                      01190                         ;r
                      01191 
0240   3078           01192                         MOVLW T;                                        Genera la constante A y la carga
MPASM  5.30.01                     DISPLAYS2.ASM   10-27-2023  14:28:06         PAGE 36


LOC  OBJECT CODE     LINE SOURCE TEXT
  VALUE

                             al registro de trabajo (w).
0241   0086           01193                         MOVWF PORTB;                            Carga el dato del registro w al puerto b
                            .
0242   1207           01194                         BCF PORTC,CLK_RE4_RC4;          Pone en 0 la salida del bit 4 del puerto c (CLK_
                            RE4_RC4).-|
                      01195                                                                                                         
                                                                                                                    ;--}--> 
0243   1607           01196                         BSF PORTC,CLK_RE4_RC4;          Pone en 1 la salida del bit 4 del puerto c (CLK_
                            RE4_RC4).-|
                      01197                         ;t
                      01198 
0244   3010           01199                         MOVLW I;                                        Genera la constante N y la carga
                             al registro de trabajo (w).
0245   0086           01200                         MOVWF PORTB;                            Carga el dato del registro w al puerto b
                            .
0246   1287           01201                         BCF PORTC,CLK_RE5_RC5;          Pone en 0 la salida del bit 5 del puerto c (CLK_
                            RE5_RC5).-|
                      01202                                                                                                         
                                                                                                                    ;--}--> 
0247   1687           01203                         BSF PORTC,CLK_RE5_RC5;          Pone en 1 la salida del bit 5 del puerto c (CLK_
                            RE5_RC5).-|
                      01204                         ;i
                      01205 
0248   3054           01206                         MOVLW NN;                                       Genera la constante i y la carga
                             al registro de trabajo (w).
0249   0086           01207                         MOVWF PORTB;                            Carga el dato del registro w al puerto b
                            .
024A   1307           01208                         BCF PORTC,CLK_RE6_RC6;          Pone en 0 la salida del bit 6 del puerto c (CLK_
                            RE6_RC6).-|
                      01209                                                                                                         
                                                                                                                    ;--}--> 
024B   1707           01210                         BSF PORTC,CLK_RE6_RC6;          Pone en 1 la salida del bit 6 del puerto c (CLK_
                            RE6_RC6).-|
                      01211                         ;n
                      01212                         
024C   3079           01213                         MOVLW E;                                Genera la constante P y la carga al regi
                            stro de trabajo (w).
024D   0086           01214                         MOVWF PORTB;                            Carga el dato del registro w al puerto b
                            .
024E   1387           01215                         BCF PORTC,CLK_RE7_RC7;          Pone en 0 la salida del bit 7 del puerto c (CLK_
                            RE7_RC7).-|
                      01216                                                                                                         
                                                                                                                    ;--}--> 
024F   1787           01217                         BSF PORTC,CLK_RE7_RC7;          Pone en 1 la salida del bit 7 del puerto c (CLK_
                            RE7_RC7).-|
                      01218                         ;e                      
                      01219 
0250   2420           01220                         CALL RETARDO;
                      01221 
                      01222 
                      01223                         ;Diesciochoava Palabra          o5oRio                          
                      01224 
0251   305C           01225                         MOVLW O;                                        Genera la constante d y la carga
MPASM  5.30.01                     DISPLAYS2.ASM   10-27-2023  14:28:06         PAGE 37


LOC  OBJECT CODE     LINE SOURCE TEXT
  VALUE

                             al registro de trabajo (w).
0252   0086           01226                         MOVWF PORTB;                            Carga el dato del registro w al puerto b
                            .
0253   1007           01227                         BCF PORTC,CLK_RE0_RC0;          Pone en 0 la salida del bit 0 del puerto c (CLK_
                            RE0_RC0).-|
                      01228                                                                                                         
                                                                                                                    ;--}--> 
0254   1407           01229                         BSF PORTC,CLK_RE0_RC0;          Pone en 1 la salida del bit 0 del puerto c (CLK_
                            RE0_RC0).-|
                      01230                         ;o
                      01231 
0255   306D           01232                         MOVLW CINCO_5;                                  Genera la constante E y la carga
                             al registro de trabajo (w).
0256   0086           01233                         MOVWF PORTB;                            Carga el dato del registro w al puerto b
                            .
0257   1087           01234                         BCF PORTC,CLK_RE1_RC1;          Pone en 0 la salida del bit 1 del puerto c (CLK_
                            RE1_RC1).-|
                      01235                                                                                                         
                                                                                                                    ;--}--> 
0258   1487           01236                         BSF PORTC,CLK_RE1_RC1;          Pone en 1 la salida del bit 1 del puerto c (CLK_
                            RE1_RC1).-|
                      01237                         ;5
                      01238 
0259   305C           01239                         MOVLW O;                                        Genera la constante N y la carga
                             al registro de trabajo (w).
025A   0086           01240                         MOVWF PORTB;                            Carga el dato del registro w al puerto b
                            .
025B   1107           01241                         BCF PORTC,CLK_RE2_RC2;          Pone en 0 la salida del bit 2 del puerto c (CLK_
                            RE2_RC2).-|
                      01242                                                                                                         
                                                                                                                    ;--}--> 
025C   1507           01243                         BSF PORTC,CLK_RE2_RC2;          Pone en 1 la salida del bit 2 del puerto c (CLK_
                            RE2_RC2).-|
                      01244                         ;o
                      01245 
025D   3050           01246                         MOVLW RR;                                       Genera la constante N y la carga
                             al registro de trabajo (w).
025E   0086           01247                         MOVWF PORTB;                            Carga el dato del registro w al puerto b
                            .
025F   1187           01248                         BCF PORTC,CLK_RE3_RC3;          Pone en 0 la salida del bit 3 del puerto c (CLK_
                            RE3_RC3).-|
                      01249                                                                                                         
                                                                                                                    ;--}--> 
0260   1587           01250                         BSF PORTC,CLK_RE3_RC3;          Pone en 1 la salida del bit 3 del puerto c (CLK_
                            RE3_RC3).-|
                      01251                         ;R
                      01252 
0261   3010           01253                         MOVLW I;                                        Genera la constante A y la carga
                             al registro de trabajo (w).
0262   0086           01254                         MOVWF PORTB;                            Carga el dato del registro w al puerto b
                            .
0263   1207           01255                         BCF PORTC,CLK_RE4_RC4;          Pone en 0 la salida del bit 4 del puerto c (CLK_
                            RE4_RC4).-|
MPASM  5.30.01                     DISPLAYS2.ASM   10-27-2023  14:28:06         PAGE 38


LOC  OBJECT CODE     LINE SOURCE TEXT
  VALUE

                      01256                                                                                                         
                                                                                                                    ;--}--> 
0264   1607           01257                         BSF PORTC,CLK_RE4_RC4;          Pone en 1 la salida del bit 4 del puerto c (CLK_
                            RE4_RC4).-|
                      01258                         ;i
                      01259 
0265   305C           01260                         MOVLW O;                                        Genera la constante N y la carga
                             al registro de trabajo (w).
0266   0086           01261                         MOVWF PORTB;                            Carga el dato del registro w al puerto b
                            .
0267   1287           01262                         BCF PORTC,CLK_RE5_RC5;          Pone en 0 la salida del bit 5 del puerto c (CLK_
                            RE5_RC5).-|
                      01263                                                                                                         
                                                                                                                    ;--}--> 
0268   1687           01264                         BSF PORTC,CLK_RE5_RC5;          Pone en 1 la salida del bit 5 del puerto c (CLK_
                            RE5_RC5).-|
                      01265                         ;o
                      01266 
0269   3000           01267                         MOVLW NULL;                                     Genera la constante i y la carga
                             al registro de trabajo (w).
026A   0086           01268                         MOVWF PORTB;                            Carga el dato del registro w al puerto b
                            .
026B   1307           01269                         BCF PORTC,CLK_RE6_RC6;          Pone en 0 la salida del bit 6 del puerto c (CLK_
                            RE6_RC6).-|
                      01270                                                                                                         
                                                                                                                    ;--}--> 
026C   1707           01271                         BSF PORTC,CLK_RE6_RC6;          Pone en 1 la salida del bit 6 del puerto c (CLK_
                            RE6_RC6).-|
                      01272                         ;_
                      01273                         
026D   3000           01274                         MOVLW NULL;                             Genera la constante P y la carga al regi
                            stro de trabajo (w).
026E   0086           01275                         MOVWF PORTB;                            Carga el dato del registro w al puerto b
                            .
026F   1387           01276                         BCF PORTC,CLK_RE7_RC7;          Pone en 0 la salida del bit 7 del puerto c (CLK_
                            RE7_RC7).-|
                      01277                                                                                                         
                                                                                                                    ;--}--> 
0270   1787           01278                         BSF PORTC,CLK_RE7_RC7;          Pone en 1 la salida del bit 7 del puerto c (CLK_
                            RE7_RC7).-|
                      01279                         ;_                      
                      01280 
0271   2420           01281                         CALL RETARDO;
                      01282 
                      01283 
                      01284                         ;Diesinueveava Palabra          nni6ue1                         
                      01285 
0272   3054           01286                         MOVLW NN;                                       Genera la constante d y la carga
                             al registro de trabajo (w).
0273   0086           01287                         MOVWF PORTB;                            Carga el dato del registro w al puerto b
                            .
0274   1007           01288                         BCF PORTC,CLK_RE0_RC0;          Pone en 0 la salida del bit 0 del puerto c (CLK_
                            RE0_RC0).-|
MPASM  5.30.01                     DISPLAYS2.ASM   10-27-2023  14:28:06         PAGE 39


LOC  OBJECT CODE     LINE SOURCE TEXT
  VALUE

                      01289                                                                                                         
                                                                                                                    ;--}--> 
0275   1407           01290                         BSF PORTC,CLK_RE0_RC0;          Pone en 1 la salida del bit 0 del puerto c (CLK_
                            RE0_RC0).-|
                      01291                         ;n
                      01292 
0276   3054           01293                         MOVLW NN;                                       Genera la constante E y la carga
                             al registro de trabajo (w).
0277   0086           01294                         MOVWF PORTB;                            Carga el dato del registro w al puerto b
                            .
0278   1087           01295                         BCF PORTC,CLK_RE1_RC1;          Pone en 0 la salida del bit 1 del puerto c (CLK_
                            RE1_RC1).-|
                      01296                                                                                                         
                                                                                                                    ;--}--> 
0279   1487           01297                         BSF PORTC,CLK_RE1_RC1;          Pone en 1 la salida del bit 1 del puerto c (CLK_
                            RE1_RC1).-|
                      01298                         ;n
                      01299 
027A   3010           01300                         MOVLW I;                                        Genera la constante N y la carga
                             al registro de trabajo (w).
027B   0086           01301                         MOVWF PORTB;                            Carga el dato del registro w al puerto b
                            .
027C   1107           01302                         BCF PORTC,CLK_RE2_RC2;          Pone en 0 la salida del bit 2 del puerto c (CLK_
                            RE2_RC2).-|
                      01303                                                                                                         
                                                                                                                    ;--}--> 
027D   1507           01304                         BSF PORTC,CLK_RE2_RC2;          Pone en 1 la salida del bit 2 del puerto c (CLK_
                            RE2_RC2).-|
                      01305                         ;i
                      01306 
027E   307D           01307                         MOVLW SEIS_6;                                   Genera la constante N y la carga
                             al registro de trabajo (w).
027F   0086           01308                         MOVWF PORTB;                            Carga el dato del registro w al puerto b
                            .
0280   1187           01309                         BCF PORTC,CLK_RE3_RC3;          Pone en 0 la salida del bit 3 del puerto c (CLK_
                            RE3_RC3).-|
                      01310                                                                                                         
                                                                                                                    ;--}--> 
0281   1587           01311                         BSF PORTC,CLK_RE3_RC3;          Pone en 1 la salida del bit 3 del puerto c (CLK_
                            RE3_RC3).-|
                      01312                         ;6
                      01313 
0282   301C           01314                         MOVLW UU;                                       Genera la constante A y la carga
                             al registro de trabajo (w).
0283   0086           01315                         MOVWF PORTB;                            Carga el dato del registro w al puerto b
                            .
0284   1207           01316                         BCF PORTC,CLK_RE4_RC4;          Pone en 0 la salida del bit 4 del puerto c (CLK_
                            RE4_RC4).-|
                      01317                                                                                                         
                                                                                                                    ;--}--> 
0285   1607           01318                         BSF PORTC,CLK_RE4_RC4;          Pone en 1 la salida del bit 4 del puerto c (CLK_
                            RE4_RC4).-|
                      01319                         ;u
MPASM  5.30.01                     DISPLAYS2.ASM   10-27-2023  14:28:06         PAGE 40


LOC  OBJECT CODE     LINE SOURCE TEXT
  VALUE

                      01320 
0286   3079           01321                         MOVLW E;                                        Genera la constante N y la carga
                             al registro de trabajo (w).
0287   0086           01322                         MOVWF PORTB;                            Carga el dato del registro w al puerto b
                            .
0288   1287           01323                         BCF PORTC,CLK_RE5_RC5;          Pone en 0 la salida del bit 5 del puerto c (CLK_
                            RE5_RC5).-|
                      01324                                                                                                         
                                                                                                                    ;--}--> 
0289   1687           01325                         BSF PORTC,CLK_RE5_RC5;          Pone en 1 la salida del bit 5 del puerto c (CLK_
                            RE5_RC5).-|
                      01326                         ;E
                      01327 
028A   3006           01328                         MOVLW UNO_1;                                    Genera la constante i y la carga
                             al registro de trabajo (w).
028B   0086           01329                         MOVWF PORTB;                            Carga el dato del registro w al puerto b
                            .
028C   1307           01330                         BCF PORTC,CLK_RE6_RC6;          Pone en 0 la salida del bit 6 del puerto c (CLK_
                            RE6_RC6).-|
                      01331                                                                                                         
                                                                                                                    ;--}--> 
028D   1707           01332                         BSF PORTC,CLK_RE6_RC6;          Pone en 1 la salida del bit 6 del puerto c (CLK_
                            RE6_RC6).-|
                      01333                         ;1
                      01334                         
028E   3000           01335                         MOVLW NULL;                             Genera la constante P y la carga al regi
                            stro de trabajo (w).
028F   0086           01336                         MOVWF PORTB;                            Carga el dato del registro w al puerto b
                            .
0290   1387           01337                         BCF PORTC,CLK_RE7_RC7;          Pone en 0 la salida del bit 7 del puerto c (CLK_
                            RE7_RC7).-|
                      01338                                                                                                         
                                                                                                                    ;--}--> 
0291   1787           01339                         BSF PORTC,CLK_RE7_RC7;          Pone en 1 la salida del bit 7 del puerto c (CLK_
                            RE7_RC7).-|
                      01340                         ;_                      
                      01341 
0292   2420           01342                         CALL RETARDO;
                      01343                         ;Treceava Palabra                       An6e1                           
                      01344 
0293   3077           01345                         MOVLW A;                                        Genera la constante d y la carga
                             al registro de trabajo (w).
0294   0086           01346                         MOVWF PORTB;                            Carga el dato del registro w al puerto b
                            .
0295   1007           01347                         BCF PORTC,CLK_RE0_RC0;          Pone en 0 la salida del bit 0 del puerto c (CLK_
                            RE0_RC0).-|
                      01348                                                                                                         
                                                                                                                    ;--}--> 
0296   1407           01349                         BSF PORTC,CLK_RE0_RC0;          Pone en 1 la salida del bit 0 del puerto c (CLK_
                            RE0_RC0).-|
                      01350                         ;A
                      01351 
0297   3054           01352                         MOVLW NN;                                       Genera la constante E y la carga
MPASM  5.30.01                     DISPLAYS2.ASM   10-27-2023  14:28:06         PAGE 41


LOC  OBJECT CODE     LINE SOURCE TEXT
  VALUE

                             al registro de trabajo (w).
0298   0086           01353                         MOVWF PORTB;                            Carga el dato del registro w al puerto b
                            .
0299   1087           01354                         BCF PORTC,CLK_RE1_RC1;          Pone en 0 la salida del bit 1 del puerto c (CLK_
                            RE1_RC1).-|
                      01355                                                                                                         
                                                                                                                    ;--}--> 
029A   1487           01356                         BSF PORTC,CLK_RE1_RC1;          Pone en 1 la salida del bit 1 del puerto c (CLK_
                            RE1_RC1).-|
                      01357                         ;n
                      01358 
029B   307D           01359                         MOVLW SEIS_6;                                   Genera la constante N y la carga
                             al registro de trabajo (w).
029C   0086           01360                         MOVWF PORTB;                            Carga el dato del registro w al puerto b
                            .
029D   1107           01361                         BCF PORTC,CLK_RE2_RC2;          Pone en 0 la salida del bit 2 del puerto c (CLK_
                            RE2_RC2).-|
                      01362                                                                                                         
                                                                                                                    ;--}--> 
029E   1507           01363                         BSF PORTC,CLK_RE2_RC2;          Pone en 1 la salida del bit 2 del puerto c (CLK_
                            RE2_RC2).-|
                      01364                         ;6
                      01365 
029F   3079           01366                         MOVLW E;                                        Genera la constante N y la carga
                             al registro de trabajo (w).
02A0   0086           01367                         MOVWF PORTB;                            Carga el dato del registro w al puerto b
                            .
02A1   1187           01368                         BCF PORTC,CLK_RE3_RC3;          Pone en 0 la salida del bit 3 del puerto c (CLK_
                            RE3_RC3).-|
                      01369                                                                                                         
                                                                                                                    ;--}--> 
02A2   1587           01370                         BSF PORTC,CLK_RE3_RC3;          Pone en 1 la salida del bit 3 del puerto c (CLK_
                            RE3_RC3).-|
                      01371                         ;E
                      01372 
02A3   3006           01373                         MOVLW UNO_1;                                    Genera la constante A y la carga
                             al registro de trabajo (w).
02A4   0086           01374                         MOVWF PORTB;                            Carga el dato del registro w al puerto b
                            .
02A5   1207           01375                         BCF PORTC,CLK_RE4_RC4;          Pone en 0 la salida del bit 4 del puerto c (CLK_
                            RE4_RC4).-|
                      01376                                                                                                         
                                                                                                                    ;--}--> 
02A6   1607           01377                         BSF PORTC,CLK_RE4_RC4;          Pone en 1 la salida del bit 4 del puerto c (CLK_
                            RE4_RC4).-|
                      01378                         ;1
                      01379 
02A7   3000           01380                         MOVLW NULL;                                     Genera la constante N y la carga
                             al registro de trabajo (w).
02A8   0086           01381                         MOVWF PORTB;                            Carga el dato del registro w al puerto b
                            .
02A9   1287           01382                         BCF PORTC,CLK_RE5_RC5;          Pone en 0 la salida del bit 5 del puerto c (CLK_
                            RE5_RC5).-|
MPASM  5.30.01                     DISPLAYS2.ASM   10-27-2023  14:28:06         PAGE 42


LOC  OBJECT CODE     LINE SOURCE TEXT
  VALUE

                      01383                                                                                                         
                                                                                                                    ;--}--> 
02AA   1687           01384                         BSF PORTC,CLK_RE5_RC5;          Pone en 1 la salida del bit 5 del puerto c (CLK_
                            RE5_RC5).-|
                      01385                         ;_
                      01386 
02AB   3000           01387                         MOVLW NULL;                                     Genera la constante i y la carga
                             al registro de trabajo (w).
02AC   0086           01388                         MOVWF PORTB;                            Carga el dato del registro w al puerto b
                            .
02AD   1307           01389                         BCF PORTC,CLK_RE6_RC6;          Pone en 0 la salida del bit 6 del puerto c (CLK_
                            RE6_RC6).-|
                      01390                                                                                                         
                                                                                                                    ;--}--> 
02AE   1707           01391                         BSF PORTC,CLK_RE6_RC6;          Pone en 1 la salida del bit 6 del puerto c (CLK_
                            RE6_RC6).-|
                      01392                         ;_
                      01393                         
02AF   3000           01394                         MOVLW NULL;                             Genera la constante P y la carga al regi
                            stro de trabajo (w).
02B0   0086           01395                         MOVWF PORTB;                            Carga el dato del registro w al puerto b
                            .
02B1   1387           01396                         BCF PORTC,CLK_RE7_RC7;          Pone en 0 la salida del bit 7 del puerto c (CLK_
                            RE7_RC7).-|
                      01397                                                                                                         
                                                                                                                    ;--}--> 
02B2   1787           01398                         BSF PORTC,CLK_RE7_RC7;          Pone en 1 la salida del bit 7 del puerto c (CLK_
                            RE7_RC7).-|
                      01399                         ;_                      
                      01400 
02B3   2420           01401                         CALL RETARDO;
                      01402 
                      01403 
                      01404                         ;Veinteava Palabra                      LoPE2                           
                      01405 
02B4   3038           01406                         MOVLW LL;                                       Genera la constante d y la carga
                             al registro de trabajo (w).
02B5   0086           01407                         MOVWF PORTB;                            Carga el dato del registro w al puerto b
                            .
02B6   1007           01408                         BCF PORTC,CLK_RE0_RC0;          Pone en 0 la salida del bit 0 del puerto c (CLK_
                            RE0_RC0).-|
                      01409                                                                                                         
                                                                                                                    ;--}--> 
02B7   1407           01410                         BSF PORTC,CLK_RE0_RC0;          Pone en 1 la salida del bit 0 del puerto c (CLK_
                            RE0_RC0).-|
                      01411                         ;L
                      01412 
02B8   305C           01413                         MOVLW O;                                        Genera la constante E y la carga
                             al registro de trabajo (w).
02B9   0086           01414                         MOVWF PORTB;                            Carga el dato del registro w al puerto b
                            .
02BA   1087           01415                         BCF PORTC,CLK_RE1_RC1;          Pone en 0 la salida del bit 1 del puerto c (CLK_
                            RE1_RC1).-|
MPASM  5.30.01                     DISPLAYS2.ASM   10-27-2023  14:28:06         PAGE 43


LOC  OBJECT CODE     LINE SOURCE TEXT
  VALUE

                      01416                                                                                                         
                                                                                                                    ;--}--> 
02BB   1487           01417                         BSF PORTC,CLK_RE1_RC1;          Pone en 1 la salida del bit 1 del puerto c (CLK_
                            RE1_RC1).-|
                      01418                         ;o
                      01419 
02BC   3073           01420                         MOVLW PP;                                       Genera la constante N y la carga
                             al registro de trabajo (w).
02BD   0086           01421                         MOVWF PORTB;                            Carga el dato del registro w al puerto b
                            .
02BE   1107           01422                         BCF PORTC,CLK_RE2_RC2;          Pone en 0 la salida del bit 2 del puerto c (CLK_
                            RE2_RC2).-|
                      01423                                                                                                         
                                                                                                                    ;--}--> 
02BF   1507           01424                         BSF PORTC,CLK_RE2_RC2;          Pone en 1 la salida del bit 2 del puerto c (CLK_
                            RE2_RC2).-|
                      01425                         ;p
                      01426 
02C0   3079           01427                         MOVLW E;                                        Genera la constante N y la carga
                             al registro de trabajo (w).
02C1   0086           01428                         MOVWF PORTB;                            Carga el dato del registro w al puerto b
                            .
02C2   1187           01429                         BCF PORTC,CLK_RE3_RC3;          Pone en 0 la salida del bit 3 del puerto c (CLK_
                            RE3_RC3).-|
                      01430                                                                                                         
                                                                                                                    ;--}--> 
02C3   1587           01431                         BSF PORTC,CLK_RE3_RC3;          Pone en 1 la salida del bit 3 del puerto c (CLK_
                            RE3_RC3).-|
                      01432                         ;E
                      01433 
02C4   305B           01434                         MOVLW DOS_2;                                    Genera la constante A y la carga
                             al registro de trabajo (w).
02C5   0086           01435                         MOVWF PORTB;                            Carga el dato del registro w al puerto b
                            .
02C6   1207           01436                         BCF PORTC,CLK_RE4_RC4;          Pone en 0 la salida del bit 4 del puerto c (CLK_
                            RE4_RC4).-|
                      01437                                                                                                         
                                                                                                                    ;--}--> 
02C7   1607           01438                         BSF PORTC,CLK_RE4_RC4;          Pone en 1 la salida del bit 4 del puerto c (CLK_
                            RE4_RC4).-|
                      01439                         ;2
                      01440 
02C8   3000           01441                         MOVLW NULL;                                     Genera la constante N y la carga
                             al registro de trabajo (w).
02C9   0086           01442                         MOVWF PORTB;                            Carga el dato del registro w al puerto b
                            .
02CA   1287           01443                         BCF PORTC,CLK_RE5_RC5;          Pone en 0 la salida del bit 5 del puerto c (CLK_
                            RE5_RC5).-|
                      01444                                                                                                         
                                                                                                                    ;--}--> 
02CB   1687           01445                         BSF PORTC,CLK_RE5_RC5;          Pone en 1 la salida del bit 5 del puerto c (CLK_
                            RE5_RC5).-|
                      01446                         ;_
MPASM  5.30.01                     DISPLAYS2.ASM   10-27-2023  14:28:06         PAGE 44


LOC  OBJECT CODE     LINE SOURCE TEXT
  VALUE

                      01447 
02CC   3000           01448                         MOVLW NULL;                                     Genera la constante i y la carga
                             al registro de trabajo (w).
02CD   0086           01449                         MOVWF PORTB;                            Carga el dato del registro w al puerto b
                            .
02CE   1307           01450                         BCF PORTC,CLK_RE6_RC6;          Pone en 0 la salida del bit 6 del puerto c (CLK_
                            RE6_RC6).-|
                      01451                                                                                                         
                                                                                                                    ;--}--> 
02CF   1707           01452                         BSF PORTC,CLK_RE6_RC6;          Pone en 1 la salida del bit 6 del puerto c (CLK_
                            RE6_RC6).-|
                      01453                         ;_
                      01454                         
02D0   3000           01455                         MOVLW NULL;                             Genera la constante P y la carga al regi
                            stro de trabajo (w).
02D1   0086           01456                         MOVWF PORTB;                            Carga el dato del registro w al puerto b
                            .
02D2   1387           01457                         BCF PORTC,CLK_RE7_RC7;          Pone en 0 la salida del bit 7 del puerto c (CLK_
                            RE7_RC7).-|
                      01458                                                                                                         
                                                                                                                    ;--}--> 
02D3   1787           01459                         BSF PORTC,CLK_RE7_RC7;          Pone en 1 la salida del bit 7 del puerto c (CLK_
                            RE7_RC7).-|
                      01460                         ;_                      
                      01461 
02D4   2420           01462                         CALL RETARDO;
                      01463 
                      01464 
                      01465                         ;Veinteunava Palabra                    1oPE2                           
                      01466 
02D5   3038           01467                         MOVLW LL;                                       Genera la constante d y la carga
                             al registro de trabajo (w).
02D6   0086           01468                         MOVWF PORTB;                            Carga el dato del registro w al puerto b
                            .
02D7   1007           01469                         BCF PORTC,CLK_RE0_RC0;          Pone en 0 la salida del bit 0 del puerto c (CLK_
                            RE0_RC0).-|
                      01470                                                                                                         
                                                                                                                    ;--}--> 
02D8   1407           01471                         BSF PORTC,CLK_RE0_RC0;          Pone en 1 la salida del bit 0 del puerto c (CLK_
                            RE0_RC0).-|
                      01472                         ;L
                      01473 
02D9   305C           01474                         MOVLW O;                                        Genera la constante E y la carga
                             al registro de trabajo (w).
02DA   0086           01475                         MOVWF PORTB;                            Carga el dato del registro w al puerto b
                            .
02DB   1087           01476                         BCF PORTC,CLK_RE1_RC1;          Pone en 0 la salida del bit 1 del puerto c (CLK_
                            RE1_RC1).-|
                      01477                                                                                                         
                                                                                                                    ;--}--> 
02DC   1487           01478                         BSF PORTC,CLK_RE1_RC1;          Pone en 1 la salida del bit 1 del puerto c (CLK_
                            RE1_RC1).-|
                      01479                         ;o
MPASM  5.30.01                     DISPLAYS2.ASM   10-27-2023  14:28:06         PAGE 45


LOC  OBJECT CODE     LINE SOURCE TEXT
  VALUE

                      01480 
02DD   3073           01481                         MOVLW PP;                                       Genera la constante N y la carga
                             al registro de trabajo (w).
02DE   0086           01482                         MOVWF PORTB;                            Carga el dato del registro w al puerto b
                            .
02DF   1107           01483                         BCF PORTC,CLK_RE2_RC2;          Pone en 0 la salida del bit 2 del puerto c (CLK_
                            RE2_RC2).-|
                      01484                                                                                                         
                                                                                                                    ;--}--> 
02E0   1507           01485                         BSF PORTC,CLK_RE2_RC2;          Pone en 1 la salida del bit 2 del puerto c (CLK_
                            RE2_RC2).-|
                      01486                         ;p
                      01487 
02E1   3079           01488                         MOVLW E;                                        Genera la constante N y la carga
                             al registro de trabajo (w).
02E2   0086           01489                         MOVWF PORTB;                            Carga el dato del registro w al puerto b
                            .
02E3   1187           01490                         BCF PORTC,CLK_RE3_RC3;          Pone en 0 la salida del bit 3 del puerto c (CLK_
                            RE3_RC3).-|
                      01491                                                                                                         
                                                                                                                    ;--}--> 
02E4   1587           01492                         BSF PORTC,CLK_RE3_RC3;          Pone en 1 la salida del bit 3 del puerto c (CLK_
                            RE3_RC3).-|
                      01493                         ;E
                      01494 
02E5   305B           01495                         MOVLW DOS_2;                                    Genera la constante A y la carga
                             al registro de trabajo (w).
02E6   0086           01496                         MOVWF PORTB;                            Carga el dato del registro w al puerto b
                            .
02E7   1207           01497                         BCF PORTC,CLK_RE4_RC4;          Pone en 0 la salida del bit 4 del puerto c (CLK_
                            RE4_RC4).-|
                      01498                                                                                                         
                                                                                                                    ;--}--> 
02E8   1607           01499                         BSF PORTC,CLK_RE4_RC4;          Pone en 1 la salida del bit 4 del puerto c (CLK_
                            RE4_RC4).-|
                      01500                         ;2
                      01501 
02E9   3000           01502                         MOVLW NULL;                                     Genera la constante N y la carga
                             al registro de trabajo (w).
02EA   0086           01503                         MOVWF PORTB;                            Carga el dato del registro w al puerto b
                            .
02EB   1287           01504                         BCF PORTC,CLK_RE5_RC5;          Pone en 0 la salida del bit 5 del puerto c (CLK_
                            RE5_RC5).-|
                      01505                                                                                                         
                                                                                                                    ;--}--> 
02EC   1687           01506                         BSF PORTC,CLK_RE5_RC5;          Pone en 1 la salida del bit 5 del puerto c (CLK_
                            RE5_RC5).-|
                      01507                         ;_
                      01508 
02ED   3000           01509                         MOVLW NULL;                                     Genera la constante i y la carga
                             al registro de trabajo (w).
02EE   0086           01510                         MOVWF PORTB;                            Carga el dato del registro w al puerto b
                            .
MPASM  5.30.01                     DISPLAYS2.ASM   10-27-2023  14:28:06         PAGE 46


LOC  OBJECT CODE     LINE SOURCE TEXT
  VALUE

02EF   1307           01511                         BCF PORTC,CLK_RE6_RC6;          Pone en 0 la salida del bit 6 del puerto c (CLK_
                            RE6_RC6).-|
                      01512                                                                                                         
                                                                                                                    ;--}--> 
02F0   1707           01513                         BSF PORTC,CLK_RE6_RC6;          Pone en 1 la salida del bit 6 del puerto c (CLK_
                            RE6_RC6).-|
                      01514                         ;_
                      01515                         
02F1   3000           01516                         MOVLW NULL;                             Genera la constante P y la carga al regi
                            stro de trabajo (w).
02F2   0086           01517                         MOVWF PORTB;                            Carga el dato del registro w al puerto b
                            .
02F3   1387           01518                         BCF PORTC,CLK_RE7_RC7;          Pone en 0 la salida del bit 7 del puerto c (CLK_
                            RE7_RC7).-|
                      01519                                                                                                         
                                                                                                                    ;--}--> 
02F4   1787           01520                         BSF PORTC,CLK_RE7_RC7;          Pone en 1 la salida del bit 7 del puerto c (CLK_
                            RE7_RC7).-|
                      01521                         ;_                      
                      01522 
02F5   2420           01523                         CALL RETARDO;
                      01524 
                      01525 
                      01526                         ;Veintedosava Palabra                   dAuid                           
                      01527 
02F6   305E           01528                         MOVLW DD;                                       Genera la constante d y la carga
                             al registro de trabajo (w).
02F7   0086           01529                         MOVWF PORTB;                            Carga el dato del registro w al puerto b
                            .
02F8   1007           01530                         BCF PORTC,CLK_RE0_RC0;          Pone en 0 la salida del bit 0 del puerto c (CLK_
                            RE0_RC0).-|
                      01531                                                                                                         
                                                                                                                    ;--}--> 
02F9   1407           01532                         BSF PORTC,CLK_RE0_RC0;          Pone en 1 la salida del bit 0 del puerto c (CLK_
                            RE0_RC0).-|
                      01533                         ;d
                      01534 
02FA   3077           01535                         MOVLW A;                                        Genera la constante E y la carga
                             al registro de trabajo (w).
02FB   0086           01536                         MOVWF PORTB;                            Carga el dato del registro w al puerto b
                            .
02FC   1087           01537                         BCF PORTC,CLK_RE1_RC1;          Pone en 0 la salida del bit 1 del puerto c (CLK_
                            RE1_RC1).-|
                      01538                                                                                                         
                                                                                                                    ;--}--> 
02FD   1487           01539                         BSF PORTC,CLK_RE1_RC1;          Pone en 1 la salida del bit 1 del puerto c (CLK_
                            RE1_RC1).-|
                      01540                         ;A
                      01541 
02FE   301C           01542                         MOVLW UU;                                       Genera la constante N y la carga
                             al registro de trabajo (w).
02FF   0086           01543                         MOVWF PORTB;                            Carga el dato del registro w al puerto b
                            .
MPASM  5.30.01                     DISPLAYS2.ASM   10-27-2023  14:28:06         PAGE 47


LOC  OBJECT CODE     LINE SOURCE TEXT
  VALUE

0300   1107           01544                         BCF PORTC,CLK_RE2_RC2;          Pone en 0 la salida del bit 2 del puerto c (CLK_
                            RE2_RC2).-|
                      01545                                                                                                         
                                                                                                                    ;--}--> 
0301   1507           01546                         BSF PORTC,CLK_RE2_RC2;          Pone en 1 la salida del bit 2 del puerto c (CLK_
                            RE2_RC2).-|
                      01547                         ;u
                      01548 
0302   3010           01549                         MOVLW I;                                        Genera la constante N y la carga
                             al registro de trabajo (w).
0303   0086           01550                         MOVWF PORTB;                            Carga el dato del registro w al puerto b
                            .
0304   1187           01551                         BCF PORTC,CLK_RE3_RC3;          Pone en 0 la salida del bit 3 del puerto c (CLK_
                            RE3_RC3).-|
                      01552                                                                                                         
                                                                                                                    ;--}--> 
0305   1587           01553                         BSF PORTC,CLK_RE3_RC3;          Pone en 1 la salida del bit 3 del puerto c (CLK_
                            RE3_RC3).-|
                      01554                         ;i
                      01555 
0306   305E           01556                         MOVLW DD;                                       Genera la constante A y la carga
                             al registro de trabajo (w).
0307   0086           01557                         MOVWF PORTB;                            Carga el dato del registro w al puerto b
                            .
0308   1207           01558                         BCF PORTC,CLK_RE4_RC4;          Pone en 0 la salida del bit 4 del puerto c (CLK_
                            RE4_RC4).-|
                      01559                                                                                                         
                                                                                                                    ;--}--> 
0309   1607           01560                         BSF PORTC,CLK_RE4_RC4;          Pone en 1 la salida del bit 4 del puerto c (CLK_
                            RE4_RC4).-|
                      01561                         ;d
                      01562 
030A   3000           01563                         MOVLW NULL;                                     Genera la constante N y la carga
                             al registro de trabajo (w).
030B   0086           01564                         MOVWF PORTB;                            Carga el dato del registro w al puerto b
                            .
030C   1287           01565                         BCF PORTC,CLK_RE5_RC5;          Pone en 0 la salida del bit 5 del puerto c (CLK_
                            RE5_RC5).-|
                      01566                                                                                                         
                                                                                                                    ;--}--> 
030D   1687           01567                         BSF PORTC,CLK_RE5_RC5;          Pone en 1 la salida del bit 5 del puerto c (CLK_
                            RE5_RC5).-|
                      01568                         ;_
                      01569 
030E   3000           01570                         MOVLW NULL;                                     Genera la constante i y la carga
                             al registro de trabajo (w).
030F   0086           01571                         MOVWF PORTB;                            Carga el dato del registro w al puerto b
                            .
0310   1307           01572                         BCF PORTC,CLK_RE6_RC6;          Pone en 0 la salida del bit 6 del puerto c (CLK_
                            RE6_RC6).-|
                      01573                                                                                                         
                                                                                                                    ;--}--> 
0311   1707           01574                         BSF PORTC,CLK_RE6_RC6;          Pone en 1 la salida del bit 6 del puerto c (CLK_
MPASM  5.30.01                     DISPLAYS2.ASM   10-27-2023  14:28:06         PAGE 48


LOC  OBJECT CODE     LINE SOURCE TEXT
  VALUE

                            RE6_RC6).-|
                      01575                         ;_
                      01576                         
0312   3000           01577                         MOVLW NULL;                             Genera la constante P y la carga al regi
                            stro de trabajo (w).
0313   0086           01578                         MOVWF PORTB;                            Carga el dato del registro w al puerto b
                            .
0314   1387           01579                         BCF PORTC,CLK_RE7_RC7;          Pone en 0 la salida del bit 7 del puerto c (CLK_
                            RE7_RC7).-|
                      01580                                                                                                         
                                                                                                                    ;--}--> 
0315   1787           01581                         BSF PORTC,CLK_RE7_RC7;          Pone en 1 la salida del bit 7 del puerto c (CLK_
                            RE7_RC7).-|
                      01582                         ;_                      
                      01583 
0316   2420           01584                         CALL RETARDO;
                      01585 
                      01586 
                      01587                         ;Veintitresava Palabra                  i5Ai                            
                      01588 
0317   3010           01589                         MOVLW I;                                        Genera la constante d y la carga
                             al registro de trabajo (w).
0318   0086           01590                         MOVWF PORTB;                            Carga el dato del registro w al puerto b
                            .
0319   1007           01591                         BCF PORTC,CLK_RE0_RC0;          Pone en 0 la salida del bit 0 del puerto c (CLK_
                            RE0_RC0).-|
                      01592                                                                                                         
                                                                                                                    ;--}--> 
031A   1407           01593                         BSF PORTC,CLK_RE0_RC0;          Pone en 1 la salida del bit 0 del puerto c (CLK_
                            RE0_RC0).-|
                      01594                         ;i
                      01595 
031B   306D           01596                         MOVLW CINCO_5;                                  Genera la constante E y la carga
                             al registro de trabajo (w).
031C   0086           01597                         MOVWF PORTB;                            Carga el dato del registro w al puerto b
                            .
031D   1087           01598                         BCF PORTC,CLK_RE1_RC1;          Pone en 0 la salida del bit 1 del puerto c (CLK_
                            RE1_RC1).-|
                      01599                                                                                                         
                                                                                                                    ;--}--> 
031E   1487           01600                         BSF PORTC,CLK_RE1_RC1;          Pone en 1 la salida del bit 1 del puerto c (CLK_
                            RE1_RC1).-|
                      01601                         ;5
                      01602 
031F   3077           01603                         MOVLW A;                                        Genera la constante N y la carga
                             al registro de trabajo (w).
0320   0086           01604                         MOVWF PORTB;                            Carga el dato del registro w al puerto b
                            .
0321   1107           01605                         BCF PORTC,CLK_RE2_RC2;          Pone en 0 la salida del bit 2 del puerto c (CLK_
                            RE2_RC2).-|
                      01606                                                                                                         
                                                                                                                    ;--}--> 
0322   1507           01607                         BSF PORTC,CLK_RE2_RC2;          Pone en 1 la salida del bit 2 del puerto c (CLK_
MPASM  5.30.01                     DISPLAYS2.ASM   10-27-2023  14:28:06         PAGE 49


LOC  OBJECT CODE     LINE SOURCE TEXT
  VALUE

                            RE2_RC2).-|
                      01608                         ;A
                      01609 
0323   3010           01610                         MOVLW I;                                        Genera la constante N y la carga
                             al registro de trabajo (w).
0324   0086           01611                         MOVWF PORTB;                            Carga el dato del registro w al puerto b
                            .
0325   1187           01612                         BCF PORTC,CLK_RE3_RC3;          Pone en 0 la salida del bit 3 del puerto c (CLK_
                            RE3_RC3).-|
                      01613                                                                                                         
                                                                                                                    ;--}--> 
0326   1587           01614                         BSF PORTC,CLK_RE3_RC3;          Pone en 1 la salida del bit 3 del puerto c (CLK_
                            RE3_RC3).-|
                      01615                         ;i
                      01616 
0327   3000           01617                         MOVLW NULL;                                     Genera la constante A y la carga
                             al registro de trabajo (w).
0328   0086           01618                         MOVWF PORTB;                            Carga el dato del registro w al puerto b
                            .
0329   1207           01619                         BCF PORTC,CLK_RE4_RC4;          Pone en 0 la salida del bit 4 del puerto c (CLK_
                            RE4_RC4).-|
                      01620                                                                                                         
                                                                                                                    ;--}--> 
032A   1607           01621                         BSF PORTC,CLK_RE4_RC4;          Pone en 1 la salida del bit 4 del puerto c (CLK_
                            RE4_RC4).-|
                      01622                         ;_
                      01623 
032B   3000           01624                         MOVLW NULL;                                     Genera la constante N y la carga
                             al registro de trabajo (w).
032C   0086           01625                         MOVWF PORTB;                            Carga el dato del registro w al puerto b
                            .
032D   1287           01626                         BCF PORTC,CLK_RE5_RC5;          Pone en 0 la salida del bit 5 del puerto c (CLK_
                            RE5_RC5).-|
                      01627                                                                                                         
                                                                                                                    ;--}--> 
032E   1687           01628                         BSF PORTC,CLK_RE5_RC5;          Pone en 1 la salida del bit 5 del puerto c (CLK_
                            RE5_RC5).-|
                      01629                         ;_
                      01630 
032F   3000           01631                         MOVLW NULL;                                     Genera la constante i y la carga
                             al registro de trabajo (w).
0330   0086           01632                         MOVWF PORTB;                            Carga el dato del registro w al puerto b
                            .
0331   1307           01633                         BCF PORTC,CLK_RE6_RC6;          Pone en 0 la salida del bit 6 del puerto c (CLK_
                            RE6_RC6).-|
                      01634                                                                                                         
                                                                                                                    ;--}--> 
0332   1707           01635                         BSF PORTC,CLK_RE6_RC6;          Pone en 1 la salida del bit 6 del puerto c (CLK_
                            RE6_RC6).-|
                      01636                         ;_
                      01637                         
0333   3000           01638                         MOVLW NULL;                             Genera la constante P y la carga al regi
                            stro de trabajo (w).
MPASM  5.30.01                     DISPLAYS2.ASM   10-27-2023  14:28:06         PAGE 50


LOC  OBJECT CODE     LINE SOURCE TEXT
  VALUE

0334   0086           01639                         MOVWF PORTB;                            Carga el dato del registro w al puerto b
                            .
0335   1387           01640                         BCF PORTC,CLK_RE7_RC7;          Pone en 0 la salida del bit 7 del puerto c (CLK_
                            RE7_RC7).-|
                      01641                                                                                                         
                                                                                                                    ;--}--> 
0336   1787           01642                         BSF PORTC,CLK_RE7_RC7;          Pone en 1 la salida del bit 7 del puerto c (CLK_
                            RE7_RC7).-|
                      01643                         ;_                      
                      01644 
0337   2420           01645                         CALL RETARDO;
                      01646 
                      01647 
                      01648                         ;Veintecuatroava Palabra                        PuEntE                          
                      01649 
0338   3073           01650                         MOVLW PP;                                       Genera la constante d y la carga
                             al registro de trabajo (w).
0339   0086           01651                         MOVWF PORTB;                            Carga el dato del registro w al puerto b
                            .
033A   1007           01652                         BCF PORTC,CLK_RE0_RC0;          Pone en 0 la salida del bit 0 del puerto c (CLK_
                            RE0_RC0).-|
                      01653                                                                                                         
                                                                                                                    ;--}--> 
033B   1407           01654                         BSF PORTC,CLK_RE0_RC0;          Pone en 1 la salida del bit 0 del puerto c (CLK_
                            RE0_RC0).-|
                      01655                         ;p
                      01656 
033C   301C           01657                         MOVLW UU;                                       Genera la constante E y la carga
                             al registro de trabajo (w).
033D   0086           01658                         MOVWF PORTB;                            Carga el dato del registro w al puerto b
                            .
033E   1087           01659                         BCF PORTC,CLK_RE1_RC1;          Pone en 0 la salida del bit 1 del puerto c (CLK_
                            RE1_RC1).-|
                      01660                                                                                                         
                                                                                                                    ;--}--> 
033F   1487           01661                         BSF PORTC,CLK_RE1_RC1;          Pone en 1 la salida del bit 1 del puerto c (CLK_
                            RE1_RC1).-|
                      01662                         ;u
                      01663 
0340   3079           01664                         MOVLW E;                                        Genera la constante N y la carga
                             al registro de trabajo (w).
0341   0086           01665                         MOVWF PORTB;                            Carga el dato del registro w al puerto b
                            .
0342   1107           01666                         BCF PORTC,CLK_RE2_RC2;          Pone en 0 la salida del bit 2 del puerto c (CLK_
                            RE2_RC2).-|
                      01667                                                                                                         
                                                                                                                    ;--}--> 
0343   1507           01668                         BSF PORTC,CLK_RE2_RC2;          Pone en 1 la salida del bit 2 del puerto c (CLK_
                            RE2_RC2).-|
                      01669                         ;E
                      01670 
0344   3054           01671                         MOVLW NN;                                       Genera la constante N y la carga
                             al registro de trabajo (w).
MPASM  5.30.01                     DISPLAYS2.ASM   10-27-2023  14:28:06         PAGE 51


LOC  OBJECT CODE     LINE SOURCE TEXT
  VALUE

0345   0086           01672                         MOVWF PORTB;                            Carga el dato del registro w al puerto b
                            .
0346   1187           01673                         BCF PORTC,CLK_RE3_RC3;          Pone en 0 la salida del bit 3 del puerto c (CLK_
                            RE3_RC3).-|
                      01674                                                                                                         
                                                                                                                    ;--}--> 
0347   1587           01675                         BSF PORTC,CLK_RE3_RC3;          Pone en 1 la salida del bit 3 del puerto c (CLK_
                            RE3_RC3).-|
                      01676                         ;n
                      01677 
0348   3078           01678                         MOVLW T;                                        Genera la constante A y la carga
                             al registro de trabajo (w).
0349   0086           01679                         MOVWF PORTB;                            Carga el dato del registro w al puerto b
                            .
034A   1207           01680                         BCF PORTC,CLK_RE4_RC4;          Pone en 0 la salida del bit 4 del puerto c (CLK_
                            RE4_RC4).-|
                      01681                                                                                                         
                                                                                                                    ;--}--> 
034B   1607           01682                         BSF PORTC,CLK_RE4_RC4;          Pone en 1 la salida del bit 4 del puerto c (CLK_
                            RE4_RC4).-|
                      01683                         ;t
                      01684 
034C   3079           01685                         MOVLW E;                                        Genera la constante N y la carga
                             al registro de trabajo (w).
034D   0086           01686                         MOVWF PORTB;                            Carga el dato del registro w al puerto b
                            .
034E   1287           01687                         BCF PORTC,CLK_RE5_RC5;          Pone en 0 la salida del bit 5 del puerto c (CLK_
                            RE5_RC5).-|
                      01688                                                                                                         
                                                                                                                    ;--}--> 
034F   1687           01689                         BSF PORTC,CLK_RE5_RC5;          Pone en 1 la salida del bit 5 del puerto c (CLK_
                            RE5_RC5).-|
                      01690                         ;E
                      01691 
0350   3000           01692                         MOVLW NULL;                                     Genera la constante i y la carga
                             al registro de trabajo (w).
0351   0086           01693                         MOVWF PORTB;                            Carga el dato del registro w al puerto b
                            .
0352   1307           01694                         BCF PORTC,CLK_RE6_RC6;          Pone en 0 la salida del bit 6 del puerto c (CLK_
                            RE6_RC6).-|
                      01695                                                                                                         
                                                                                                                    ;--}--> 
0353   1707           01696                         BSF PORTC,CLK_RE6_RC6;          Pone en 1 la salida del bit 6 del puerto c (CLK_
                            RE6_RC6).-|
                      01697                         ;_
                      01698                         
0354   3000           01699                         MOVLW NULL;                             Genera la constante P y la carga al regi
                            stro de trabajo (w).
0355   0086           01700                         MOVWF PORTB;                            Carga el dato del registro w al puerto b
                            .
0356   1387           01701                         BCF PORTC,CLK_RE7_RC7;          Pone en 0 la salida del bit 7 del puerto c (CLK_
                            RE7_RC7).-|
                      01702                                                                                                         
MPASM  5.30.01                     DISPLAYS2.ASM   10-27-2023  14:28:06         PAGE 52


LOC  OBJECT CODE     LINE SOURCE TEXT
  VALUE

                                                                                                                    ;--}--> 
0357   1787           01703                         BSF PORTC,CLK_RE7_RC7;          Pone en 1 la salida del bit 7 del puerto c (CLK_
                            RE7_RC7).-|
                      01704                         ;_                      
                      01705 
0358   2420           01706                         CALL RETARDO;
                      01707 
                      01708 
                      01709                         ;Veinticincoava Palabra                 CA5tRo                          
                      01710 
0359   3039           01711                         MOVLW C_1;                                      Genera la constante d y la carga
                             al registro de trabajo (w).
035A   0086           01712                         MOVWF PORTB;                            Carga el dato del registro w al puerto b
                            .
035B   1007           01713                         BCF PORTC,CLK_RE0_RC0;          Pone en 0 la salida del bit 0 del puerto c (CLK_
                            RE0_RC0).-|
                      01714                                                                                                         
                                                                                                                    ;--}--> 
035C   1407           01715                         BSF PORTC,CLK_RE0_RC0;          Pone en 1 la salida del bit 0 del puerto c (CLK_
                            RE0_RC0).-|
                      01716                         ;C
                      01717 
035D   3077           01718                         MOVLW A;                                        Genera la constante E y la carga
                             al registro de trabajo (w).
035E   0086           01719                         MOVWF PORTB;                            Carga el dato del registro w al puerto b
                            .
035F   1087           01720                         BCF PORTC,CLK_RE1_RC1;          Pone en 0 la salida del bit 1 del puerto c (CLK_
                            RE1_RC1).-|
                      01721                                                                                                         
                                                                                                                    ;--}--> 
0360   1487           01722                         BSF PORTC,CLK_RE1_RC1;          Pone en 1 la salida del bit 1 del puerto c (CLK_
                            RE1_RC1).-|
                      01723                         ;A
                      01724 
0361   306D           01725                         MOVLW CINCO_5;                                  Genera la constante N y la carga
                             al registro de trabajo (w).
0362   0086           01726                         MOVWF PORTB;                            Carga el dato del registro w al puerto b
                            .
0363   1107           01727                         BCF PORTC,CLK_RE2_RC2;          Pone en 0 la salida del bit 2 del puerto c (CLK_
                            RE2_RC2).-|
                      01728                                                                                                         
                                                                                                                    ;--}--> 
0364   1507           01729                         BSF PORTC,CLK_RE2_RC2;          Pone en 1 la salida del bit 2 del puerto c (CLK_
                            RE2_RC2).-|
                      01730                         ;5
                      01731 
0365   3078           01732                         MOVLW T;                                        Genera la constante N y la carga
                             al registro de trabajo (w).
0366   0086           01733                         MOVWF PORTB;                            Carga el dato del registro w al puerto b
                            .
0367   1187           01734                         BCF PORTC,CLK_RE3_RC3;          Pone en 0 la salida del bit 3 del puerto c (CLK_
                            RE3_RC3).-|
                      01735                                                                                                         
MPASM  5.30.01                     DISPLAYS2.ASM   10-27-2023  14:28:06         PAGE 53


LOC  OBJECT CODE     LINE SOURCE TEXT
  VALUE

                                                                                                                    ;--}--> 
0368   1587           01736                         BSF PORTC,CLK_RE3_RC3;          Pone en 1 la salida del bit 3 del puerto c (CLK_
                            RE3_RC3).-|
                      01737                         ;t
                      01738 
0369   3050           01739                         MOVLW RR;                                       Genera la constante A y la carga
                             al registro de trabajo (w).
036A   0086           01740                         MOVWF PORTB;                            Carga el dato del registro w al puerto b
                            .
036B   1207           01741                         BCF PORTC,CLK_RE4_RC4;          Pone en 0 la salida del bit 4 del puerto c (CLK_
                            RE4_RC4).-|
                      01742                                                                                                         
                                                                                                                    ;--}--> 
036C   1607           01743                         BSF PORTC,CLK_RE4_RC4;          Pone en 1 la salida del bit 4 del puerto c (CLK_
                            RE4_RC4).-|
                      01744                         ;R
                      01745 
036D   305C           01746                         MOVLW O;                                        Genera la constante N y la carga
                             al registro de trabajo (w).
036E   0086           01747                         MOVWF PORTB;                            Carga el dato del registro w al puerto b
                            .
036F   1287           01748                         BCF PORTC,CLK_RE5_RC5;          Pone en 0 la salida del bit 5 del puerto c (CLK_
                            RE5_RC5).-|
                      01749                                                                                                         
                                                                                                                    ;--}--> 
0370   1687           01750                         BSF PORTC,CLK_RE5_RC5;          Pone en 1 la salida del bit 5 del puerto c (CLK_
                            RE5_RC5).-|
                      01751                         ;o
                      01752 
0371   3000           01753                         MOVLW NULL;                                     Genera la constante i y la carga
                             al registro de trabajo (w).
0372   0086           01754                         MOVWF PORTB;                            Carga el dato del registro w al puerto b
                            .
0373   1307           01755                         BCF PORTC,CLK_RE6_RC6;          Pone en 0 la salida del bit 6 del puerto c (CLK_
                            RE6_RC6).-|
                      01756                                                                                                         
                                                                                                                    ;--}--> 
0374   1707           01757                         BSF PORTC,CLK_RE6_RC6;          Pone en 1 la salida del bit 6 del puerto c (CLK_
                            RE6_RC6).-|
                      01758                         ;_
                      01759                         
0375   3000           01760                         MOVLW NULL;                             Genera la constante P y la carga al regi
                            stro de trabajo (w).
0376   0086           01761                         MOVWF PORTB;                            Carga el dato del registro w al puerto b
                            .
0377   1387           01762                         BCF PORTC,CLK_RE7_RC7;          Pone en 0 la salida del bit 7 del puerto c (CLK_
                            RE7_RC7).-|
                      01763                                                                                                         
                                                                                                                    ;--}--> 
0378   1787           01764                         BSF PORTC,CLK_RE7_RC7;          Pone en 1 la salida del bit 7 del puerto c (CLK_
                            RE7_RC7).-|
                      01765                         ;_                      
                      01766 
MPASM  5.30.01                     DISPLAYS2.ASM   10-27-2023  14:28:06         PAGE 54


LOC  OBJECT CODE     LINE SOURCE TEXT
  VALUE

0379   2420           01767                         CALL RETARDO;
                      01768 
                      01769 
                      01770                         ;Veintiseisava Palabra                  di1An                           
                      01771 
037A   305E           01772                         MOVLW DD;                                       Genera la constante d y la carga
                             al registro de trabajo (w).
037B   0086           01773                         MOVWF PORTB;                            Carga el dato del registro w al puerto b
                            .
037C   1007           01774                         BCF PORTC,CLK_RE0_RC0;          Pone en 0 la salida del bit 0 del puerto c (CLK_
                            RE0_RC0).-|
                      01775                                                                                                         
                                                                                                                    ;--}--> 
037D   1407           01776                         BSF PORTC,CLK_RE0_RC0;          Pone en 1 la salida del bit 0 del puerto c (CLK_
                            RE0_RC0).-|
                      01777                         ;d
                      01778 
037E   3010           01779                         MOVLW I;                                        Genera la constante E y la carga
                             al registro de trabajo (w).
037F   0086           01780                         MOVWF PORTB;                            Carga el dato del registro w al puerto b
                            .
0380   1087           01781                         BCF PORTC,CLK_RE1_RC1;          Pone en 0 la salida del bit 1 del puerto c (CLK_
                            RE1_RC1).-|
                      01782                                                                                                         
                                                                                                                    ;--}--> 
0381   1487           01783                         BSF PORTC,CLK_RE1_RC1;          Pone en 1 la salida del bit 1 del puerto c (CLK_
                            RE1_RC1).-|
                      01784                         ;i
                      01785 
0382   3006           01786                         MOVLW UNO_1;                                    Genera la constante N y la carga
                             al registro de trabajo (w).
0383   0086           01787                         MOVWF PORTB;                            Carga el dato del registro w al puerto b
                            .
0384   1107           01788                         BCF PORTC,CLK_RE2_RC2;          Pone en 0 la salida del bit 2 del puerto c (CLK_
                            RE2_RC2).-|
                      01789                                                                                                         
                                                                                                                    ;--}--> 
0385   1507           01790                         BSF PORTC,CLK_RE2_RC2;          Pone en 1 la salida del bit 2 del puerto c (CLK_
                            RE2_RC2).-|
                      01791                         ;1
                      01792 
0386   3077           01793                         MOVLW A;                                        Genera la constante N y la carga
                             al registro de trabajo (w).
0387   0086           01794                         MOVWF PORTB;                            Carga el dato del registro w al puerto b
                            .
0388   1187           01795                         BCF PORTC,CLK_RE3_RC3;          Pone en 0 la salida del bit 3 del puerto c (CLK_
                            RE3_RC3).-|
                      01796                                                                                                         
                                                                                                                    ;--}--> 
0389   1587           01797                         BSF PORTC,CLK_RE3_RC3;          Pone en 1 la salida del bit 3 del puerto c (CLK_
                            RE3_RC3).-|
                      01798                         ;A
                      01799 
MPASM  5.30.01                     DISPLAYS2.ASM   10-27-2023  14:28:06         PAGE 55


LOC  OBJECT CODE     LINE SOURCE TEXT
  VALUE

038A   3054           01800                         MOVLW NN;                                       Genera la constante A y la carga
                             al registro de trabajo (w).
038B   0086           01801                         MOVWF PORTB;                            Carga el dato del registro w al puerto b
                            .
038C   1207           01802                         BCF PORTC,CLK_RE4_RC4;          Pone en 0 la salida del bit 4 del puerto c (CLK_
                            RE4_RC4).-|
                      01803                                                                                                         
                                                                                                                    ;--}--> 
038D   1607           01804                         BSF PORTC,CLK_RE4_RC4;          Pone en 1 la salida del bit 4 del puerto c (CLK_
                            RE4_RC4).-|
                      01805                         ;n
                      01806 
038E   3000           01807                         MOVLW NULL;                                     Genera la constante N y la carga
                             al registro de trabajo (w).
038F   0086           01808                         MOVWF PORTB;                            Carga el dato del registro w al puerto b
                            .
0390   1287           01809                         BCF PORTC,CLK_RE5_RC5;          Pone en 0 la salida del bit 5 del puerto c (CLK_
                            RE5_RC5).-|
                      01810                                                                                                         
                                                                                                                    ;--}--> 
0391   1687           01811                         BSF PORTC,CLK_RE5_RC5;          Pone en 1 la salida del bit 5 del puerto c (CLK_
                            RE5_RC5).-|
                      01812                         ;_
                      01813 
0392   3000           01814                         MOVLW NULL;                                     Genera la constante i y la carga
                             al registro de trabajo (w).
0393   0086           01815                         MOVWF PORTB;                            Carga el dato del registro w al puerto b
                            .
0394   1307           01816                         BCF PORTC,CLK_RE6_RC6;          Pone en 0 la salida del bit 6 del puerto c (CLK_
                            RE6_RC6).-|
                      01817                                                                                                         
                                                                                                                    ;--}--> 
0395   1707           01818                         BSF PORTC,CLK_RE6_RC6;          Pone en 1 la salida del bit 6 del puerto c (CLK_
                            RE6_RC6).-|
                      01819                         ;_
                      01820                         
0396   3000           01821                         MOVLW NULL;                             Genera la constante P y la carga al regi
                            stro de trabajo (w).
0397   0086           01822                         MOVWF PORTB;                            Carga el dato del registro w al puerto b
                            .
0398   1387           01823                         BCF PORTC,CLK_RE7_RC7;          Pone en 0 la salida del bit 7 del puerto c (CLK_
                            RE7_RC7).-|
                      01824                                                                                                         
                                                                                                                    ;--}--> 
0399   1787           01825                         BSF PORTC,CLK_RE7_RC7;          Pone en 1 la salida del bit 7 del puerto c (CLK_
                            RE7_RC7).-|
                      01826                         ;_                      
                      01827 
039A   2420           01828                         CALL RETARDO;
                      01829 
                      01830 
                      01831                         ;Veintisieteava Palabra                 HA2iE1                          
                      01832 
MPASM  5.30.01                     DISPLAYS2.ASM   10-27-2023  14:28:06         PAGE 56


LOC  OBJECT CODE     LINE SOURCE TEXT
  VALUE

039B   3076           01833                         MOVLW H;                                        Genera la constante d y la carga
                             al registro de trabajo (w).
039C   0086           01834                         MOVWF PORTB;                            Carga el dato del registro w al puerto b
                            .
039D   1007           01835                         BCF PORTC,CLK_RE0_RC0;          Pone en 0 la salida del bit 0 del puerto c (CLK_
                            RE0_RC0).-|
                      01836                                                                                                         
                                                                                                                    ;--}--> 
039E   1407           01837                         BSF PORTC,CLK_RE0_RC0;          Pone en 1 la salida del bit 0 del puerto c (CLK_
                            RE0_RC0).-|
                      01838                         ;H
                      01839 
039F   3077           01840                         MOVLW A;                                        Genera la constante E y la carga
                             al registro de trabajo (w).
03A0   0086           01841                         MOVWF PORTB;                            Carga el dato del registro w al puerto b
                            .
03A1   1087           01842                         BCF PORTC,CLK_RE1_RC1;          Pone en 0 la salida del bit 1 del puerto c (CLK_
                            RE1_RC1).-|
                      01843                                                                                                         
                                                                                                                    ;--}--> 
03A2   1487           01844                         BSF PORTC,CLK_RE1_RC1;          Pone en 1 la salida del bit 1 del puerto c (CLK_
                            RE1_RC1).-|
                      01845                         ;A
                      01846 
03A3   305B           01847                         MOVLW DOS_2;                                    Genera la constante N y la carga
                             al registro de trabajo (w).
03A4   0086           01848                         MOVWF PORTB;                            Carga el dato del registro w al puerto b
                            .
03A5   1107           01849                         BCF PORTC,CLK_RE2_RC2;          Pone en 0 la salida del bit 2 del puerto c (CLK_
                            RE2_RC2).-|
                      01850                                                                                                         
                                                                                                                    ;--}--> 
03A6   1507           01851                         BSF PORTC,CLK_RE2_RC2;          Pone en 1 la salida del bit 2 del puerto c (CLK_
                            RE2_RC2).-|
                      01852                         ;2
                      01853 
03A7   3010           01854                         MOVLW I;                                        Genera la constante N y la carga
                             al registro de trabajo (w).
03A8   0086           01855                         MOVWF PORTB;                            Carga el dato del registro w al puerto b
                            .
03A9   1187           01856                         BCF PORTC,CLK_RE3_RC3;          Pone en 0 la salida del bit 3 del puerto c (CLK_
                            RE3_RC3).-|
                      01857                                                                                                         
                                                                                                                    ;--}--> 
03AA   1587           01858                         BSF PORTC,CLK_RE3_RC3;          Pone en 1 la salida del bit 3 del puerto c (CLK_
                            RE3_RC3).-|
                      01859                         ;i
                      01860 
03AB   3079           01861                         MOVLW E;                                        Genera la constante A y la carga
                             al registro de trabajo (w).
03AC   0086           01862                         MOVWF PORTB;                            Carga el dato del registro w al puerto b
                            .
03AD   1207           01863                         BCF PORTC,CLK_RE4_RC4;          Pone en 0 la salida del bit 4 del puerto c (CLK_
MPASM  5.30.01                     DISPLAYS2.ASM   10-27-2023  14:28:06         PAGE 57


LOC  OBJECT CODE     LINE SOURCE TEXT
  VALUE

                            RE4_RC4).-|
                      01864                                                                                                         
                                                                                                                    ;--}--> 
03AE   1607           01865                         BSF PORTC,CLK_RE4_RC4;          Pone en 1 la salida del bit 4 del puerto c (CLK_
                            RE4_RC4).-|
                      01866                         ;E
                      01867 
03AF   3006           01868                         MOVLW UNO_1;                                    Genera la constante N y la carga
                             al registro de trabajo (w).
03B0   0086           01869                         MOVWF PORTB;                            Carga el dato del registro w al puerto b
                            .
03B1   1287           01870                         BCF PORTC,CLK_RE5_RC5;          Pone en 0 la salida del bit 5 del puerto c (CLK_
                            RE5_RC5).-|
                      01871                                                                                                         
                                                                                                                    ;--}--> 
03B2   1687           01872                         BSF PORTC,CLK_RE5_RC5;          Pone en 1 la salida del bit 5 del puerto c (CLK_
                            RE5_RC5).-|
                      01873                         ;1
                      01874 
03B3   3000           01875                         MOVLW NULL;                                     Genera la constante i y la carga
                             al registro de trabajo (w).
03B4   0086           01876                         MOVWF PORTB;                            Carga el dato del registro w al puerto b
                            .
03B5   1307           01877                         BCF PORTC,CLK_RE6_RC6;          Pone en 0 la salida del bit 6 del puerto c (CLK_
                            RE6_RC6).-|
                      01878                                                                                                         
                                                                                                                    ;--}--> 
03B6   1707           01879                         BSF PORTC,CLK_RE6_RC6;          Pone en 1 la salida del bit 6 del puerto c (CLK_
                            RE6_RC6).-|
                      01880                         ;_
                      01881                         
03B7   3000           01882                         MOVLW NULL;                             Genera la constante P y la carga al regi
                            stro de trabajo (w).
03B8   0086           01883                         MOVWF PORTB;                            Carga el dato del registro w al puerto b
                            .
03B9   1387           01884                         BCF PORTC,CLK_RE7_RC7;          Pone en 0 la salida del bit 7 del puerto c (CLK_
                            RE7_RC7).-|
                      01885                                                                                                         
                                                                                                                    ;--}--> 
03BA   1787           01886                         BSF PORTC,CLK_RE7_RC7;          Pone en 1 la salida del bit 7 del puerto c (CLK_
                            RE7_RC7).-|
                      01887                         ;_                      
                      01888 
03BB   2420           01889                         CALL RETARDO;
                      01890 
                      01891 
                      01892                         ;Veintiochoava Palabra                  RAnniRE2                                
                      01893 
03BC   3050           01894                         MOVLW RR;                                       Genera la constante d y la carga
                             al registro de trabajo (w).
03BD   0086           01895                         MOVWF PORTB;                            Carga el dato del registro w al puerto b
                            .
03BE   1007           01896                         BCF PORTC,CLK_RE0_RC0;          Pone en 0 la salida del bit 0 del puerto c (CLK_
MPASM  5.30.01                     DISPLAYS2.ASM   10-27-2023  14:28:06         PAGE 58


LOC  OBJECT CODE     LINE SOURCE TEXT
  VALUE

                            RE0_RC0).-|
                      01897                                                                                                         
                                                                                                                    ;--}--> 
03BF   1407           01898                         BSF PORTC,CLK_RE0_RC0;          Pone en 1 la salida del bit 0 del puerto c (CLK_
                            RE0_RC0).-|
                      01899                         ;R
                      01900 
03C0   3077           01901                         MOVLW A;                                        Genera la constante E y la carga
                             al registro de trabajo (w).
03C1   0086           01902                         MOVWF PORTB;                            Carga el dato del registro w al puerto b
                            .
03C2   1087           01903                         BCF PORTC,CLK_RE1_RC1;          Pone en 0 la salida del bit 1 del puerto c (CLK_
                            RE1_RC1).-|
                      01904                                                                                                         
                                                                                                                    ;--}--> 
03C3   1487           01905                         BSF PORTC,CLK_RE1_RC1;          Pone en 1 la salida del bit 1 del puerto c (CLK_
                            RE1_RC1).-|
                      01906                         ;A
                      01907 
03C4   3054           01908                         MOVLW NN;                                       Genera la constante N y la carga
                             al registro de trabajo (w).
03C5   0086           01909                         MOVWF PORTB;                            Carga el dato del registro w al puerto b
                            .
03C6   1107           01910                         BCF PORTC,CLK_RE2_RC2;          Pone en 0 la salida del bit 2 del puerto c (CLK_
                            RE2_RC2).-|
                      01911                                                                                                         
                                                                                                                    ;--}--> 
03C7   1507           01912                         BSF PORTC,CLK_RE2_RC2;          Pone en 1 la salida del bit 2 del puerto c (CLK_
                            RE2_RC2).-|
                      01913                         ;n
                      01914 
03C8   3054           01915                         MOVLW NN;                                       Genera la constante N y la carga
                             al registro de trabajo (w).
03C9   0086           01916                         MOVWF PORTB;                            Carga el dato del registro w al puerto b
                            .
03CA   1187           01917                         BCF PORTC,CLK_RE3_RC3;          Pone en 0 la salida del bit 3 del puerto c (CLK_
                            RE3_RC3).-|
                      01918                                                                                                         
                                                                                                                    ;--}--> 
03CB   1587           01919                         BSF PORTC,CLK_RE3_RC3;          Pone en 1 la salida del bit 3 del puerto c (CLK_
                            RE3_RC3).-|
                      01920                         ;n
                      01921 
03CC   3010           01922                         MOVLW I;                                        Genera la constante A y la carga
                             al registro de trabajo (w).
03CD   0086           01923                         MOVWF PORTB;                            Carga el dato del registro w al puerto b
                            .
03CE   1207           01924                         BCF PORTC,CLK_RE4_RC4;          Pone en 0 la salida del bit 4 del puerto c (CLK_
                            RE4_RC4).-|
                      01925                                                                                                         
                                                                                                                    ;--}--> 
03CF   1607           01926                         BSF PORTC,CLK_RE4_RC4;          Pone en 1 la salida del bit 4 del puerto c (CLK_
                            RE4_RC4).-|
MPASM  5.30.01                     DISPLAYS2.ASM   10-27-2023  14:28:06         PAGE 59


LOC  OBJECT CODE     LINE SOURCE TEXT
  VALUE

                      01927                         ;i
                      01928 
03D0   3050           01929                         MOVLW RR;                                       Genera la constante N y la carga
                             al registro de trabajo (w).
03D1   0086           01930                         MOVWF PORTB;                            Carga el dato del registro w al puerto b
                            .
03D2   1287           01931                         BCF PORTC,CLK_RE5_RC5;          Pone en 0 la salida del bit 5 del puerto c (CLK_
                            RE5_RC5).-|
                      01932                                                                                                         
                                                                                                                    ;--}--> 
03D3   1687           01933                         BSF PORTC,CLK_RE5_RC5;          Pone en 1 la salida del bit 5 del puerto c (CLK_
                            RE5_RC5).-|
                      01934                         ;r
                      01935 
03D4   3079           01936                         MOVLW E;                                        Genera la constante i y la carga
                             al registro de trabajo (w).
03D5   0086           01937                         MOVWF PORTB;                            Carga el dato del registro w al puerto b
                            .
03D6   1307           01938                         BCF PORTC,CLK_RE6_RC6;          Pone en 0 la salida del bit 6 del puerto c (CLK_
                            RE6_RC6).-|
                      01939                                                                                                         
                                                                                                                    ;--}--> 
03D7   1707           01940                         BSF PORTC,CLK_RE6_RC6;          Pone en 1 la salida del bit 6 del puerto c (CLK_
                            RE6_RC6).-|
                      01941                         ;E
                      01942                         
03D8   305B           01943                         MOVLW DOS_2;                            Genera la constante P y la carga al regi
                            stro de trabajo (w).
03D9   0086           01944                         MOVWF PORTB;                            Carga el dato del registro w al puerto b
                            .
03DA   1387           01945                         BCF PORTC,CLK_RE7_RC7;          Pone en 0 la salida del bit 7 del puerto c (CLK_
                            RE7_RC7).-|
                      01946                                                                                                         
                                                                                                                    ;--}--> 
03DB   1787           01947                         BSF PORTC,CLK_RE7_RC7;          Pone en 1 la salida del bit 7 del puerto c (CLK_
                            RE7_RC7).-|
                      01948                         ;2                      
                      01949 
03DC   2420           01950                         CALL RETARDO;
                      01951 
                      01952 
                      01953                         ;Veintenueveava Palabra                 uA1EnciA                                
                      01954 
03DD   301C           01955                         MOVLW UU;                                       Genera la constante d y la carga
                             al registro de trabajo (w).
03DE   0086           01956                         MOVWF PORTB;                            Carga el dato del registro w al puerto b
                            .
03DF   1007           01957                         BCF PORTC,CLK_RE0_RC0;          Pone en 0 la salida del bit 0 del puerto c (CLK_
                            RE0_RC0).-|
                      01958                                                                                                         
                                                                                                                    ;--}--> 
03E0   1407           01959                         BSF PORTC,CLK_RE0_RC0;          Pone en 1 la salida del bit 0 del puerto c (CLK_
                            RE0_RC0).-|
MPASM  5.30.01                     DISPLAYS2.ASM   10-27-2023  14:28:06         PAGE 60


LOC  OBJECT CODE     LINE SOURCE TEXT
  VALUE

                      01960                         ;u
                      01961 
03E1   3077           01962                         MOVLW A;                                        Genera la constante E y la carga
                             al registro de trabajo (w).
03E2   0086           01963                         MOVWF PORTB;                            Carga el dato del registro w al puerto b
                            .
03E3   1087           01964                         BCF PORTC,CLK_RE1_RC1;          Pone en 0 la salida del bit 1 del puerto c (CLK_
                            RE1_RC1).-|
                      01965                                                                                                         
                                                                                                                    ;--}--> 
03E4   1487           01966                         BSF PORTC,CLK_RE1_RC1;          Pone en 1 la salida del bit 1 del puerto c (CLK_
                            RE1_RC1).-|
                      01967                         ;A
                      01968 
03E5   3006           01969                         MOVLW UNO_1;                                    Genera la constante N y la carga
                             al registro de trabajo (w).
03E6   0086           01970                         MOVWF PORTB;                            Carga el dato del registro w al puerto b
                            .
03E7   1107           01971                         BCF PORTC,CLK_RE2_RC2;          Pone en 0 la salida del bit 2 del puerto c (CLK_
                            RE2_RC2).-|
                      01972                                                                                                         
                                                                                                                    ;--}--> 
03E8   1507           01973                         BSF PORTC,CLK_RE2_RC2;          Pone en 1 la salida del bit 2 del puerto c (CLK_
                            RE2_RC2).-|
                      01974                         ;1
                      01975 
03E9   3079           01976                         MOVLW E;                                        Genera la constante N y la carga
                             al registro de trabajo (w).
03EA   0086           01977                         MOVWF PORTB;                            Carga el dato del registro w al puerto b
                            .
03EB   1187           01978                         BCF PORTC,CLK_RE3_RC3;          Pone en 0 la salida del bit 3 del puerto c (CLK_
                            RE3_RC3).-|
                      01979                                                                                                         
                                                                                                                    ;--}--> 
03EC   1587           01980                         BSF PORTC,CLK_RE3_RC3;          Pone en 1 la salida del bit 3 del puerto c (CLK_
                            RE3_RC3).-|
                      01981                         ;E
                      01982 
03ED   3054           01983                         MOVLW NN;                                       Genera la constante A y la carga
                             al registro de trabajo (w).
03EE   0086           01984                         MOVWF PORTB;                            Carga el dato del registro w al puerto b
                            .
03EF   1207           01985                         BCF PORTC,CLK_RE4_RC4;          Pone en 0 la salida del bit 4 del puerto c (CLK_
                            RE4_RC4).-|
                      01986                                                                                                         
                                                                                                                    ;--}--> 
03F0   1607           01987                         BSF PORTC,CLK_RE4_RC4;          Pone en 1 la salida del bit 4 del puerto c (CLK_
                            RE4_RC4).-|
                      01988                         ;n
                      01989 
03F1   3058           01990                         MOVLW C_0;                                      Genera la constante N y la carga
                             al registro de trabajo (w).
03F2   0086           01991                         MOVWF PORTB;                            Carga el dato del registro w al puerto b
MPASM  5.30.01                     DISPLAYS2.ASM   10-27-2023  14:28:06         PAGE 61


LOC  OBJECT CODE     LINE SOURCE TEXT
  VALUE

                            .
03F3   1287           01992                         BCF PORTC,CLK_RE5_RC5;          Pone en 0 la salida del bit 5 del puerto c (CLK_
                            RE5_RC5).-|
                      01993                                                                                                         
                                                                                                                    ;--}--> 
03F4   1687           01994                         BSF PORTC,CLK_RE5_RC5;          Pone en 1 la salida del bit 5 del puerto c (CLK_
                            RE5_RC5).-|
                      01995                         ;c
                      01996 
03F5   3010           01997                         MOVLW I;                                        Genera la constante i y la carga
                             al registro de trabajo (w).
03F6   0086           01998                         MOVWF PORTB;                            Carga el dato del registro w al puerto b
                            .
03F7   1307           01999                         BCF PORTC,CLK_RE6_RC6;          Pone en 0 la salida del bit 6 del puerto c (CLK_
                            RE6_RC6).-|
                      02000                                                                                                         
                                                                                                                    ;--}--> 
03F8   1707           02001                         BSF PORTC,CLK_RE6_RC6;          Pone en 1 la salida del bit 6 del puerto c (CLK_
                            RE6_RC6).-|
                      02002                         ;i
                      02003                         
03F9   3077           02004                         MOVLW A;                                Genera la constante P y la carga al regi
                            stro de trabajo (w).
03FA   0086           02005                         MOVWF PORTB;                            Carga el dato del registro w al puerto b
                            .
03FB   1387           02006                         BCF PORTC,CLK_RE7_RC7;          Pone en 0 la salida del bit 7 del puerto c (CLK_
                            RE7_RC7).-|
                      02007                                                                                                         
                                                                                                                    ;--}--> 
03FC   1787           02008                         BSF PORTC,CLK_RE7_RC7;          Pone en 1 la salida del bit 7 del puerto c (CLK_
                            RE7_RC7).-|
                      02009                         ;A                      
                      02010 
03FD   2420           02011                         CALL RETARDO;
                      02012 
                      02013 
                      02014                         ;Treintava Palabra                      EnRi9uE                         
                      02015 
03FE   3079           02016                         MOVLW E;                                        Genera la constante d y la carga
                             al registro de trabajo (w).
03FF   0086           02017                         MOVWF PORTB;                            Carga el dato del registro w al puerto b
                            .
0400   1007           02018                         BCF PORTC,CLK_RE0_RC0;          Pone en 0 la salida del bit 0 del puerto c (CLK_
                            RE0_RC0).-|
                      02019                                                                                                         
                                                                                                                    ;--}--> 
0401   1407           02020                         BSF PORTC,CLK_RE0_RC0;          Pone en 1 la salida del bit 0 del puerto c (CLK_
                            RE0_RC0).-|
                      02021                         ;E
                      02022 
0402   3054           02023                         MOVLW NN;                                       Genera la constante E y la carga
                             al registro de trabajo (w).
0403   0086           02024                         MOVWF PORTB;                            Carga el dato del registro w al puerto b
MPASM  5.30.01                     DISPLAYS2.ASM   10-27-2023  14:28:06         PAGE 62


LOC  OBJECT CODE     LINE SOURCE TEXT
  VALUE

                            .
0404   1087           02025                         BCF PORTC,CLK_RE1_RC1;          Pone en 0 la salida del bit 1 del puerto c (CLK_
                            RE1_RC1).-|
                      02026                                                                                                         
                                                                                                                    ;--}--> 
0405   1487           02027                         BSF PORTC,CLK_RE1_RC1;          Pone en 1 la salida del bit 1 del puerto c (CLK_
                            RE1_RC1).-|
                      02028                         ;n
                      02029 
0406   3050           02030                         MOVLW RR;                                       Genera la constante N y la carga
                             al registro de trabajo (w).
0407   0086           02031                         MOVWF PORTB;                            Carga el dato del registro w al puerto b
                            .
0408   1107           02032                         BCF PORTC,CLK_RE2_RC2;          Pone en 0 la salida del bit 2 del puerto c (CLK_
                            RE2_RC2).-|
                      02033                                                                                                         
                                                                                                                    ;--}--> 
0409   1507           02034                         BSF PORTC,CLK_RE2_RC2;          Pone en 1 la salida del bit 2 del puerto c (CLK_
                            RE2_RC2).-|
                      02035                         ;R
                      02036 
040A   3010           02037                         MOVLW I;                                        Genera la constante N y la carga
                             al registro de trabajo (w).
040B   0086           02038                         MOVWF PORTB;                            Carga el dato del registro w al puerto b
                            .
040C   1187           02039                         BCF PORTC,CLK_RE3_RC3;          Pone en 0 la salida del bit 3 del puerto c (CLK_
                            RE3_RC3).-|
                      02040                                                                                                         
                                                                                                                    ;--}--> 
040D   1587           02041                         BSF PORTC,CLK_RE3_RC3;          Pone en 1 la salida del bit 3 del puerto c (CLK_
                            RE3_RC3).-|
                      02042                         ;i
                      02043 
040E   306F           02044                         MOVLW NUEVE_9;                                  Genera la constante A y la carga
                             al registro de trabajo (w).
040F   0086           02045                         MOVWF PORTB;                            Carga el dato del registro w al puerto b
                            .
0410   1207           02046                         BCF PORTC,CLK_RE4_RC4;          Pone en 0 la salida del bit 4 del puerto c (CLK_
                            RE4_RC4).-|
                      02047                                                                                                         
                                                                                                                    ;--}--> 
0411   1607           02048                         BSF PORTC,CLK_RE4_RC4;          Pone en 1 la salida del bit 4 del puerto c (CLK_
                            RE4_RC4).-|
                      02049                         ;9
                      02050 
0412   301C           02051                         MOVLW UU;                                       Genera la constante N y la carga
                             al registro de trabajo (w).
0413   0086           02052                         MOVWF PORTB;                            Carga el dato del registro w al puerto b
                            .
0414   1287           02053                         BCF PORTC,CLK_RE5_RC5;          Pone en 0 la salida del bit 5 del puerto c (CLK_
                            RE5_RC5).-|
                      02054                                                                                                         
                                                                                                                    ;--}--> 
MPASM  5.30.01                     DISPLAYS2.ASM   10-27-2023  14:28:06         PAGE 63


LOC  OBJECT CODE     LINE SOURCE TEXT
  VALUE

0415   1687           02055                         BSF PORTC,CLK_RE5_RC5;          Pone en 1 la salida del bit 5 del puerto c (CLK_
                            RE5_RC5).-|
                      02056                         ;u
                      02057 
0416   3079           02058                         MOVLW E;                                        Genera la constante i y la carga
                             al registro de trabajo (w).
0417   0086           02059                         MOVWF PORTB;                            Carga el dato del registro w al puerto b
                            .
0418   1307           02060                         BCF PORTC,CLK_RE6_RC6;          Pone en 0 la salida del bit 6 del puerto c (CLK_
                            RE6_RC6).-|
                      02061                                                                                                         
                                                                                                                    ;--}--> 
0419   1707           02062                         BSF PORTC,CLK_RE6_RC6;          Pone en 1 la salida del bit 6 del puerto c (CLK_
                            RE6_RC6).-|
                      02063                         ;E
                      02064                         
041A   3000           02065                         MOVLW NULL;                             Genera la constante P y la carga al regi
                            stro de trabajo (w).
041B   0086           02066                         MOVWF PORTB;                            Carga el dato del registro w al puerto b
                            .
041C   1387           02067                         BCF PORTC,CLK_RE7_RC7;          Pone en 0 la salida del bit 7 del puerto c (CLK_
                            RE7_RC7).-|
                      02068                                                                                                         
                                                                                                                    ;--}--> 
041D   1787           02069                         BSF PORTC,CLK_RE7_RC7;          Pone en 1 la salida del bit 7 del puerto c (CLK_
                            RE7_RC7).-|
                      02070                         ;_                      
                      02071 
041E   2420           02072                         CALL RETARDO;
041F   2818           02073                         GOTO LOOP_PRIN;
                      02074 ;---------------------------------------------------------------------------------------------
                      02075                         ; ===========================================
                      02076                         ; == Subrutina de retardo de medio segundo ==
                      02077                         ; ===========================================
                      02078 
0420   3008           02079 RETARDO         MOVLW M;
0421   00A2           02080                         MOVWF CONTADOR3;
0422   30FF           02081 LOOP3           MOVLW N;
0423   00A1           02082                         MOVWF CONTADOR2;
0424   30FF           02083 LOOP2           MOVLW L;
0425   00A0           02084                         MOVWF CONTADOR1;
0426   0BA0           02085 LOOP1           DECFSZ CONTADOR1,F;
0427   2C26           02086                         GOTO LOOP1;
0428   0BA1           02087                         DECFSZ CONTADOR2,F;
0429   2C24           02088                         GOTO LOOP2;
042A   0BA2           02089                         DECFSZ CONTADOR3,F;
042B   2C22           02090                         GOTO LOOP3;
042C   0008           02091                         RETURN;
                      02092 ;---------------------------------------------------------------------------------------------
                      02093                 END
MPASM  5.30.01                     DISPLAYS2.ASM   10-27-2023  14:28:06         PAGE 64


SYMBOL TABLE
  LABEL                             VALUE 

A                                 00000077
ACKDT                             00000005
ACKEN                             00000004
ACKSTAT                           00000006
ADCON0                            0000001F
ADCON1                            0000009F
ADCS0                             00000006
ADCS1                             00000007
ADCS2                             00000006
ADDEN                             00000003
ADFM                              00000007
ADIE                              00000006
ADIF                              00000006
ADON                              00000000
ADRESH                            0000001E
ADRESL                            0000009E
A_RB0                             00000000
BB                                0000007C
BCLIE                             00000003
BCLIF                             00000003
BF                                00000000
BRGH                              00000002
B_RB1                             00000001
C                                 00000000
C1INV                             00000004
C1OUT                             00000006
C2INV                             00000005
C2OUT                             00000007
CCP1CON                           00000017
CCP1IE                            00000002
CCP1IF                            00000002
CCP1M0                            00000000
CCP1M1                            00000001
CCP1M2                            00000002
CCP1M3                            00000003
CCP1X                             00000005
CCP1Y                             00000004
CCP2CON                           0000001D
CCP2IE                            00000000
CCP2IF                            00000000
CCP2M0                            00000000
CCP2M1                            00000001
CCP2M2                            00000002
CCP2M3                            00000003
CCP2X                             00000005
CCP2Y                             00000004
CCPR1H                            00000016
CCPR1L                            00000015
CCPR2H                            0000001C
CCPR2L                            0000001B
CERO_0                            0000003F
CHS0                              00000003
CHS1                              00000004
MPASM  5.30.01                     DISPLAYS2.ASM   10-27-2023  14:28:06         PAGE 65


SYMBOL TABLE
  LABEL                             VALUE 

CHS2                              00000005
CINCO_5                           0000006D
CIS                               00000003
CKE                               00000006
CKP                               00000004
CLK_RE0_RC0                       00000000
CLK_RE1_RC1                       00000001
CLK_RE2_RC2                       00000002
CLK_RE3_RC3                       00000003
CLK_RE4_RC4                       00000004
CLK_RE5_RC5                       00000005
CLK_RE6_RC6                       00000006
CLK_RE7_RC7                       00000007
CM0                               00000000
CM1                               00000001
CM2                               00000002
CMCON                             0000009C
CMIE                              00000006
CMIF                              00000006
CONTADOR1                         00000020
CONTADOR2                         00000021
CONTADOR3                         00000022
CREN                              00000004
CSRC                              00000007
CUATRO_4                          00000066
CVR0                              00000000
CVR1                              00000001
CVR2                              00000002
CVR3                              00000003
CVRCON                            0000009D
CVREN                             00000007
CVROE                             00000006
CVRR                              00000005
C_0                               00000058
C_1                               00000039
C_RB2                             00000002
D                                 00000005
DATA_ADDRESS                      00000005
DC                                00000001
DD                                0000005E
DOS_2                             0000005B
DP_RB7                            00000007
D_A                               00000005
D_RB3                             00000003
E                                 00000079
EEADR                             0000010D
EEADRH                            0000010F
EECON1                            0000018C
EECON2                            0000018D
EEDATA                            0000010C
EEDATH                            0000010E
EEIE                              00000004
EEIF                              00000004
MPASM  5.30.01                     DISPLAYS2.ASM   10-27-2023  14:28:06         PAGE 66


SYMBOL TABLE
  LABEL                             VALUE 

EEPGD                             00000007
E_RB4                             00000004
F                                 00000001
FERR                              00000002
FF                                00000071
FSR                               00000004
F_RB5                             00000005
GCEN                              00000007
GIE                               00000007
GO                                00000002
GO_DONE                           00000002
G_RB6                             00000006
H                                 00000076
HH                                00000074
I                                 00000010
I2C_DATA                          00000005
I2C_READ                          00000002
I2C_START                         00000003
I2C_STOP                          00000004
IBF                               00000007
IBOV                              00000005
INDF                              00000000
INTCON                            0000000B
INTE                              00000004
INTEDG                            00000006
INTF                              00000001
IRP                               00000007
J                                 0000001E
L                                 000000FF
LL                                00000038
LOOP1                             00000426
LOOP2                             00000424
LOOP3                             00000422
LOOP_PRIN                         00000018
M                                 00000008
N                                 000000FF
NN                                00000054
NNN                               00000037
NOT_A                             00000005
NOT_ADDRESS                       00000005
NOT_BO                            00000000
NOT_BOR                           00000000
NOT_DONE                          00000002
NOT_PD                            00000003
NOT_POR                           00000001
NOT_RBPU                          00000007
NOT_RC8                           00000006
NOT_T1SYNC                        00000002
NOT_TO                            00000004
NOT_TX8                           00000006
NOT_W                             00000002
NOT_WRITE                         00000002
NUEVE_9                           0000006F
MPASM  5.30.01                     DISPLAYS2.ASM   10-27-2023  14:28:06         PAGE 67


SYMBOL TABLE
  LABEL                             VALUE 

NULL                              00000000
O                                 0000005C
OBF                               00000006
OCHO_8                            0000007F
OERR                              00000001
OPTION_REG                        00000081
P                                 00000004
PCFG0                             00000000
PCFG1                             00000001
PCFG2                             00000002
PCFG3                             00000003
PCL                               00000002
PCLATH                            0000000A
PCON                              0000008E
PEIE                              00000006
PEN                               00000002
PIE1                              0000008C
PIE2                              0000008D
PIR1                              0000000C
PIR2                              0000000D
PORTA                             00000005
PORTB                             00000006
PORTC                             00000007
PORTD                             00000008
PORTE                             00000009
PP                                00000073
PR2                               00000092
PROGA                             0000003F
PROGB                             00000000
PROGC                             00000000
PROGD                             000000FF
PROGE                             00000007
PROG_INI                          00000006
PROG_PRIN                         00000017
PS0                               00000000
PS1                               00000001
PS2                               00000002
PSA                               00000003
PSPIE                             00000007
PSPIF                             00000007
PSPMODE                           00000004
R                                 00000002
RBIE                              00000003
RBIF                              00000000
RC8_9                             00000006
RC9                               00000006
RCD8                              00000000
RCEN                              00000003
RCIE                              00000005
RCIF                              00000005
RCREG                             0000001A
RCSTA                             00000018
RD                                00000000
MPASM  5.30.01                     DISPLAYS2.ASM   10-27-2023  14:28:06         PAGE 68


SYMBOL TABLE
  LABEL                             VALUE 

READ_WRITE                        00000002
RETARDO                           00000420
RP0                               00000005
RP1                               00000006
RR                                00000050
RSEN                              00000001
RX9                               00000006
RX9D                              00000000
R_W                               00000002
S                                 00000003
SEIS_6                            0000007D
SEN                               00000000
SIETE_7                           00000007
SIN_USORA0                        00000000
SIN_USORA1                        00000001
SIN_USORA2                        00000002
SIN_USORA3                        00000003
SIN_USORA4                        00000004
SIN_USORA5                        00000005
SIN_USORD0                        00000000
SIN_USORD1                        00000001
SIN_USORD2                        00000002
SIN_USORD3                        00000003
SIN_USORD4                        00000004
SIN_USORD5                        00000005
SIN_USORD6                        00000006
SIN_USORD7                        00000007
SIN_USORE0                        00000000
SIN_USORE1                        00000001
SIN_USORE2                        00000000
SMP                               00000007
SPBRG                             00000099
SPEN                              00000007
SREN                              00000005
SSPADD                            00000093
SSPBUF                            00000013
SSPCON                            00000014
SSPCON2                           00000091
SSPEN                             00000005
SSPIE                             00000003
SSPIF                             00000003
SSPM0                             00000000
SSPM1                             00000001
SSPM2                             00000002
SSPM3                             00000003
SSPOV                             00000006
SSPSTAT                           00000094
STATUS                            00000003
SYNC                              00000004
T                                 00000078
T0CS                              00000005
T0IE                              00000005
T0IF                              00000002
MPASM  5.30.01                     DISPLAYS2.ASM   10-27-2023  14:28:06         PAGE 69


SYMBOL TABLE
  LABEL                             VALUE 

T0SE                              00000004
T1CKPS0                           00000004
T1CKPS1                           00000005
T1CON                             00000010
T1INSYNC                          00000002
T1OSCEN                           00000003
T1SYNC                            00000002
T2CKPS0                           00000000
T2CKPS1                           00000001
T2CON                             00000012
TMR0                              00000001
TMR0IE                            00000005
TMR0IF                            00000002
TMR1CS                            00000001
TMR1H                             0000000F
TMR1IE                            00000000
TMR1IF                            00000000
TMR1L                             0000000E
TMR1ON                            00000000
TMR2                              00000011
TMR2IE                            00000001
TMR2IF                            00000001
TMR2ON                            00000002
TOUTPS0                           00000003
TOUTPS1                           00000004
TOUTPS2                           00000005
TOUTPS3                           00000006
TRES_3                            0000004F
TRISA                             00000085
TRISB                             00000086
TRISC                             00000087
TRISD                             00000088
TRISE                             00000089
TRISE0                            00000000
TRISE1                            00000001
TRISE2                            00000002
TRMT                              00000001
TX8_9                             00000006
TX9                               00000006
TX9D                              00000000
TXD8                              00000000
TXEN                              00000005
TXIE                              00000004
TXIF                              00000004
TXREG                             00000019
TXSTA                             00000098
U                                 0000003E
UA                                00000001
UNO_1                             00000006
UU                                0000001C
VEC_INT                           00000004
VEC_RESET                         00000000
W                                 00000000
MPASM  5.30.01                     DISPLAYS2.ASM   10-27-2023  14:28:06         PAGE 70


SYMBOL TABLE
  LABEL                             VALUE 

WCOL                              00000007
WR                                00000001
WREN                              00000002
WRERR                             00000003
Y                                 0000006E
Z                                 00000002
_BODEN_OFF                        00003FBF
_BODEN_ON                         00003FFF
_CPD_OFF                          00003FFF
_CPD_ON                           00003EFF
_CP_ALL                           00001FFF
_CP_OFF                           00003FFF
_DEBUG_OFF                        00003FFF
_DEBUG_ON                         000037FF
_HS_OSC                           00003FFE
_LP_OSC                           00003FFC
_LVP_OFF                          00003F7F
_LVP_ON                           00003FFF
_PWRTE_OFF                        00003FFF
_PWRTE_ON                         00003FF7
_RC_OSC                           00003FFF
_WDT_OFF                          00003FFB
_WDT_ON                           00003FFF
_WRT_1FOURTH                      00003BFF
_WRT_256                          00003DFF
_WRT_HALF                         000039FF
_WRT_OFF                          00003FFF
_XT_OSC                           00003FFD
__16F877A                         00000001
ń                                 00000055


MEMORY USAGE MAP ('X' = Used,  '-' = Unused)

0000 : XX--XXXXXXXXXXXX XXXXXXXXXXXXXXXX XXXXXXXXXXXXXXXX XXXXXXXXXXXXXXXX
0040 : XXXXXXXXXXXXXXXX XXXXXXXXXXXXXXXX XXXXXXXXXXXXXXXX XXXXXXXXXXXXXXXX
0080 : XXXXXXXXXXXXXXXX XXXXXXXXXXXXXXXX XXXXXXXXXXXXXXXX XXXXXXXXXXXXXXXX
00C0 : XXXXXXXXXXXXXXXX XXXXXXXXXXXXXXXX XXXXXXXXXXXXXXXX XXXXXXXXXXXXXXXX
0100 : XXXXXXXXXXXXXXXX XXXXXXXXXXXXXXXX XXXXXXXXXXXXXXXX XXXXXXXXXXXXXXXX
0140 : XXXXXXXXXXXXXXXX XXXXXXXXXXXXXXXX XXXXXXXXXXXXXXXX XXXXXXXXXXXXXXXX
0180 : XXXXXXXXXXXXXXXX XXXXXXXXXXXXXXXX XXXXXXXXXXXXXXXX XXXXXXXXXXXXXXXX
01C0 : XXXXXXXXXXXXXXXX XXXXXXXXXXXXXXXX XXXXXXXXXXXXXXXX XXXXXXXXXXXXXXXX
0200 : XXXXXXXXXXXXXXXX XXXXXXXXXXXXXXXX XXXXXXXXXXXXXXXX XXXXXXXXXXXXXXXX
0240 : XXXXXXXXXXXXXXXX XXXXXXXXXXXXXXXX XXXXXXXXXXXXXXXX XXXXXXXXXXXXXXXX
0280 : XXXXXXXXXXXXXXXX XXXXXXXXXXXXXXXX XXXXXXXXXXXXXXXX XXXXXXXXXXXXXXXX
02C0 : XXXXXXXXXXXXXXXX XXXXXXXXXXXXXXXX XXXXXXXXXXXXXXXX XXXXXXXXXXXXXXXX
MPASM  5.30.01                     DISPLAYS2.ASM   10-27-2023  14:28:06         PAGE 71


MEMORY USAGE MAP ('X' = Used,  '-' = Unused)


0300 : XXXXXXXXXXXXXXXX XXXXXXXXXXXXXXXX XXXXXXXXXXXXXXXX XXXXXXXXXXXXXXXX
0340 : XXXXXXXXXXXXXXXX XXXXXXXXXXXXXXXX XXXXXXXXXXXXXXXX XXXXXXXXXXXXXXXX
0380 : XXXXXXXXXXXXXXXX XXXXXXXXXXXXXXXX XXXXXXXXXXXXXXXX XXXXXXXXXXXXXXXX
03C0 : XXXXXXXXXXXXXXXX XXXXXXXXXXXXXXXX XXXXXXXXXXXXXXXX XXXXXXXXXXXXXXXX
0400 : XXXXXXXXXXXXXXXX XXXXXXXXXXXXXXXX XXXXXXXXXXXXX--- ----------------
2000 : -------X-------- ---------------- ---------------- ----------------

All other memory blocks unused.

Program Memory Words Used:  1067
Program Memory Words Free:  7125


Errors   :     0
Warnings :     0 reported,     0 suppressed
Messages :     0 reported,     0 suppressed

